ARM GAS  /var/folders/yw/6_x9gyn52jjg4jtn_wsryx_80000gp/T//cccDMQvQ.s 			page 1


   1              		.cpu cortex-m7
   2              		.arch armv7e-m
   3              		.fpu fpv5-d16
   4              		.eabi_attribute 28, 1
   5              		.eabi_attribute 20, 1
   6              		.eabi_attribute 21, 1
   7              		.eabi_attribute 23, 3
   8              		.eabi_attribute 24, 1
   9              		.eabi_attribute 25, 1
  10              		.eabi_attribute 26, 1
  11              		.eabi_attribute 30, 2
  12              		.eabi_attribute 34, 1
  13              		.eabi_attribute 18, 4
  14              		.file	"mpr121Test.cpp"
  15              		.text
  16              	.Ltext0:
  17              		.cfi_sections	.debug_frame
  18              		.section	.text._ZN5daisy9DaisySeedD2Ev,"axG",%progbits,_ZN5daisy9DaisySeedD5Ev,comdat
  19              		.align	1
  20              		.p2align 2,,3
  21              		.weak	_ZN5daisy9DaisySeedD2Ev
  22              		.syntax unified
  23              		.thumb
  24              		.thumb_func
  26              	_ZN5daisy9DaisySeedD2Ev:
  27              	.LVL0:
  28              	.LFB2529:
  29              		.file 1 "../../../libDaisy/src/daisy_seed.h"
   1:../../../libDaisy/src/daisy_seed.h **** #pragma once
   2:../../../libDaisy/src/daisy_seed.h **** #ifndef DSY_SEED_H
   3:../../../libDaisy/src/daisy_seed.h **** #define DSY_SEED_H
   4:../../../libDaisy/src/daisy_seed.h **** 
   5:../../../libDaisy/src/daisy_seed.h **** #include "daisy.h"
   6:../../../libDaisy/src/daisy_seed.h **** 
   7:../../../libDaisy/src/daisy_seed.h **** //Uncomment this out if you're still using the rev2 hardware
   8:../../../libDaisy/src/daisy_seed.h **** //#define SEED_REV2
   9:../../../libDaisy/src/daisy_seed.h **** 
  10:../../../libDaisy/src/daisy_seed.h **** namespace daisy
  11:../../../libDaisy/src/daisy_seed.h **** {
  12:../../../libDaisy/src/daisy_seed.h **** /**
  13:../../../libDaisy/src/daisy_seed.h ****    @brief This is the higher-level interface for the Daisy board. \n 
  14:../../../libDaisy/src/daisy_seed.h ****     All basic peripheral configuration/initialization is setup here. \n
  15:../../../libDaisy/src/daisy_seed.h **** 
  16:../../../libDaisy/src/daisy_seed.h ****    @ingroup boards
  17:../../../libDaisy/src/daisy_seed.h **** */
  18:../../../libDaisy/src/daisy_seed.h **** class DaisySeed
  19:../../../libDaisy/src/daisy_seed.h **** {
  20:../../../libDaisy/src/daisy_seed.h ****   public:
  21:../../../libDaisy/src/daisy_seed.h ****     DaisySeed() {}
  22:../../../libDaisy/src/daisy_seed.h ****     ~DaisySeed() {}
  30              		.loc 1 22 5 view -0
  31              		.cfi_startproc
  32              		@ args = 0, pretend = 0, frame = 0
  33              		@ frame_needed = 0, uses_anonymous_args = 0
  34              		@ link register save eliminated.
  35              	.LBB212:
  36              	.LBI212:
ARM GAS  /var/folders/yw/6_x9gyn52jjg4jtn_wsryx_80000gp/T//cccDMQvQ.s 			page 2


  37              		.file 2 "../../../libDaisy/src/sys/system.h"
   1:../../../libDaisy/src/sys/system.h **** #ifndef DSY_SYSTEM_H
   2:../../../libDaisy/src/sys/system.h **** #define DSY_SYSTEM_H
   3:../../../libDaisy/src/sys/system.h **** 
   4:../../../libDaisy/src/sys/system.h **** #ifndef UNIT_TEST // for unit tests, a dummy implementation is provided below
   5:../../../libDaisy/src/sys/system.h **** 
   6:../../../libDaisy/src/sys/system.h **** #include <cstdint>
   7:../../../libDaisy/src/sys/system.h **** #include "per/tim.h"
   8:../../../libDaisy/src/sys/system.h **** 
   9:../../../libDaisy/src/sys/system.h **** namespace daisy
  10:../../../libDaisy/src/sys/system.h **** {
  11:../../../libDaisy/src/sys/system.h **** /** A handle for interacting with the Core System. 
  12:../../../libDaisy/src/sys/system.h ****  ** This includes the Clock tree, MPU, global DMA initialization,
  13:../../../libDaisy/src/sys/system.h ****  ** cache handling, and any other necessary global initiailzation
  14:../../../libDaisy/src/sys/system.h ****  **
  15:../../../libDaisy/src/sys/system.h ****  ** @author shensley
  16:../../../libDaisy/src/sys/system.h ****  ** @ingroup system
  17:../../../libDaisy/src/sys/system.h ****  */
  18:../../../libDaisy/src/sys/system.h **** class System
  19:../../../libDaisy/src/sys/system.h **** {
  20:../../../libDaisy/src/sys/system.h ****   public:
  21:../../../libDaisy/src/sys/system.h ****     /** Contains settings for initializing the System */
  22:../../../libDaisy/src/sys/system.h ****     struct Config
  23:../../../libDaisy/src/sys/system.h ****     {
  24:../../../libDaisy/src/sys/system.h ****         /** Specifies the system clock frequency that feeds APB/AHB clocks, etc. */
  25:../../../libDaisy/src/sys/system.h ****         enum class SysClkFreq
  26:../../../libDaisy/src/sys/system.h ****         {
  27:../../../libDaisy/src/sys/system.h ****             FREQ_400MHZ,
  28:../../../libDaisy/src/sys/system.h ****             FREQ_480MHZ,
  29:../../../libDaisy/src/sys/system.h ****         };
  30:../../../libDaisy/src/sys/system.h **** 
  31:../../../libDaisy/src/sys/system.h ****         /** Method to call on the struct to set to defaults
  32:../../../libDaisy/src/sys/system.h ****          ** CPU Freq set to 400MHz
  33:../../../libDaisy/src/sys/system.h ****          ** Cache Enabled 
  34:../../../libDaisy/src/sys/system.h ****          ** */
  35:../../../libDaisy/src/sys/system.h ****         void Defaults()
  36:../../../libDaisy/src/sys/system.h ****         {
  37:../../../libDaisy/src/sys/system.h ****             cpu_freq    = SysClkFreq::FREQ_400MHZ;
  38:../../../libDaisy/src/sys/system.h ****             use_dcache  = true;
  39:../../../libDaisy/src/sys/system.h ****             use_icache  = true;
  40:../../../libDaisy/src/sys/system.h ****             skip_clocks = false;
  41:../../../libDaisy/src/sys/system.h ****         }
  42:../../../libDaisy/src/sys/system.h **** 
  43:../../../libDaisy/src/sys/system.h ****         /** Method to call on the struct to set to boost mode:
  44:../../../libDaisy/src/sys/system.h ****          ** CPU Freq set to 480MHz
  45:../../../libDaisy/src/sys/system.h ****          ** Cache Enabled 
  46:../../../libDaisy/src/sys/system.h ****          ** */
  47:../../../libDaisy/src/sys/system.h ****         void Boost()
  48:../../../libDaisy/src/sys/system.h ****         {
  49:../../../libDaisy/src/sys/system.h ****             cpu_freq    = SysClkFreq::FREQ_480MHZ;
  50:../../../libDaisy/src/sys/system.h ****             use_dcache  = true;
  51:../../../libDaisy/src/sys/system.h ****             use_icache  = true;
  52:../../../libDaisy/src/sys/system.h ****             skip_clocks = false;
  53:../../../libDaisy/src/sys/system.h ****         }
  54:../../../libDaisy/src/sys/system.h **** 
  55:../../../libDaisy/src/sys/system.h ****         SysClkFreq cpu_freq;
  56:../../../libDaisy/src/sys/system.h ****         bool       use_dcache;
ARM GAS  /var/folders/yw/6_x9gyn52jjg4jtn_wsryx_80000gp/T//cccDMQvQ.s 			page 3


  57:../../../libDaisy/src/sys/system.h ****         bool       use_icache;
  58:../../../libDaisy/src/sys/system.h ****         bool       skip_clocks;
  59:../../../libDaisy/src/sys/system.h ****     };
  60:../../../libDaisy/src/sys/system.h **** 
  61:../../../libDaisy/src/sys/system.h ****     /** Describes the different regions of memory available to the Daisy
  62:../../../libDaisy/src/sys/system.h ****      * 
  63:../../../libDaisy/src/sys/system.h ****      */
  64:../../../libDaisy/src/sys/system.h ****     enum MemoryRegion
  65:../../../libDaisy/src/sys/system.h ****     {
  66:../../../libDaisy/src/sys/system.h ****         INTERNAL_FLASH = 0,
  67:../../../libDaisy/src/sys/system.h ****         ITCMRAM,
  68:../../../libDaisy/src/sys/system.h ****         DTCMRAM,
  69:../../../libDaisy/src/sys/system.h ****         SRAM_D1,
  70:../../../libDaisy/src/sys/system.h ****         SRAM_D2,
  71:../../../libDaisy/src/sys/system.h ****         SRAM_D3,
  72:../../../libDaisy/src/sys/system.h ****         SDRAM,
  73:../../../libDaisy/src/sys/system.h ****         QSPI,
  74:../../../libDaisy/src/sys/system.h ****         INVALID_ADDRESS,
  75:../../../libDaisy/src/sys/system.h ****     };
  76:../../../libDaisy/src/sys/system.h **** 
  77:../../../libDaisy/src/sys/system.h ****     System() {}
  78:../../../libDaisy/src/sys/system.h ****     ~System() {}
  38              		.loc 2 78 5 view .LVU1
  39              		.loc 2 78 5 is_stmt 0 view .LVU2
  40              	.LBE212:
  41              	.LBB213:
  42              	.LBI213:
  43              		.file 3 "../../../libDaisy/src/hid/usb.h"
   1:../../../libDaisy/src/hid/usb.h **** #pragma once
   2:../../../libDaisy/src/hid/usb.h **** #ifndef DSY_HID_USB_H
   3:../../../libDaisy/src/hid/usb.h **** #define DSY_HID_USB_H
   4:../../../libDaisy/src/hid/usb.h **** #include <stdint.h>
   5:../../../libDaisy/src/hid/usb.h **** #include <stdlib.h>
   6:../../../libDaisy/src/hid/usb.h **** 
   7:../../../libDaisy/src/hid/usb.h **** namespace daisy
   8:../../../libDaisy/src/hid/usb.h **** /** @addtogroup human_interface
   9:../../../libDaisy/src/hid/usb.h ****     @{
  10:../../../libDaisy/src/hid/usb.h **** */
  11:../../../libDaisy/src/hid/usb.h **** 
  12:../../../libDaisy/src/hid/usb.h **** {
  13:../../../libDaisy/src/hid/usb.h **** /** 
  14:../../../libDaisy/src/hid/usb.h ****     @brief Interface for initializing and using the USB Peripherals on the daisy
  15:../../../libDaisy/src/hid/usb.h ****     @author Stephen Hensley
  16:../../../libDaisy/src/hid/usb.h ****     @date December 2019
  17:../../../libDaisy/src/hid/usb.h **** */
  18:../../../libDaisy/src/hid/usb.h **** class UsbHandle
  19:../../../libDaisy/src/hid/usb.h **** {
  20:../../../libDaisy/src/hid/usb.h ****   public:
  21:../../../libDaisy/src/hid/usb.h ****     /** Return values for USBHandle Functions */
  22:../../../libDaisy/src/hid/usb.h ****     enum class Result
  23:../../../libDaisy/src/hid/usb.h ****     {
  24:../../../libDaisy/src/hid/usb.h ****         OK,
  25:../../../libDaisy/src/hid/usb.h ****         ERR,
  26:../../../libDaisy/src/hid/usb.h ****     };
  27:../../../libDaisy/src/hid/usb.h **** 
  28:../../../libDaisy/src/hid/usb.h ****     /** Specified which of the two USB Peripherals to initialize. */
  29:../../../libDaisy/src/hid/usb.h ****     enum UsbPeriph
ARM GAS  /var/folders/yw/6_x9gyn52jjg4jtn_wsryx_80000gp/T//cccDMQvQ.s 			page 4


  30:../../../libDaisy/src/hid/usb.h ****     {
  31:../../../libDaisy/src/hid/usb.h ****         FS_INTERNAL, /**< Internal pin */
  32:../../../libDaisy/src/hid/usb.h ****         FS_EXTERNAL, /**< FS External D+ pin is Pin 38 (GPIO32). FS External D- pin is Pin 37 (GPIO
  33:../../../libDaisy/src/hid/usb.h ****         FS_BOTH,     /**< Both */
  34:../../../libDaisy/src/hid/usb.h ****     };
  35:../../../libDaisy/src/hid/usb.h **** 
  36:../../../libDaisy/src/hid/usb.h **** 
  37:../../../libDaisy/src/hid/usb.h ****     /** Function called upon reception of a buffer */
  38:../../../libDaisy/src/hid/usb.h ****     typedef void (*ReceiveCallback)(uint8_t* buff, uint32_t* len);
  39:../../../libDaisy/src/hid/usb.h **** 
  40:../../../libDaisy/src/hid/usb.h ****     UsbHandle() {}
  41:../../../libDaisy/src/hid/usb.h **** 
  42:../../../libDaisy/src/hid/usb.h ****     ~UsbHandle() {}
  44              		.loc 3 42 5 is_stmt 1 view .LVU3
  45              		.loc 3 42 5 is_stmt 0 view .LVU4
  46              	.LBE213:
  47              	.LBB214:
  48              	.LBI214:
  49              		.file 4 "../../../libDaisy/src/per/adc.h"
   1:../../../libDaisy/src/per/adc.h **** #pragma once
   2:../../../libDaisy/src/per/adc.h **** #ifndef DSY_ADC_H
   3:../../../libDaisy/src/per/adc.h **** #define DSY_ADC_H /**< Macro */
   4:../../../libDaisy/src/per/adc.h **** #include <stdint.h>
   5:../../../libDaisy/src/per/adc.h **** #include <stdlib.h>
   6:../../../libDaisy/src/per/adc.h **** #include "daisy_core.h"
   7:../../../libDaisy/src/per/adc.h **** #include "per/gpio.h"
   8:../../../libDaisy/src/per/adc.h **** 
   9:../../../libDaisy/src/per/adc.h **** #define DSY_ADC_MAX_CHANNELS 16 /**< Maximum number of ADC channels */
  10:../../../libDaisy/src/per/adc.h **** 
  11:../../../libDaisy/src/per/adc.h **** namespace daisy
  12:../../../libDaisy/src/per/adc.h **** {
  13:../../../libDaisy/src/per/adc.h **** /** @addtogroup per_analog
  14:../../../libDaisy/src/per/adc.h ****     @{
  15:../../../libDaisy/src/per/adc.h **** */
  16:../../../libDaisy/src/per/adc.h **** 
  17:../../../libDaisy/src/per/adc.h **** /* While there may not be many configuration options here,
  18:../../../libDaisy/src/per/adc.h **** using a struct like this allows us to add more configuration
  19:../../../libDaisy/src/per/adc.h **** later without breaking existing functionality.
  20:../../../libDaisy/src/per/adc.h **** */
  21:../../../libDaisy/src/per/adc.h **** 
  22:../../../libDaisy/src/per/adc.h **** /** @brief   Configuration Structure for an ADC Channel 
  23:../../../libDaisy/src/per/adc.h ****  *  @details This can be used to configure a a single input, 
  24:../../../libDaisy/src/per/adc.h ****  *           or a multiplexed input, allowing up to 8 inputs on 
  25:../../../libDaisy/src/per/adc.h ****  *           one channel.
  26:../../../libDaisy/src/per/adc.h ****  *  @note    Sharing data lines to multiple muxes _is_ possible, but
  27:../../../libDaisy/src/per/adc.h ****  *           each channel sharing data lines must be set to the maximum
  28:../../../libDaisy/src/per/adc.h ****  *           number of channels, even if some multiplexers have fewer
  29:../../../libDaisy/src/per/adc.h ****  *           inputs connected.
  30:../../../libDaisy/src/per/adc.h **** */
  31:../../../libDaisy/src/per/adc.h **** struct AdcChannelConfig
  32:../../../libDaisy/src/per/adc.h **** {
  33:../../../libDaisy/src/per/adc.h ****     /** Which pin to use for multiplexing */
  34:../../../libDaisy/src/per/adc.h ****     enum MuxPin
  35:../../../libDaisy/src/per/adc.h ****     {
  36:../../../libDaisy/src/per/adc.h ****         MUX_SEL_0,    /**< & */
  37:../../../libDaisy/src/per/adc.h ****         MUX_SEL_1,    /**< & */
  38:../../../libDaisy/src/per/adc.h ****         MUX_SEL_2,    /**< & */
ARM GAS  /var/folders/yw/6_x9gyn52jjg4jtn_wsryx_80000gp/T//cccDMQvQ.s 			page 5


  39:../../../libDaisy/src/per/adc.h ****         MUX_SEL_LAST, /**< & */
  40:../../../libDaisy/src/per/adc.h ****     };
  41:../../../libDaisy/src/per/adc.h **** 
  42:../../../libDaisy/src/per/adc.h ****     /** Initializes a single ADC pin as an ADC. 
  43:../../../libDaisy/src/per/adc.h ****     \param pin Pin to init.
  44:../../../libDaisy/src/per/adc.h ****      */
  45:../../../libDaisy/src/per/adc.h ****     void InitSingle(dsy_gpio_pin pin);
  46:../../../libDaisy/src/per/adc.h **** 
  47:../../../libDaisy/src/per/adc.h ****     /** 
  48:../../../libDaisy/src/per/adc.h ****     Initializes a single ADC pin as a Multiplexed ADC.
  49:../../../libDaisy/src/per/adc.h ****     Requires a CD405X Multiplexer connected to the pin.
  50:../../../libDaisy/src/per/adc.h ****     You only need to supply the mux pins that are required,
  51:../../../libDaisy/src/per/adc.h ****     e.g. a 4052 mux would only require mux_0 and mux_1.
  52:../../../libDaisy/src/per/adc.h ****     Internal Callbacks handle the pin addressing.
  53:../../../libDaisy/src/per/adc.h ****     \param mux_channels must be 1-8
  54:../../../libDaisy/src/per/adc.h ****     \param mux_0 First mux pin
  55:../../../libDaisy/src/per/adc.h ****     \param mux_1 Second mux pin
  56:../../../libDaisy/src/per/adc.h ****     \param mux_2 Third mux pin
  57:../../../libDaisy/src/per/adc.h ****     \param adc_pin &
  58:../../../libDaisy/src/per/adc.h ****     */
  59:../../../libDaisy/src/per/adc.h ****     void InitMux(dsy_gpio_pin adc_pin,
  60:../../../libDaisy/src/per/adc.h ****                  size_t       mux_channels,
  61:../../../libDaisy/src/per/adc.h ****                  dsy_gpio_pin mux_0,
  62:../../../libDaisy/src/per/adc.h ****                  dsy_gpio_pin mux_1 = {DSY_GPIOX, 0},
  63:../../../libDaisy/src/per/adc.h ****                  dsy_gpio_pin mux_2 = {DSY_GPIOX, 0});
  64:../../../libDaisy/src/per/adc.h **** 
  65:../../../libDaisy/src/per/adc.h ****     dsy_gpio pin_;                   /**< & */
  66:../../../libDaisy/src/per/adc.h ****     dsy_gpio mux_pin_[MUX_SEL_LAST]; /**< & */
  67:../../../libDaisy/src/per/adc.h ****     uint8_t  mux_channels_;          /**< & */
  68:../../../libDaisy/src/per/adc.h **** };
  69:../../../libDaisy/src/per/adc.h **** 
  70:../../../libDaisy/src/per/adc.h **** /**
  71:../../../libDaisy/src/per/adc.h ****    @brief Handler for analog to digital conversion
  72:../../../libDaisy/src/per/adc.h **** */
  73:../../../libDaisy/src/per/adc.h **** class AdcHandle
  74:../../../libDaisy/src/per/adc.h **** {
  75:../../../libDaisy/src/per/adc.h ****   public:
  76:../../../libDaisy/src/per/adc.h ****     /** Supported oversampling amounts */
  77:../../../libDaisy/src/per/adc.h ****     enum OverSampling
  78:../../../libDaisy/src/per/adc.h ****     {
  79:../../../libDaisy/src/per/adc.h ****         OVS_NONE, /**< & */
  80:../../../libDaisy/src/per/adc.h ****         OVS_4,    /**< & */
  81:../../../libDaisy/src/per/adc.h ****         OVS_8,    /**< & */
  82:../../../libDaisy/src/per/adc.h ****         OVS_16,   /**< & */
  83:../../../libDaisy/src/per/adc.h ****         OVS_32,   /**< & */
  84:../../../libDaisy/src/per/adc.h ****         OVS_64,   /**< & */
  85:../../../libDaisy/src/per/adc.h ****         OVS_128,  /**< & */
  86:../../../libDaisy/src/per/adc.h ****         OVS_256,  /**< & */
  87:../../../libDaisy/src/per/adc.h ****         OVS_512,  /**< & */
  88:../../../libDaisy/src/per/adc.h ****         OVS_1024, /**< & */
  89:../../../libDaisy/src/per/adc.h ****         OVS_LAST, /**< & */
  90:../../../libDaisy/src/per/adc.h ****     };
  91:../../../libDaisy/src/per/adc.h **** 
  92:../../../libDaisy/src/per/adc.h ****     AdcHandle() {}
  93:../../../libDaisy/src/per/adc.h ****     ~AdcHandle() {}
  50              		.loc 4 93 5 is_stmt 1 view .LVU5
  51              		.loc 4 93 5 is_stmt 0 view .LVU6
ARM GAS  /var/folders/yw/6_x9gyn52jjg4jtn_wsryx_80000gp/T//cccDMQvQ.s 			page 6


  52              	.LBE214:
  53              	.LBB215:
  54              	.LBI215:
  55              		.file 5 "../../../libDaisy/src/hid/audio.h"
   1:../../../libDaisy/src/hid/audio.h **** #ifndef DSY_AUDIO_H
   2:../../../libDaisy/src/hid/audio.h **** #define DSY_AUDIO_H /**< & */
   3:../../../libDaisy/src/hid/audio.h **** 
   4:../../../libDaisy/src/hid/audio.h **** #include "per/sai.h"
   5:../../../libDaisy/src/hid/audio.h **** 
   6:../../../libDaisy/src/hid/audio.h **** namespace daisy
   7:../../../libDaisy/src/hid/audio.h **** {
   8:../../../libDaisy/src/hid/audio.h **** /** @brief Audio Engine Handle
   9:../../../libDaisy/src/hid/audio.h ****  *  @ingroup audio 
  10:../../../libDaisy/src/hid/audio.h ****  *  @details This class allows for higher level access to an audio engine.
  11:../../../libDaisy/src/hid/audio.h ****  *           If you're using a SOM like the DaisySeed or DaisyPatchSM (or any 
  12:../../../libDaisy/src/hid/audio.h ****  *            board that includes one of those objects) then the intialization
  13:../../../libDaisy/src/hid/audio.h ****  *            is already taken  care of.
  14:../../../libDaisy/src/hid/audio.h ****  *           If you're setting up your own custom hardware, or need to make changes
  15:../../../libDaisy/src/hid/audio.h ****  *           you will have to take the following steps:
  16:../../../libDaisy/src/hid/audio.h ****  *             1. Create and Initialize an SaiHandle or two depending on your requirements
  17:../../../libDaisy/src/hid/audio.h ****  *             2. Initialize the Audio Handle with the desired settings and the Initialized SaiHand
  18:../../../libDaisy/src/hid/audio.h ****  *             3. If the connected codec requires special configuration or initialization, do so
  19:../../../libDaisy/src/hid/audio.h ****  *             4. Write a callback method using either the AudioCallback or the InterleavingAudioCa
  20:../../../libDaisy/src/hid/audio.h ****  *             5. Start the Audio using one of the StartAudio function
  21:../../../libDaisy/src/hid/audio.h ****  */
  22:../../../libDaisy/src/hid/audio.h **** class AudioHandle
  23:../../../libDaisy/src/hid/audio.h **** {
  24:../../../libDaisy/src/hid/audio.h ****   public:
  25:../../../libDaisy/src/hid/audio.h ****     /** Manually configurable details about the Audio Engine */
  26:../../../libDaisy/src/hid/audio.h ****     /** TODO: Figure out how to get samplerate in here. */
  27:../../../libDaisy/src/hid/audio.h ****     struct Config
  28:../../../libDaisy/src/hid/audio.h ****     {
  29:../../../libDaisy/src/hid/audio.h ****         /** number of samples to process per callback */
  30:../../../libDaisy/src/hid/audio.h ****         size_t blocksize;
  31:../../../libDaisy/src/hid/audio.h **** 
  32:../../../libDaisy/src/hid/audio.h ****         /**< Sample rate of audio */
  33:../../../libDaisy/src/hid/audio.h ****         SaiHandle::Config::SampleRate samplerate;
  34:../../../libDaisy/src/hid/audio.h **** 
  35:../../../libDaisy/src/hid/audio.h ****         /** factor for adjustment before and after callback for hardware that may have extra headro
  36:../../../libDaisy/src/hid/audio.h ****         float postgain;
  37:../../../libDaisy/src/hid/audio.h **** 
  38:../../../libDaisy/src/hid/audio.h ****         /** factor for additional one-sided compensation to audio path for hardware that may
  39:../../../libDaisy/src/hid/audio.h ****          *  have unequal input/output ranges
  40:../../../libDaisy/src/hid/audio.h ****          */
  41:../../../libDaisy/src/hid/audio.h ****         float output_compensation;
  42:../../../libDaisy/src/hid/audio.h **** 
  43:../../../libDaisy/src/hid/audio.h ****         /** Sets default values for config struct */
  44:../../../libDaisy/src/hid/audio.h ****         Config()
  45:../../../libDaisy/src/hid/audio.h ****         : blocksize(48),
  46:../../../libDaisy/src/hid/audio.h ****           samplerate(SaiHandle::Config::SampleRate::SAI_48KHZ),
  47:../../../libDaisy/src/hid/audio.h ****           postgain(1.f),
  48:../../../libDaisy/src/hid/audio.h ****           output_compensation(1.f)
  49:../../../libDaisy/src/hid/audio.h ****         {
  50:../../../libDaisy/src/hid/audio.h ****         }
  51:../../../libDaisy/src/hid/audio.h ****     };
  52:../../../libDaisy/src/hid/audio.h **** 
  53:../../../libDaisy/src/hid/audio.h ****     enum class Result
ARM GAS  /var/folders/yw/6_x9gyn52jjg4jtn_wsryx_80000gp/T//cccDMQvQ.s 			page 7


  54:../../../libDaisy/src/hid/audio.h ****     {
  55:../../../libDaisy/src/hid/audio.h ****         OK,
  56:../../../libDaisy/src/hid/audio.h ****         ERR,
  57:../../../libDaisy/src/hid/audio.h ****     };
  58:../../../libDaisy/src/hid/audio.h **** 
  59:../../../libDaisy/src/hid/audio.h ****     /** Non-Interleaving input buffer
  60:../../../libDaisy/src/hid/audio.h ****      * Buffer arranged by float[chn][sample] 
  61:../../../libDaisy/src/hid/audio.h ****      * const so that the user can't modify the input
  62:../../../libDaisy/src/hid/audio.h ****      */
  63:../../../libDaisy/src/hid/audio.h ****     typedef const float* const* InputBuffer;
  64:../../../libDaisy/src/hid/audio.h **** 
  65:../../../libDaisy/src/hid/audio.h ****     /** Non-Interleaving output buffer
  66:../../../libDaisy/src/hid/audio.h ****      * Arranged by float[chn][sample] 
  67:../../../libDaisy/src/hid/audio.h ****      */
  68:../../../libDaisy/src/hid/audio.h ****     typedef float** OutputBuffer;
  69:../../../libDaisy/src/hid/audio.h **** 
  70:../../../libDaisy/src/hid/audio.h ****     /** Type for a Non-Interleaving audio callback 
  71:../../../libDaisy/src/hid/audio.h ****      * Non-Interleaving audio callbacks in daisy will be of this type
  72:../../../libDaisy/src/hid/audio.h ****      */
  73:../../../libDaisy/src/hid/audio.h ****     typedef void (*AudioCallback)(InputBuffer  in,
  74:../../../libDaisy/src/hid/audio.h ****                                   OutputBuffer out,
  75:../../../libDaisy/src/hid/audio.h ****                                   size_t       size);
  76:../../../libDaisy/src/hid/audio.h **** 
  77:../../../libDaisy/src/hid/audio.h ****     /** Interleaving Input buffer
  78:../../../libDaisy/src/hid/audio.h ****      ** audio is prepared as { L0, R0, L1, R1, . . . LN, RN }]
  79:../../../libDaisy/src/hid/audio.h ****      ** this is const, as the user shouldn't modify it
  80:../../../libDaisy/src/hid/audio.h ****     */
  81:../../../libDaisy/src/hid/audio.h ****     typedef const float* InterleavingInputBuffer;
  82:../../../libDaisy/src/hid/audio.h **** 
  83:../../../libDaisy/src/hid/audio.h ****     /** Interleaving Output buffer 
  84:../../../libDaisy/src/hid/audio.h ****      ** audio is prepared as { L0, R0, L1, R1, . . . LN, RN }
  85:../../../libDaisy/src/hid/audio.h ****     */
  86:../../../libDaisy/src/hid/audio.h ****     typedef float* InterleavingOutputBuffer;
  87:../../../libDaisy/src/hid/audio.h **** 
  88:../../../libDaisy/src/hid/audio.h ****     /** Interleaving Audio Callback 
  89:../../../libDaisy/src/hid/audio.h ****      * Interleaving audio callbacks in daisy must be of this type
  90:../../../libDaisy/src/hid/audio.h ****      */
  91:../../../libDaisy/src/hid/audio.h ****     typedef void (*InterleavingAudioCallback)(InterleavingInputBuffer  in,
  92:../../../libDaisy/src/hid/audio.h ****                                               InterleavingOutputBuffer out,
  93:../../../libDaisy/src/hid/audio.h ****                                               size_t                   size);
  94:../../../libDaisy/src/hid/audio.h **** 
  95:../../../libDaisy/src/hid/audio.h ****     AudioHandle() : pimpl_(nullptr) {}
  96:../../../libDaisy/src/hid/audio.h ****     ~AudioHandle() {}
  56              		.loc 5 96 5 is_stmt 1 view .LVU7
  57              		.loc 5 96 5 is_stmt 0 view .LVU8
  58              	.LBE215:
  59              		.loc 1 22 19 view .LVU9
  60 0000 7047     		bx	lr
  61              		.cfi_endproc
  62              	.LFE2529:
  64              		.weak	_ZN5daisy9DaisySeedD1Ev
  65              		.thumb_set _ZN5daisy9DaisySeedD1Ev,_ZN5daisy9DaisySeedD2Ev
  66 0002 00BF     		.section	.text._ZN7daisysp10OscillatorD2Ev,"axG",%progbits,_ZN7daisysp10OscillatorD5Ev,comdat
  67              		.align	1
  68              		.p2align 2,,3
  69              		.weak	_ZN7daisysp10OscillatorD2Ev
  70              		.syntax unified
ARM GAS  /var/folders/yw/6_x9gyn52jjg4jtn_wsryx_80000gp/T//cccDMQvQ.s 			page 8


  71              		.thumb
  72              		.thumb_func
  74              	_ZN7daisysp10OscillatorD2Ev:
  75              	.LVL1:
  76              	.LFB4219:
  77              		.file 6 "../../../DaisySP/Source/Synthesis/oscillator.h"
   1:../../../DaisySP/Source/Synthesis/oscillator.h **** #pragma once
   2:../../../DaisySP/Source/Synthesis/oscillator.h **** #ifndef DSY_OSCILLATOR_H
   3:../../../DaisySP/Source/Synthesis/oscillator.h **** #define DSY_OSCILLATOR_H
   4:../../../DaisySP/Source/Synthesis/oscillator.h **** #include <stdint.h>
   5:../../../DaisySP/Source/Synthesis/oscillator.h **** #include "Utility/dsp.h"
   6:../../../DaisySP/Source/Synthesis/oscillator.h **** #ifdef __cplusplus
   7:../../../DaisySP/Source/Synthesis/oscillator.h **** 
   8:../../../DaisySP/Source/Synthesis/oscillator.h **** namespace daisysp
   9:../../../DaisySP/Source/Synthesis/oscillator.h **** {
  10:../../../DaisySP/Source/Synthesis/oscillator.h **** /** Synthesis of several waveforms, including polyBLEP bandlimited waveforms.
  11:../../../DaisySP/Source/Synthesis/oscillator.h **** */
  12:../../../DaisySP/Source/Synthesis/oscillator.h **** class Oscillator
  13:../../../DaisySP/Source/Synthesis/oscillator.h **** {
  14:../../../DaisySP/Source/Synthesis/oscillator.h ****   public:
  15:../../../DaisySP/Source/Synthesis/oscillator.h ****     Oscillator() {}
  16:../../../DaisySP/Source/Synthesis/oscillator.h ****     ~Oscillator() {}
  78              		.loc 6 16 5 is_stmt 1 view -0
  79              		.cfi_startproc
  80              		@ args = 0, pretend = 0, frame = 0
  81              		@ frame_needed = 0, uses_anonymous_args = 0
  82              		@ link register save eliminated.
  83              		.loc 6 16 20 is_stmt 0 view .LVU11
  84 0000 7047     		bx	lr
  85              		.cfi_endproc
  86              	.LFE4219:
  88              		.weak	_ZN7daisysp10OscillatorD1Ev
  89              		.thumb_set _ZN7daisysp10OscillatorD1Ev,_ZN7daisysp10OscillatorD2Ev
  90 0002 00BF     		.section	.text._ZN5daisy6Mpr121INS_18Mpr121I2CTransportEED2Ev,"axG",%progbits,_ZN5daisy6Mpr121INS_
  91              		.align	1
  92              		.p2align 2,,3
  93              		.weak	_ZN5daisy6Mpr121INS_18Mpr121I2CTransportEED2Ev
  94              		.syntax unified
  95              		.thumb
  96              		.thumb_func
  98              	_ZN5daisy6Mpr121INS_18Mpr121I2CTransportEED2Ev:
  99              	.LVL2:
 100              	.LFB5365:
 101              		.file 7 "../../../libDaisy/src/dev/mpr121.h"
   1:../../../libDaisy/src/dev/mpr121.h **** #pragma once
   2:../../../libDaisy/src/dev/mpr121.h **** #ifndef DSY_MPR121_H
   3:../../../libDaisy/src/dev/mpr121.h **** #define DSY_MPR121_H
   4:../../../libDaisy/src/dev/mpr121.h **** 
   5:../../../libDaisy/src/dev/mpr121.h **** // The default I2C address
   6:../../../libDaisy/src/dev/mpr121.h **** #define MPR121_I2CADDR_DEFAULT 0x5A        ///< default I2C address
   7:../../../libDaisy/src/dev/mpr121.h **** #define MPR121_TOUCH_THRESHOLD_DEFAULT 12  ///< default touch threshold value
   8:../../../libDaisy/src/dev/mpr121.h **** #define MPR121_RELEASE_THRESHOLD_DEFAULT 6 ///< default relese threshold value
   9:../../../libDaisy/src/dev/mpr121.h **** 
  10:../../../libDaisy/src/dev/mpr121.h **** namespace daisy
  11:../../../libDaisy/src/dev/mpr121.h **** {
  12:../../../libDaisy/src/dev/mpr121.h **** /** @addtogroup external 
  13:../../../libDaisy/src/dev/mpr121.h ****     @{ 
ARM GAS  /var/folders/yw/6_x9gyn52jjg4jtn_wsryx_80000gp/T//cccDMQvQ.s 			page 9


  14:../../../libDaisy/src/dev/mpr121.h **** */
  15:../../../libDaisy/src/dev/mpr121.h **** 
  16:../../../libDaisy/src/dev/mpr121.h **** /** I2C Transport for MPR121 */
  17:../../../libDaisy/src/dev/mpr121.h **** class Mpr121I2CTransport
  18:../../../libDaisy/src/dev/mpr121.h **** {
  19:../../../libDaisy/src/dev/mpr121.h ****   public:
  20:../../../libDaisy/src/dev/mpr121.h ****     Mpr121I2CTransport() {}
  21:../../../libDaisy/src/dev/mpr121.h ****     ~Mpr121I2CTransport() {}
  22:../../../libDaisy/src/dev/mpr121.h **** 
  23:../../../libDaisy/src/dev/mpr121.h ****     struct Config
  24:../../../libDaisy/src/dev/mpr121.h ****     {
  25:../../../libDaisy/src/dev/mpr121.h ****         I2CHandle::Config::Peripheral periph;
  26:../../../libDaisy/src/dev/mpr121.h ****         I2CHandle::Config::Speed      speed;
  27:../../../libDaisy/src/dev/mpr121.h ****         Pin                           scl;
  28:../../../libDaisy/src/dev/mpr121.h ****         Pin                           sda;
  29:../../../libDaisy/src/dev/mpr121.h **** 
  30:../../../libDaisy/src/dev/mpr121.h ****         I2CHandle::Config::Mode mode;
  31:../../../libDaisy/src/dev/mpr121.h **** 
  32:../../../libDaisy/src/dev/mpr121.h ****         uint8_t dev_addr;
  33:../../../libDaisy/src/dev/mpr121.h **** 
  34:../../../libDaisy/src/dev/mpr121.h ****         Config()
  35:../../../libDaisy/src/dev/mpr121.h ****         {
  36:../../../libDaisy/src/dev/mpr121.h ****             periph = I2CHandle::Config::Peripheral::I2C_1;
  37:../../../libDaisy/src/dev/mpr121.h ****             speed  = I2CHandle::Config::Speed::I2C_400KHZ;
  38:../../../libDaisy/src/dev/mpr121.h **** 
  39:../../../libDaisy/src/dev/mpr121.h ****             scl = Pin(PORTB, 8);
  40:../../../libDaisy/src/dev/mpr121.h ****             sda = Pin(PORTB, 9);
  41:../../../libDaisy/src/dev/mpr121.h **** 
  42:../../../libDaisy/src/dev/mpr121.h ****             dev_addr = MPR121_I2CADDR_DEFAULT;
  43:../../../libDaisy/src/dev/mpr121.h ****         }
  44:../../../libDaisy/src/dev/mpr121.h ****     };
  45:../../../libDaisy/src/dev/mpr121.h **** 
  46:../../../libDaisy/src/dev/mpr121.h ****     /** \return Did the transaction error? i.e. Return true if error, false if ok */
  47:../../../libDaisy/src/dev/mpr121.h ****     inline bool Init(Config config)
  48:../../../libDaisy/src/dev/mpr121.h ****     {
  49:../../../libDaisy/src/dev/mpr121.h ****         config_ = config;
  50:../../../libDaisy/src/dev/mpr121.h **** 
  51:../../../libDaisy/src/dev/mpr121.h ****         I2CHandle::Config i2c_conf;
  52:../../../libDaisy/src/dev/mpr121.h ****         i2c_conf.mode   = I2CHandle::Config::Mode::I2C_MASTER;
  53:../../../libDaisy/src/dev/mpr121.h ****         i2c_conf.periph = config.periph;
  54:../../../libDaisy/src/dev/mpr121.h ****         i2c_conf.speed  = config.speed;
  55:../../../libDaisy/src/dev/mpr121.h **** 
  56:../../../libDaisy/src/dev/mpr121.h ****         i2c_conf.pin_config.scl = config.scl;
  57:../../../libDaisy/src/dev/mpr121.h ****         i2c_conf.pin_config.sda = config.sda;
  58:../../../libDaisy/src/dev/mpr121.h **** 
  59:../../../libDaisy/src/dev/mpr121.h ****         return I2CHandle::Result::OK != i2c_.Init(i2c_conf);
  60:../../../libDaisy/src/dev/mpr121.h ****     }
  61:../../../libDaisy/src/dev/mpr121.h **** 
  62:../../../libDaisy/src/dev/mpr121.h ****     /** \return Did the transaction error? i.e. Return true if error, false if ok */
  63:../../../libDaisy/src/dev/mpr121.h ****     bool Write(uint8_t *data, uint16_t size)
  64:../../../libDaisy/src/dev/mpr121.h ****     {
  65:../../../libDaisy/src/dev/mpr121.h ****         return I2CHandle::Result::OK
  66:../../../libDaisy/src/dev/mpr121.h ****                != i2c_.TransmitBlocking(config_.dev_addr, data, size, 10);
  67:../../../libDaisy/src/dev/mpr121.h ****     }
  68:../../../libDaisy/src/dev/mpr121.h **** 
  69:../../../libDaisy/src/dev/mpr121.h ****     /** \return Did the transaction error? i.e. Return true if error, false if ok */
  70:../../../libDaisy/src/dev/mpr121.h ****     bool Read(uint8_t *data, uint16_t size)
ARM GAS  /var/folders/yw/6_x9gyn52jjg4jtn_wsryx_80000gp/T//cccDMQvQ.s 			page 10


  71:../../../libDaisy/src/dev/mpr121.h ****     {
  72:../../../libDaisy/src/dev/mpr121.h ****         return I2CHandle::Result::OK
  73:../../../libDaisy/src/dev/mpr121.h ****                != i2c_.ReceiveBlocking(config_.dev_addr, data, size, 10);
  74:../../../libDaisy/src/dev/mpr121.h ****     }
  75:../../../libDaisy/src/dev/mpr121.h **** 
  76:../../../libDaisy/src/dev/mpr121.h ****   private:
  77:../../../libDaisy/src/dev/mpr121.h ****     I2CHandle i2c_;
  78:../../../libDaisy/src/dev/mpr121.h ****     Config    config_;
  79:../../../libDaisy/src/dev/mpr121.h **** };
  80:../../../libDaisy/src/dev/mpr121.h **** 
  81:../../../libDaisy/src/dev/mpr121.h **** 
  82:../../../libDaisy/src/dev/mpr121.h **** /** @brief Device support for MPR121 12x Capacitive Touch Sensor
  83:../../../libDaisy/src/dev/mpr121.h ****     @author beserge
  84:../../../libDaisy/src/dev/mpr121.h ****     @date December 2021
  85:../../../libDaisy/src/dev/mpr121.h **** */
  86:../../../libDaisy/src/dev/mpr121.h **** template <typename Transport>
  87:../../../libDaisy/src/dev/mpr121.h **** class Mpr121
  88:../../../libDaisy/src/dev/mpr121.h **** {
  89:../../../libDaisy/src/dev/mpr121.h ****   public:
  90:../../../libDaisy/src/dev/mpr121.h ****     Mpr121() {}
  91:../../../libDaisy/src/dev/mpr121.h ****     ~Mpr121() {}
 102              		.loc 7 91 5 is_stmt 1 view -0
 103              		.cfi_startproc
 104              		@ args = 0, pretend = 0, frame = 0
 105              		@ frame_needed = 0, uses_anonymous_args = 0
 106              		@ link register save eliminated.
 107              	.LBB216:
 108              	.LBI216:
  21:../../../libDaisy/src/dev/mpr121.h **** 
 109              		.loc 7 21 5 view .LVU13
  21:../../../libDaisy/src/dev/mpr121.h **** 
 110              		.loc 7 21 5 is_stmt 0 view .LVU14
 111              	.LBE216:
 112              		.loc 7 91 16 view .LVU15
 113 0000 7047     		bx	lr
 114              		.cfi_endproc
 115              	.LFE5365:
 117              		.weak	_ZN5daisy6Mpr121INS_18Mpr121I2CTransportEED1Ev
 118              		.thumb_set _ZN5daisy6Mpr121INS_18Mpr121I2CTransportEED1Ev,_ZN5daisy6Mpr121INS_18Mpr121I2CTransport
 119 0002 00BF     		.section	.text._ZL13AudioCallbackPKfPfj,"ax",%progbits
 120              		.align	1
 121              		.p2align 2,,3
 122              		.syntax unified
 123              		.thumb
 124              		.thumb_func
 126              	_ZL13AudioCallbackPKfPfj:
 127              	.LVL3:
 128              	.LFB4789:
 129              		.file 8 "mpr121Test.cpp"
   1:mpr121Test.cpp **** #include "daisy_seed.h"
   2:mpr121Test.cpp **** #include "daisysp.h"
   3:mpr121Test.cpp **** #include "mpr121.h"
   4:mpr121Test.cpp **** 
   5:mpr121Test.cpp **** using namespace daisy;
   6:mpr121Test.cpp **** using namespace daisysp;
   7:mpr121Test.cpp **** 
   8:mpr121Test.cpp **** uint16_t currTouched;
ARM GAS  /var/folders/yw/6_x9gyn52jjg4jtn_wsryx_80000gp/T//cccDMQvQ.s 			page 11


   9:mpr121Test.cpp **** uint16_t lastTouched;
  10:mpr121Test.cpp **** 
  11:mpr121Test.cpp **** // Define the frequencies for the two octaves surrounding middle C
  12:mpr121Test.cpp **** double scale[][12] = {
  13:mpr121Test.cpp ****     // Octave below middle C
  14:mpr121Test.cpp ****     {130.81, 138.59, 146.83, 155.56, 164.81, 174.61, 185.00, 196.00, 207.65, 220.00, 233.08, 246.94
  15:mpr121Test.cpp ****     // Middle C and the octave above
  16:mpr121Test.cpp ****     {261.63, 277.18, 293.66, 311.13, 329.63, 349.23, 369.99, 392.00, 415.30, 440.00, 466.16, 493.88
  17:mpr121Test.cpp ****     // Octave above middle C
  18:mpr121Test.cpp ****     {523.25, 554.37, 587.33, 622.25, 659.26, 698.46, 739.99, 783.99, 830.61, 880.00, 932.33, 987.77
  19:mpr121Test.cpp **** 
  20:mpr121Test.cpp **** DaisySeed hw;
  21:mpr121Test.cpp **** Mpr121I2C mpr121;
  22:mpr121Test.cpp **** Oscillator osc;
  23:mpr121Test.cpp **** 
  24:mpr121Test.cpp **** 
  25:mpr121Test.cpp **** static void AudioCallback(AudioHandle::InterleavingInputBuffer  in,
  26:mpr121Test.cpp ****                           AudioHandle::InterleavingOutputBuffer out,
  27:mpr121Test.cpp ****                           size_t                                size)
  28:mpr121Test.cpp **** {
 130              		.loc 8 28 1 is_stmt 1 view -0
 131              		.cfi_startproc
 132              		@ args = 0, pretend = 0, frame = 0
 133              		@ frame_needed = 0, uses_anonymous_args = 0
  29:mpr121Test.cpp ****     float sig;
 134              		.loc 8 29 5 view .LVU17
  30:mpr121Test.cpp ****     for(size_t i = 0; i < size; i += 2)
 135              		.loc 8 30 5 view .LVU18
 136              	.LBB217:
 137              		.loc 8 30 25 view .LVU19
 138 0000 8AB1     		cbz	r2, .L13
 139 0002 013A     		subs	r2, r2, #1
 140              	.LVL4:
 141              		.loc 8 30 25 is_stmt 0 view .LVU20
 142              	.LBE217:
  28:mpr121Test.cpp ****     float sig;
 143              		.loc 8 28 1 view .LVU21
 144 0004 70B5     		push	{r4, r5, r6, lr}
 145              		.cfi_def_cfa_offset 16
 146              		.cfi_offset 4, -16
 147              		.cfi_offset 5, -12
 148              		.cfi_offset 6, -8
 149              		.cfi_offset 14, -4
 150 0006 0C46     		mov	r4, r1
 151              	.LBB218:
 152              		.loc 8 30 25 view .LVU22
 153 0008 0025     		movs	r5, #0
 154 000a 5608     		lsrs	r6, r2, #1
 155              	.LVL5:
 156              	.L7:
  31:mpr121Test.cpp ****     {
  32:mpr121Test.cpp ****         sig = osc.Process();
 157              		.loc 8 32 9 is_stmt 1 discriminator 2 view .LVU23
 158              		.loc 8 32 26 is_stmt 0 discriminator 2 view .LVU24
 159 000c 0648     		ldr	r0, .L16
  30:mpr121Test.cpp ****     {
 160              		.loc 8 30 25 discriminator 2 view .LVU25
ARM GAS  /var/folders/yw/6_x9gyn52jjg4jtn_wsryx_80000gp/T//cccDMQvQ.s 			page 12


 161 000e 0834     		adds	r4, r4, #8
 162              		.loc 8 32 26 discriminator 2 view .LVU26
 163 0010 FFF7FEFF 		bl	_ZN7daisysp10Oscillator7ProcessEv
 164              	.LVL6:
  33:mpr121Test.cpp **** 
  34:mpr121Test.cpp ****         // left out
  35:mpr121Test.cpp ****         out[i] = sig;
 165              		.loc 8 35 9 is_stmt 1 discriminator 2 view .LVU27
  30:mpr121Test.cpp ****     {
 166              		.loc 8 30 25 is_stmt 0 discriminator 2 view .LVU28
 167 0014 AE42     		cmp	r6, r5
 168              		.loc 8 35 16 discriminator 2 view .LVU29
 169 0016 04ED020A 		vstr.32	s0, [r4, #-8]
  36:mpr121Test.cpp **** 
  37:mpr121Test.cpp ****         // right out
  38:mpr121Test.cpp ****         out[i + 1] = sig;
 170              		.loc 8 38 9 is_stmt 1 discriminator 2 view .LVU30
  30:mpr121Test.cpp ****     {
 171              		.loc 8 30 25 is_stmt 0 discriminator 2 view .LVU31
 172 001a 05F10105 		add	r5, r5, #1
 173              	.LVL7:
 174              		.loc 8 38 20 discriminator 2 view .LVU32
 175 001e 04ED010A 		vstr.32	s0, [r4, #-4]
  30:mpr121Test.cpp ****     {
 176              		.loc 8 30 5 is_stmt 1 discriminator 2 view .LVU33
 177              	.LVL8:
  30:mpr121Test.cpp ****     {
 178              		.loc 8 30 25 discriminator 2 view .LVU34
 179 0022 F3D1     		bne	.L7
 180              	.LBE218:
  39:mpr121Test.cpp ****     }
  40:mpr121Test.cpp **** 
  41:mpr121Test.cpp **** }
 181              		.loc 8 41 1 is_stmt 0 view .LVU35
 182 0024 70BD     		pop	{r4, r5, r6, pc}
 183              	.LVL9:
 184              	.L13:
 185              		.cfi_def_cfa_offset 0
 186              		.cfi_restore 4
 187              		.cfi_restore 5
 188              		.cfi_restore 6
 189              		.cfi_restore 14
 190              		.loc 8 41 1 view .LVU36
 191 0026 7047     		bx	lr
 192              	.L17:
 193              		.align	2
 194              	.L16:
 195 0028 00000000 		.word	.LANCHOR0
 196              		.cfi_endproc
 197              	.LFE4789:
 199              		.section	.text._ZN5daisy6Mpr121INS_18Mpr121I2CTransportEE13WriteRegisterEhh,"axG",%progbits,_ZN5da
 200              		.align	1
 201              		.p2align 2,,3
 202              		.weak	_ZN5daisy6Mpr121INS_18Mpr121I2CTransportEE13WriteRegisterEhh
 203              		.syntax unified
 204              		.thumb
 205              		.thumb_func
ARM GAS  /var/folders/yw/6_x9gyn52jjg4jtn_wsryx_80000gp/T//cccDMQvQ.s 			page 13


 207              	_ZN5daisy6Mpr121INS_18Mpr121I2CTransportEE13WriteRegisterEhh:
 208              	.LVL10:
 209              	.LFB5222:
  92:../../../libDaisy/src/dev/mpr121.h **** 
  93:../../../libDaisy/src/dev/mpr121.h ****     struct Config
  94:../../../libDaisy/src/dev/mpr121.h ****     {
  95:../../../libDaisy/src/dev/mpr121.h ****         typename Transport::Config transport_config;
  96:../../../libDaisy/src/dev/mpr121.h ****         uint8_t                    touch_threshold;
  97:../../../libDaisy/src/dev/mpr121.h ****         uint8_t                    release_threshold;
  98:../../../libDaisy/src/dev/mpr121.h **** 
  99:../../../libDaisy/src/dev/mpr121.h ****         Config()
 100:../../../libDaisy/src/dev/mpr121.h ****         {
 101:../../../libDaisy/src/dev/mpr121.h ****             touch_threshold   = MPR121_TOUCH_THRESHOLD_DEFAULT;
 102:../../../libDaisy/src/dev/mpr121.h ****             release_threshold = MPR121_RELEASE_THRESHOLD_DEFAULT;
 103:../../../libDaisy/src/dev/mpr121.h ****         }
 104:../../../libDaisy/src/dev/mpr121.h ****     };
 105:../../../libDaisy/src/dev/mpr121.h **** 
 106:../../../libDaisy/src/dev/mpr121.h ****     enum Result
 107:../../../libDaisy/src/dev/mpr121.h ****     {
 108:../../../libDaisy/src/dev/mpr121.h ****         OK = 0,
 109:../../../libDaisy/src/dev/mpr121.h ****         ERR
 110:../../../libDaisy/src/dev/mpr121.h ****     };
 111:../../../libDaisy/src/dev/mpr121.h **** 
 112:../../../libDaisy/src/dev/mpr121.h ****     /** Initialize the MPR121 device
 113:../../../libDaisy/src/dev/mpr121.h ****         \param config Configuration settings
 114:../../../libDaisy/src/dev/mpr121.h ****     */
 115:../../../libDaisy/src/dev/mpr121.h ****     Result Init(Config config)
 116:../../../libDaisy/src/dev/mpr121.h ****     {
 117:../../../libDaisy/src/dev/mpr121.h ****         config_ = config;
 118:../../../libDaisy/src/dev/mpr121.h **** 
 119:../../../libDaisy/src/dev/mpr121.h ****         SetTransportErr(transport_.Init(config_.transport_config));
 120:../../../libDaisy/src/dev/mpr121.h **** 
 121:../../../libDaisy/src/dev/mpr121.h ****         // soft reset
 122:../../../libDaisy/src/dev/mpr121.h ****         WriteRegister(MPR121_SOFTRESET, 0x63);
 123:../../../libDaisy/src/dev/mpr121.h ****         System::Delay(1);
 124:../../../libDaisy/src/dev/mpr121.h **** 
 125:../../../libDaisy/src/dev/mpr121.h ****         WriteRegister(MPR121_ECR, 0x0);
 126:../../../libDaisy/src/dev/mpr121.h **** 
 127:../../../libDaisy/src/dev/mpr121.h ****         // this doesn't work for some reason...
 128:../../../libDaisy/src/dev/mpr121.h ****         // uint8_t c = ReadRegister8(MPR121_CONFIG2);
 129:../../../libDaisy/src/dev/mpr121.h **** 
 130:../../../libDaisy/src/dev/mpr121.h ****         // if(c != 0x24)
 131:../../../libDaisy/src/dev/mpr121.h ****         //     return ERR;
 132:../../../libDaisy/src/dev/mpr121.h **** 
 133:../../../libDaisy/src/dev/mpr121.h ****         SetThresholds(config_.touch_threshold, config_.release_threshold);
 134:../../../libDaisy/src/dev/mpr121.h ****         WriteRegister(MPR121_MHDR, 0x01);
 135:../../../libDaisy/src/dev/mpr121.h ****         WriteRegister(MPR121_NHDR, 0x01);
 136:../../../libDaisy/src/dev/mpr121.h ****         WriteRegister(MPR121_NCLR, 0x0E);
 137:../../../libDaisy/src/dev/mpr121.h ****         WriteRegister(MPR121_FDLR, 0x00);
 138:../../../libDaisy/src/dev/mpr121.h **** 
 139:../../../libDaisy/src/dev/mpr121.h ****         WriteRegister(MPR121_MHDF, 0x01);
 140:../../../libDaisy/src/dev/mpr121.h ****         WriteRegister(MPR121_NHDF, 0x05);
 141:../../../libDaisy/src/dev/mpr121.h ****         WriteRegister(MPR121_NCLF, 0x01);
 142:../../../libDaisy/src/dev/mpr121.h ****         WriteRegister(MPR121_FDLF, 0x00);
 143:../../../libDaisy/src/dev/mpr121.h **** 
 144:../../../libDaisy/src/dev/mpr121.h ****         WriteRegister(MPR121_NHDT, 0x00);
 145:../../../libDaisy/src/dev/mpr121.h ****         WriteRegister(MPR121_NCLT, 0x00);
ARM GAS  /var/folders/yw/6_x9gyn52jjg4jtn_wsryx_80000gp/T//cccDMQvQ.s 			page 14


 146:../../../libDaisy/src/dev/mpr121.h ****         WriteRegister(MPR121_FDLT, 0x00);
 147:../../../libDaisy/src/dev/mpr121.h **** 
 148:../../../libDaisy/src/dev/mpr121.h ****         WriteRegister(MPR121_DEBOUNCE, 0);
 149:../../../libDaisy/src/dev/mpr121.h ****         WriteRegister(MPR121_CONFIG1, 0x10); // default, 16uA charge current
 150:../../../libDaisy/src/dev/mpr121.h ****         WriteRegister(MPR121_CONFIG2, 0x20); // 0.5uS encoding, 1ms period
 151:../../../libDaisy/src/dev/mpr121.h **** 
 152:../../../libDaisy/src/dev/mpr121.h ****         // autoconfig
 153:../../../libDaisy/src/dev/mpr121.h ****         // WriteRegister(MPR121_AUTOCONFIG0, 0x0B);
 154:../../../libDaisy/src/dev/mpr121.h **** 
 155:../../../libDaisy/src/dev/mpr121.h ****         // correct values for Vdd = 3.3V
 156:../../../libDaisy/src/dev/mpr121.h ****         // WriteRegister(MPR121_UPLIMIT, 200);     // ((Vdd - 0.7)/Vdd) * 256
 157:../../../libDaisy/src/dev/mpr121.h ****         // WriteRegister(MPR121_TARGETLIMIT, 180); // UPLIMIT * 0.9
 158:../../../libDaisy/src/dev/mpr121.h ****         // WriteRegister(MPR121_LOWLIMIT, 130);    // UPLIMIT * 0.65
 159:../../../libDaisy/src/dev/mpr121.h ****         // autoconfig
 160:../../../libDaisy/src/dev/mpr121.h **** 
 161:../../../libDaisy/src/dev/mpr121.h ****         // enable X electrodes and start MPR121
 162:../../../libDaisy/src/dev/mpr121.h ****         uint8_t ECR_SETTING
 163:../../../libDaisy/src/dev/mpr121.h ****             = 0x80
 164:../../../libDaisy/src/dev/mpr121.h ****               + 12; // 5 bits for baseline tracking & proximity disabled + X
 165:../../../libDaisy/src/dev/mpr121.h ****                     // amount of electrodes running (12)
 166:../../../libDaisy/src/dev/mpr121.h ****         WriteRegister(MPR121_ECR,
 167:../../../libDaisy/src/dev/mpr121.h ****                       ECR_SETTING); // start with above ECR setting
 168:../../../libDaisy/src/dev/mpr121.h **** 
 169:../../../libDaisy/src/dev/mpr121.h ****         return GetTransportErr();
 170:../../../libDaisy/src/dev/mpr121.h ****     }
 171:../../../libDaisy/src/dev/mpr121.h **** 
 172:../../../libDaisy/src/dev/mpr121.h ****     /** Set the touch and release thresholds for all 13 channels on the
 173:../../../libDaisy/src/dev/mpr121.h ****         device to the passed values.
 174:../../../libDaisy/src/dev/mpr121.h ****         \param      touch The touch threshold value from 0 to 255.
 175:../../../libDaisy/src/dev/mpr121.h ****         \param      release The release threshold from 0 to 255.
 176:../../../libDaisy/src/dev/mpr121.h ****     */
 177:../../../libDaisy/src/dev/mpr121.h ****     void SetThresholds(uint8_t touch, uint8_t release)
 178:../../../libDaisy/src/dev/mpr121.h ****     {
 179:../../../libDaisy/src/dev/mpr121.h ****         // set all thresholds (the same)
 180:../../../libDaisy/src/dev/mpr121.h ****         for(uint8_t i = 0; i < 12; i++)
 181:../../../libDaisy/src/dev/mpr121.h ****         {
 182:../../../libDaisy/src/dev/mpr121.h ****             WriteRegister(MPR121_TOUCHTH_0 + 2 * i, touch);
 183:../../../libDaisy/src/dev/mpr121.h ****             WriteRegister(MPR121_RELEASETH_0 + 2 * i, release);
 184:../../../libDaisy/src/dev/mpr121.h ****         }
 185:../../../libDaisy/src/dev/mpr121.h ****     }
 186:../../../libDaisy/src/dev/mpr121.h **** 
 187:../../../libDaisy/src/dev/mpr121.h **** 
 188:../../../libDaisy/src/dev/mpr121.h ****     /** Read the filtered data from channel t. The ADC raw data outputs
 189:../../../libDaisy/src/dev/mpr121.h ****         run through 3 levels of digital filtering to filter out the high
 190:../../../libDaisy/src/dev/mpr121.h ****         frequency and low frequency noise encountered. For detailed information on
 191:../../../libDaisy/src/dev/mpr121.h ****         this filtering see page 6 of the device datasheet.
 192:../../../libDaisy/src/dev/mpr121.h ****         \param      t the channel to read
 193:../../../libDaisy/src/dev/mpr121.h ****         \returns    the filtered reading as a 10 bit unsigned value
 194:../../../libDaisy/src/dev/mpr121.h ****     */
 195:../../../libDaisy/src/dev/mpr121.h ****     uint16_t FilteredData(uint8_t t)
 196:../../../libDaisy/src/dev/mpr121.h ****     {
 197:../../../libDaisy/src/dev/mpr121.h ****         if(t > 12)
 198:../../../libDaisy/src/dev/mpr121.h ****             return 0;
 199:../../../libDaisy/src/dev/mpr121.h ****         return ReadRegister16(MPR121_FILTDATA_0L + t * 2);
 200:../../../libDaisy/src/dev/mpr121.h ****     }
 201:../../../libDaisy/src/dev/mpr121.h **** 
 202:../../../libDaisy/src/dev/mpr121.h ****     /** Read the baseline value for the channel. The 3rd level filtered
ARM GAS  /var/folders/yw/6_x9gyn52jjg4jtn_wsryx_80000gp/T//cccDMQvQ.s 			page 15


 203:../../../libDaisy/src/dev/mpr121.h ****         result is internally 10bit but only high 8 bits are readable
 204:../../../libDaisy/src/dev/mpr121.h ****         from registers 0x1E~0x2A as the baseline value output for each channel.
 205:../../../libDaisy/src/dev/mpr121.h ****         \param      t the channel to read.
 206:../../../libDaisy/src/dev/mpr121.h ****         \returns    the baseline data that was read
 207:../../../libDaisy/src/dev/mpr121.h ****     */
 208:../../../libDaisy/src/dev/mpr121.h ****     uint16_t BaselineData(uint8_t t)
 209:../../../libDaisy/src/dev/mpr121.h ****     {
 210:../../../libDaisy/src/dev/mpr121.h ****         if(t > 12)
 211:../../../libDaisy/src/dev/mpr121.h ****             return 0;
 212:../../../libDaisy/src/dev/mpr121.h ****         uint16_t bl = ReadRegister8(MPR121_BASELINE_0 + t);
 213:../../../libDaisy/src/dev/mpr121.h ****         return (bl << 2);
 214:../../../libDaisy/src/dev/mpr121.h ****     }
 215:../../../libDaisy/src/dev/mpr121.h **** 
 216:../../../libDaisy/src/dev/mpr121.h ****     /** Read the touch status of all 13 channels as bit values in a 12 bit integer.
 217:../../../libDaisy/src/dev/mpr121.h ****         \returns    a 12 bit integer with each bit corresponding to the touch status
 218:../../../libDaisy/src/dev/mpr121.h ****         of a sensor. For example, if bit 0 is set then channel 0 of the
 219:../../../libDaisy/src/dev/mpr121.h ****         device is currently deemed to be touched.
 220:../../../libDaisy/src/dev/mpr121.h ****     */
 221:../../../libDaisy/src/dev/mpr121.h ****     uint16_t Touched()
 222:../../../libDaisy/src/dev/mpr121.h ****     {
 223:../../../libDaisy/src/dev/mpr121.h ****         uint16_t t = ReadRegister16(MPR121_TOUCHSTATUS_L);
 224:../../../libDaisy/src/dev/mpr121.h ****         return t & 0x0FFF;
 225:../../../libDaisy/src/dev/mpr121.h ****     }
 226:../../../libDaisy/src/dev/mpr121.h **** 
 227:../../../libDaisy/src/dev/mpr121.h ****     /** Read the contents of an 8 bit device register.
 228:../../../libDaisy/src/dev/mpr121.h ****         \param      reg the register address to read from
 229:../../../libDaisy/src/dev/mpr121.h ****         \returns    the 8 bit value that was read.
 230:../../../libDaisy/src/dev/mpr121.h ****     */
 231:../../../libDaisy/src/dev/mpr121.h ****     uint8_t ReadRegister8(uint8_t reg)
 232:../../../libDaisy/src/dev/mpr121.h ****     {
 233:../../../libDaisy/src/dev/mpr121.h ****         uint8_t buff;
 234:../../../libDaisy/src/dev/mpr121.h ****         SetTransportErr(transport_.Write(&reg, 1));
 235:../../../libDaisy/src/dev/mpr121.h ****         SetTransportErr(transport_.Read(&buff, 1));
 236:../../../libDaisy/src/dev/mpr121.h **** 
 237:../../../libDaisy/src/dev/mpr121.h ****         return buff;
 238:../../../libDaisy/src/dev/mpr121.h ****     }
 239:../../../libDaisy/src/dev/mpr121.h **** 
 240:../../../libDaisy/src/dev/mpr121.h ****     /** Read the contents of a 16 bit device register.
 241:../../../libDaisy/src/dev/mpr121.h ****         \param      reg the register address to read from
 242:../../../libDaisy/src/dev/mpr121.h ****         \returns    the 16 bit value that was read.
 243:../../../libDaisy/src/dev/mpr121.h ****     */
 244:../../../libDaisy/src/dev/mpr121.h ****     uint16_t ReadRegister16(uint8_t reg)
 245:../../../libDaisy/src/dev/mpr121.h ****     {
 246:../../../libDaisy/src/dev/mpr121.h ****         uint16_t buff;
 247:../../../libDaisy/src/dev/mpr121.h ****         SetTransportErr(transport_.Write(&reg, 1));
 248:../../../libDaisy/src/dev/mpr121.h ****         SetTransportErr(transport_.Read((uint8_t *)&buff, 2));
 249:../../../libDaisy/src/dev/mpr121.h **** 
 250:../../../libDaisy/src/dev/mpr121.h ****         return buff;
 251:../../../libDaisy/src/dev/mpr121.h ****     }
 252:../../../libDaisy/src/dev/mpr121.h **** 
 253:../../../libDaisy/src/dev/mpr121.h ****     /** Writes 8-bits to the specified destination register
 254:../../../libDaisy/src/dev/mpr121.h ****         \param  reg the register address to write to
 255:../../../libDaisy/src/dev/mpr121.h ****         \param  value the value to write
 256:../../../libDaisy/src/dev/mpr121.h ****     */
 257:../../../libDaisy/src/dev/mpr121.h ****     void WriteRegister(uint8_t reg, uint8_t value)
 210              		.loc 7 257 10 is_stmt 1 view -0
 211              		.cfi_startproc
ARM GAS  /var/folders/yw/6_x9gyn52jjg4jtn_wsryx_80000gp/T//cccDMQvQ.s 			page 16


 212              		@ args = 0, pretend = 0, frame = 8
 213              		@ frame_needed = 0, uses_anonymous_args = 0
 214              		.loc 7 257 10 is_stmt 0 view .LVU38
 215 0000 2DE9F043 		push	{r4, r5, r6, r7, r8, r9, lr}
 216              		.cfi_def_cfa_offset 28
 217              		.cfi_offset 4, -28
 218              		.cfi_offset 5, -24
 219              		.cfi_offset 6, -20
 220              		.cfi_offset 7, -16
 221              		.cfi_offset 8, -12
 222              		.cfi_offset 9, -8
 223              		.cfi_offset 14, -4
 258:../../../libDaisy/src/dev/mpr121.h ****     {
 259:../../../libDaisy/src/dev/mpr121.h ****         // MPR121 must be put in Stop Mode to write to most registers
 260:../../../libDaisy/src/dev/mpr121.h ****         bool stop_required = true;
 261:../../../libDaisy/src/dev/mpr121.h **** 
 262:../../../libDaisy/src/dev/mpr121.h ****         // first get the current set value of the MPR121_ECR register
 263:../../../libDaisy/src/dev/mpr121.h ****         uint8_t ecr_reg = MPR121_ECR;
 264:../../../libDaisy/src/dev/mpr121.h ****         uint8_t buff[2] = {ecr_reg, 0x00};
 224              		.loc 7 264 17 view .LVU39
 225 0004 0023     		movs	r3, #0
 257:../../../libDaisy/src/dev/mpr121.h ****     {
 226              		.loc 7 257 10 view .LVU40
 227 0006 85B0     		sub	sp, sp, #20
 228              		.cfi_def_cfa_offset 48
 229              	.LBB249:
 230              	.LBB250:
  66:../../../libDaisy/src/dev/mpr121.h ****     }
 231              		.loc 7 66 40 view .LVU41
 232 0008 00F11806 		add	r6, r0, #24
 233 000c 4FF00A08 		mov	r8, #10
 234              	.LBE250:
 235              	.LBE249:
 257:../../../libDaisy/src/dev/mpr121.h ****     {
 236              		.loc 7 257 10 view .LVU42
 237 0010 0446     		mov	r4, r0
 238              		.loc 7 264 17 view .LVU43
 239 0012 4FF05E09 		mov	r9, #94
 257:../../../libDaisy/src/dev/mpr121.h ****     {
 240              		.loc 7 257 10 view .LVU44
 241 0016 0D46     		mov	r5, r1
 242              		.loc 7 264 17 view .LVU45
 243 0018 8DF80D30 		strb	r3, [sp, #13]
 244              	.LBB254:
 245              	.LBB251:
  66:../../../libDaisy/src/dev/mpr121.h ****     }
 246              		.loc 7 66 40 view .LVU46
 247 001c CDF80080 		str	r8, [sp]
 248 0020 0123     		movs	r3, #1
 249 0022 90F82C10 		ldrb	r1, [r0, #44]	@ zero_extendqisi2
 250              	.LVL11:
  66:../../../libDaisy/src/dev/mpr121.h ****     }
 251              		.loc 7 66 40 view .LVU47
 252              	.LBE251:
 253              	.LBE254:
 257:../../../libDaisy/src/dev/mpr121.h ****     {
 254              		.loc 7 257 10 view .LVU48
ARM GAS  /var/folders/yw/6_x9gyn52jjg4jtn_wsryx_80000gp/T//cccDMQvQ.s 			page 17


 255 0026 1746     		mov	r7, r2
 256              	.LBB255:
 257              	.LBB252:
  66:../../../libDaisy/src/dev/mpr121.h ****     }
 258              		.loc 7 66 40 view .LVU49
 259 0028 3046     		mov	r0, r6
 260              	.LVL12:
  66:../../../libDaisy/src/dev/mpr121.h ****     }
 261              		.loc 7 66 40 view .LVU50
 262 002a 03AA     		add	r2, sp, #12
 263              	.LVL13:
  66:../../../libDaisy/src/dev/mpr121.h ****     }
 264              		.loc 7 66 40 view .LVU51
 265              	.LBE252:
 266              	.LBE255:
 267              		.loc 7 264 17 view .LVU52
 268 002c 8DF80C90 		strb	r9, [sp, #12]
 269              	.LVL14:
 270              	.LBB256:
 271              	.LBI249:
  63:../../../libDaisy/src/dev/mpr121.h ****     {
 272              		.loc 7 63 10 is_stmt 1 view .LVU53
 273              	.LBB253:
  65:../../../libDaisy/src/dev/mpr121.h ****                != i2c_.TransmitBlocking(config_.dev_addr, data, size, 10);
 274              		.loc 7 65 9 view .LVU54
  66:../../../libDaisy/src/dev/mpr121.h ****     }
 275              		.loc 7 66 40 is_stmt 0 view .LVU55
 276 0030 FFF7FEFF 		bl	_ZN5daisy9I2CHandle16TransmitBlockingEtPhtm
 277              	.LVL15:
  66:../../../libDaisy/src/dev/mpr121.h ****     }
 278              		.loc 7 66 40 view .LVU56
 279              	.LBE253:
 280              	.LBE256:
 281              	.LBB257:
 282              	.LBI257:
 265:../../../libDaisy/src/dev/mpr121.h **** 
 266:../../../libDaisy/src/dev/mpr121.h ****         SetTransportErr(transport_.Write(buff, 1));
 267:../../../libDaisy/src/dev/mpr121.h **** 
 268:../../../libDaisy/src/dev/mpr121.h ****         uint8_t ecr_backup;
 269:../../../libDaisy/src/dev/mpr121.h ****         SetTransportErr(transport_.Read(&ecr_backup, 1));
 270:../../../libDaisy/src/dev/mpr121.h ****         if((reg == MPR121_ECR) || ((0x73 <= reg) && (reg <= 0x7A)))
 271:../../../libDaisy/src/dev/mpr121.h ****         {
 272:../../../libDaisy/src/dev/mpr121.h ****             stop_required = false;
 273:../../../libDaisy/src/dev/mpr121.h ****         }
 274:../../../libDaisy/src/dev/mpr121.h **** 
 275:../../../libDaisy/src/dev/mpr121.h ****         if(stop_required)
 276:../../../libDaisy/src/dev/mpr121.h ****         {
 277:../../../libDaisy/src/dev/mpr121.h ****             // clear this register to set stop mode
 278:../../../libDaisy/src/dev/mpr121.h ****             SetTransportErr(transport_.Write(buff, 2));
 279:../../../libDaisy/src/dev/mpr121.h ****         }
 280:../../../libDaisy/src/dev/mpr121.h **** 
 281:../../../libDaisy/src/dev/mpr121.h ****         buff[0] = reg;
 282:../../../libDaisy/src/dev/mpr121.h ****         buff[1] = value;
 283:../../../libDaisy/src/dev/mpr121.h ****         SetTransportErr(transport_.Write(buff, 2));
 284:../../../libDaisy/src/dev/mpr121.h **** 
 285:../../../libDaisy/src/dev/mpr121.h ****         if(stop_required)
 286:../../../libDaisy/src/dev/mpr121.h ****         {
ARM GAS  /var/folders/yw/6_x9gyn52jjg4jtn_wsryx_80000gp/T//cccDMQvQ.s 			page 18


 287:../../../libDaisy/src/dev/mpr121.h ****             // write back the previous set ECR settings
 288:../../../libDaisy/src/dev/mpr121.h ****             buff[0] = ecr_reg;
 289:../../../libDaisy/src/dev/mpr121.h ****             buff[1] = ecr_backup;
 290:../../../libDaisy/src/dev/mpr121.h ****             SetTransportErr(transport_.Write(buff, 2));
 291:../../../libDaisy/src/dev/mpr121.h ****         }
 292:../../../libDaisy/src/dev/mpr121.h ****     }
 293:../../../libDaisy/src/dev/mpr121.h **** 
 294:../../../libDaisy/src/dev/mpr121.h ****     /** Device register map */
 295:../../../libDaisy/src/dev/mpr121.h ****     enum RegMap
 296:../../../libDaisy/src/dev/mpr121.h ****     {
 297:../../../libDaisy/src/dev/mpr121.h ****         MPR121_TOUCHSTATUS_L = 0x00,
 298:../../../libDaisy/src/dev/mpr121.h ****         MPR121_TOUCHSTATUS_H = 0x01,
 299:../../../libDaisy/src/dev/mpr121.h ****         MPR121_FILTDATA_0L   = 0x04,
 300:../../../libDaisy/src/dev/mpr121.h ****         MPR121_FILTDATA_0H   = 0x05,
 301:../../../libDaisy/src/dev/mpr121.h ****         MPR121_BASELINE_0    = 0x1E,
 302:../../../libDaisy/src/dev/mpr121.h ****         MPR121_MHDR          = 0x2B,
 303:../../../libDaisy/src/dev/mpr121.h ****         MPR121_NHDR          = 0x2C,
 304:../../../libDaisy/src/dev/mpr121.h ****         MPR121_NCLR          = 0x2D,
 305:../../../libDaisy/src/dev/mpr121.h ****         MPR121_FDLR          = 0x2E,
 306:../../../libDaisy/src/dev/mpr121.h ****         MPR121_MHDF          = 0x2F,
 307:../../../libDaisy/src/dev/mpr121.h ****         MPR121_NHDF          = 0x30,
 308:../../../libDaisy/src/dev/mpr121.h ****         MPR121_NCLF          = 0x31,
 309:../../../libDaisy/src/dev/mpr121.h ****         MPR121_FDLF          = 0x32,
 310:../../../libDaisy/src/dev/mpr121.h ****         MPR121_NHDT          = 0x33,
 311:../../../libDaisy/src/dev/mpr121.h ****         MPR121_NCLT          = 0x34,
 312:../../../libDaisy/src/dev/mpr121.h ****         MPR121_FDLT          = 0x35,
 313:../../../libDaisy/src/dev/mpr121.h **** 
 314:../../../libDaisy/src/dev/mpr121.h ****         MPR121_TOUCHTH_0    = 0x41,
 315:../../../libDaisy/src/dev/mpr121.h ****         MPR121_RELEASETH_0  = 0x42,
 316:../../../libDaisy/src/dev/mpr121.h ****         MPR121_DEBOUNCE     = 0x5B,
 317:../../../libDaisy/src/dev/mpr121.h ****         MPR121_CONFIG1      = 0x5C,
 318:../../../libDaisy/src/dev/mpr121.h ****         MPR121_CONFIG2      = 0x5D,
 319:../../../libDaisy/src/dev/mpr121.h ****         MPR121_CHARGECURR_0 = 0x5F,
 320:../../../libDaisy/src/dev/mpr121.h ****         MPR121_CHARGETIME_1 = 0x6C,
 321:../../../libDaisy/src/dev/mpr121.h ****         MPR121_ECR          = 0x5E,
 322:../../../libDaisy/src/dev/mpr121.h ****         MPR121_AUTOCONFIG0  = 0x7B,
 323:../../../libDaisy/src/dev/mpr121.h ****         MPR121_AUTOCONFIG1  = 0x7C,
 324:../../../libDaisy/src/dev/mpr121.h ****         MPR121_UPLIMIT      = 0x7D,
 325:../../../libDaisy/src/dev/mpr121.h ****         MPR121_LOWLIMIT     = 0x7E,
 326:../../../libDaisy/src/dev/mpr121.h ****         MPR121_TARGETLIMIT  = 0x7F,
 327:../../../libDaisy/src/dev/mpr121.h **** 
 328:../../../libDaisy/src/dev/mpr121.h ****         MPR121_GPIODIR    = 0x76,
 329:../../../libDaisy/src/dev/mpr121.h ****         MPR121_GPIOEN     = 0x77,
 330:../../../libDaisy/src/dev/mpr121.h ****         MPR121_GPIOSET    = 0x78,
 331:../../../libDaisy/src/dev/mpr121.h ****         MPR121_GPIOCLR    = 0x79,
 332:../../../libDaisy/src/dev/mpr121.h ****         MPR121_GPIOTOGGLE = 0x7A,
 333:../../../libDaisy/src/dev/mpr121.h **** 
 334:../../../libDaisy/src/dev/mpr121.h ****         MPR121_SOFTRESET = 0x80,
 335:../../../libDaisy/src/dev/mpr121.h ****     };
 336:../../../libDaisy/src/dev/mpr121.h **** 
 337:../../../libDaisy/src/dev/mpr121.h ****   private:
 338:../../../libDaisy/src/dev/mpr121.h ****     Config    config_;
 339:../../../libDaisy/src/dev/mpr121.h ****     Transport transport_;
 340:../../../libDaisy/src/dev/mpr121.h ****     bool      transport_error_;
 341:../../../libDaisy/src/dev/mpr121.h **** 
 342:../../../libDaisy/src/dev/mpr121.h ****     /** Set the global transport_error_ bool */
 343:../../../libDaisy/src/dev/mpr121.h ****     void SetTransportErr(bool err) { transport_error_ |= err; }
ARM GAS  /var/folders/yw/6_x9gyn52jjg4jtn_wsryx_80000gp/T//cccDMQvQ.s 			page 19


 283              		.loc 7 343 10 is_stmt 1 view .LVU57
 284              	.LBE257:
 285              	.LBB261:
 286              	.LBB262:
  73:../../../libDaisy/src/dev/mpr121.h ****     }
 287              		.loc 7 73 39 is_stmt 0 view .LVU58
 288 0034 CDF80080 		str	r8, [sp]
 289 0038 0DF10B02 		add	r2, sp, #11
 290              	.LBE262:
 291              	.LBE261:
 292              	.LBB266:
 293              	.LBB258:
 294              		.loc 7 343 55 view .LVU59
 295 003c 94F83030 		ldrb	r3, [r4, #48]	@ zero_extendqisi2
 296              	.LBE258:
 297              	.LBE266:
 298              	.LBB267:
 299              	.LBB263:
  73:../../../libDaisy/src/dev/mpr121.h ****     }
 300              		.loc 7 73 39 view .LVU60
 301 0040 94F82C10 		ldrb	r1, [r4, #44]	@ zero_extendqisi2
 302              	.LBE263:
 303              	.LBE267:
 304              	.LBB268:
 305              	.LBB259:
 306              		.loc 7 343 55 view .LVU61
 307 0044 0028     		cmp	r0, #0
 308 0046 18BF     		it	ne
 309 0048 43F00103 		orrne	r3, r3, #1
 310              	.LBE259:
 311              	.LBE268:
 312              	.LBB269:
 313              	.LBB264:
  73:../../../libDaisy/src/dev/mpr121.h ****     }
 314              		.loc 7 73 39 view .LVU62
 315 004c 3046     		mov	r0, r6
 316              	.LVL16:
  73:../../../libDaisy/src/dev/mpr121.h ****     }
 317              		.loc 7 73 39 view .LVU63
 318              	.LBE264:
 319              	.LBE269:
 320              	.LBB270:
 321              	.LBB260:
 322              		.loc 7 343 55 view .LVU64
 323 004e 84F83030 		strb	r3, [r4, #48]
 324              	.LVL17:
 325              		.loc 7 343 55 view .LVU65
 326              	.LBE260:
 327              	.LBE270:
 328              	.LBB271:
 329              	.LBI261:
  70:../../../libDaisy/src/dev/mpr121.h ****     {
 330              		.loc 7 70 10 is_stmt 1 view .LVU66
 331              	.LBB265:
  72:../../../libDaisy/src/dev/mpr121.h ****                != i2c_.ReceiveBlocking(config_.dev_addr, data, size, 10);
 332              		.loc 7 72 9 view .LVU67
  73:../../../libDaisy/src/dev/mpr121.h ****     }
ARM GAS  /var/folders/yw/6_x9gyn52jjg4jtn_wsryx_80000gp/T//cccDMQvQ.s 			page 20


 333              		.loc 7 73 39 is_stmt 0 view .LVU68
 334 0052 0123     		movs	r3, #1
 335 0054 FFF7FEFF 		bl	_ZN5daisy9I2CHandle15ReceiveBlockingEtPhtm
 336              	.LVL18:
  73:../../../libDaisy/src/dev/mpr121.h ****     }
 337              		.loc 7 73 39 view .LVU69
 338              	.LBE265:
 339              	.LBE271:
 340              	.LBB272:
 341              	.LBI272:
 342              		.loc 7 343 10 is_stmt 1 view .LVU70
 343              	.LBB273:
 344              		.loc 7 343 55 is_stmt 0 view .LVU71
 345 0058 94F83030 		ldrb	r3, [r4, #48]	@ zero_extendqisi2
 346 005c 0028     		cmp	r0, #0
 347 005e 18BF     		it	ne
 348 0060 43F00103 		orrne	r3, r3, #1
 349 0064 84F83030 		strb	r3, [r4, #48]
 350              	.LVL19:
 351              		.loc 7 343 55 view .LVU72
 352              	.LBE273:
 353              	.LBE272:
 270:../../../libDaisy/src/dev/mpr121.h ****         {
 354              		.loc 7 270 50 view .LVU73
 355 0068 A5F17303 		sub	r3, r5, #115
 270:../../../libDaisy/src/dev/mpr121.h ****         {
 356              		.loc 7 270 9 view .LVU74
 357 006c 072B     		cmp	r3, #7
 358 006e 01D9     		bls	.L19
 359 0070 4D45     		cmp	r5, r9
 360 0072 17D1     		bne	.L23
 361              	.L19:
 362              	.LVL20:
 363              	.LBB274:
 364              	.LBB275:
  66:../../../libDaisy/src/dev/mpr121.h ****     }
 365              		.loc 7 66 40 view .LVU75
 366 0074 0A23     		movs	r3, #10
 367 0076 03AA     		add	r2, sp, #12
 368 0078 3046     		mov	r0, r6
 369              	.LBE275:
 370              	.LBE274:
 281:../../../libDaisy/src/dev/mpr121.h ****         buff[1] = value;
 371              		.loc 7 281 17 view .LVU76
 372 007a 8DF80C50 		strb	r5, [sp, #12]
 373              	.LBB284:
 374              	.LBB276:
  66:../../../libDaisy/src/dev/mpr121.h ****     }
 375              		.loc 7 66 40 view .LVU77
 376 007e 0093     		str	r3, [sp]
 377 0080 0223     		movs	r3, #2
 378              	.LBE276:
 379              	.LBE284:
 282:../../../libDaisy/src/dev/mpr121.h ****         SetTransportErr(transport_.Write(buff, 2));
 380              		.loc 7 282 17 view .LVU78
 381 0082 8DF80D70 		strb	r7, [sp, #13]
 382              	.LVL21:
ARM GAS  /var/folders/yw/6_x9gyn52jjg4jtn_wsryx_80000gp/T//cccDMQvQ.s 			page 21


 383              	.LBB285:
 384              	.LBI274:
  63:../../../libDaisy/src/dev/mpr121.h ****     {
 385              		.loc 7 63 10 is_stmt 1 view .LVU79
 386              	.LBB277:
  65:../../../libDaisy/src/dev/mpr121.h ****                != i2c_.TransmitBlocking(config_.dev_addr, data, size, 10);
 387              		.loc 7 65 9 view .LVU80
 388              	.L22:
  66:../../../libDaisy/src/dev/mpr121.h ****     }
 389              		.loc 7 66 40 is_stmt 0 view .LVU81
 390 0086 94F82C10 		ldrb	r1, [r4, #44]	@ zero_extendqisi2
 391 008a FFF7FEFF 		bl	_ZN5daisy9I2CHandle16TransmitBlockingEtPhtm
 392              	.LVL22:
  66:../../../libDaisy/src/dev/mpr121.h ****     }
 393              		.loc 7 66 40 view .LVU82
 394              	.LBE277:
 395              	.LBE285:
 396              	.LBB286:
 397              	.LBI286:
 398              		.loc 7 343 10 is_stmt 1 view .LVU83
 399              	.LBB287:
 400              		.loc 7 343 55 is_stmt 0 view .LVU84
 401 008e 94F83030 		ldrb	r3, [r4, #48]	@ zero_extendqisi2
 402 0092 0028     		cmp	r0, #0
 403 0094 18BF     		it	ne
 404 0096 43F00103 		orrne	r3, r3, #1
 405 009a 84F83030 		strb	r3, [r4, #48]
 406              	.LVL23:
 407              		.loc 7 343 55 view .LVU85
 408              	.LBE287:
 409              	.LBE286:
 292:../../../libDaisy/src/dev/mpr121.h **** 
 410              		.loc 7 292 5 view .LVU86
 411 009e 05B0     		add	sp, sp, #20
 412              		.cfi_remember_state
 413              		.cfi_def_cfa_offset 28
 414              		@ sp needed
 415 00a0 BDE8F083 		pop	{r4, r5, r6, r7, r8, r9, pc}
 416              	.LVL24:
 417              	.L23:
 418              		.cfi_restore_state
 419              	.LBB291:
 420              	.LBI291:
  63:../../../libDaisy/src/dev/mpr121.h ****     {
 421              		.loc 7 63 10 is_stmt 1 view .LVU87
 422              	.LBB292:
  65:../../../libDaisy/src/dev/mpr121.h ****                != i2c_.TransmitBlocking(config_.dev_addr, data, size, 10);
 423              		.loc 7 65 9 view .LVU88
  66:../../../libDaisy/src/dev/mpr121.h ****     }
 424              		.loc 7 66 40 is_stmt 0 view .LVU89
 425 00a4 0223     		movs	r3, #2
 426 00a6 03AA     		add	r2, sp, #12
 427              	.LVL25:
  66:../../../libDaisy/src/dev/mpr121.h ****     }
 428              		.loc 7 66 40 view .LVU90
 429 00a8 CDF80080 		str	r8, [sp]
 430 00ac 3046     		mov	r0, r6
ARM GAS  /var/folders/yw/6_x9gyn52jjg4jtn_wsryx_80000gp/T//cccDMQvQ.s 			page 22


 431 00ae 94F82C10 		ldrb	r1, [r4, #44]	@ zero_extendqisi2
 432 00b2 FFF7FEFF 		bl	_ZN5daisy9I2CHandle16TransmitBlockingEtPhtm
 433              	.LVL26:
  66:../../../libDaisy/src/dev/mpr121.h ****     }
 434              		.loc 7 66 40 view .LVU91
 435              	.LBE292:
 436              	.LBE291:
 437              	.LBB293:
 438              	.LBI293:
 439              		.loc 7 343 10 is_stmt 1 view .LVU92
 440              	.LBE293:
 441              	.LBB297:
 442              	.LBB278:
  66:../../../libDaisy/src/dev/mpr121.h ****     }
 443              		.loc 7 66 40 is_stmt 0 view .LVU93
 444 00b6 CDF80080 		str	r8, [sp]
 445              	.LBE278:
 446              	.LBE297:
 447              	.LBB298:
 448              	.LBB294:
 449              		.loc 7 343 55 view .LVU94
 450 00ba 94F83030 		ldrb	r3, [r4, #48]	@ zero_extendqisi2
 451              	.LBE294:
 452              	.LBE298:
 453              	.LBB299:
 454              	.LBB279:
  66:../../../libDaisy/src/dev/mpr121.h ****     }
 455              		.loc 7 66 40 view .LVU95
 456 00be 03AA     		add	r2, sp, #12
 457 00c0 94F82C10 		ldrb	r1, [r4, #44]	@ zero_extendqisi2
 458              	.LBE279:
 459              	.LBE299:
 460              	.LBB300:
 461              	.LBB295:
 462              		.loc 7 343 55 view .LVU96
 463 00c4 0028     		cmp	r0, #0
 464 00c6 18BF     		it	ne
 465 00c8 43F00103 		orrne	r3, r3, #1
 466              	.LBE295:
 467              	.LBE300:
 468              	.LBB301:
 469              	.LBB280:
  66:../../../libDaisy/src/dev/mpr121.h ****     }
 470              		.loc 7 66 40 view .LVU97
 471 00cc 3046     		mov	r0, r6
 472              	.LVL27:
  66:../../../libDaisy/src/dev/mpr121.h ****     }
 473              		.loc 7 66 40 view .LVU98
 474              	.LBE280:
 475              	.LBE301:
 281:../../../libDaisy/src/dev/mpr121.h ****         buff[1] = value;
 476              		.loc 7 281 17 view .LVU99
 477 00ce 8DF80C50 		strb	r5, [sp, #12]
 478              	.LBB302:
 479              	.LBB296:
 480              		.loc 7 343 55 view .LVU100
 481 00d2 84F83030 		strb	r3, [r4, #48]
ARM GAS  /var/folders/yw/6_x9gyn52jjg4jtn_wsryx_80000gp/T//cccDMQvQ.s 			page 23


 482              	.LVL28:
 483              		.loc 7 343 55 view .LVU101
 484              	.LBE296:
 485              	.LBE302:
 486              	.LBB303:
  63:../../../libDaisy/src/dev/mpr121.h ****     {
 487              		.loc 7 63 10 is_stmt 1 view .LVU102
 488              	.LBB281:
  65:../../../libDaisy/src/dev/mpr121.h ****                != i2c_.TransmitBlocking(config_.dev_addr, data, size, 10);
 489              		.loc 7 65 9 view .LVU103
  66:../../../libDaisy/src/dev/mpr121.h ****     }
 490              		.loc 7 66 40 is_stmt 0 view .LVU104
 491 00d6 0223     		movs	r3, #2
 492              	.LBE281:
 493              	.LBE303:
 282:../../../libDaisy/src/dev/mpr121.h ****         SetTransportErr(transport_.Write(buff, 2));
 494              		.loc 7 282 17 view .LVU105
 495 00d8 8DF80D70 		strb	r7, [sp, #13]
 496              	.LBB304:
 497              	.LBB282:
  66:../../../libDaisy/src/dev/mpr121.h ****     }
 498              		.loc 7 66 40 view .LVU106
 499 00dc FFF7FEFF 		bl	_ZN5daisy9I2CHandle16TransmitBlockingEtPhtm
 500              	.LVL29:
  66:../../../libDaisy/src/dev/mpr121.h ****     }
 501              		.loc 7 66 40 view .LVU107
 502              	.LBE282:
 503              	.LBE304:
 504              	.LBB305:
 505              	.LBB306:
 506 00e0 CDF80080 		str	r8, [sp]
 507              	.LBE306:
 508              	.LBE305:
 509              	.LBB311:
 510              	.LBB283:
 511 00e4 0546     		mov	r5, r0
 512              	.LVL30:
  66:../../../libDaisy/src/dev/mpr121.h ****     }
 513              		.loc 7 66 40 view .LVU108
 514              	.LBE283:
 515              	.LBE311:
 516              	.LBB312:
 517              		.loc 7 343 10 is_stmt 1 view .LVU109
 518              	.LBB288:
 519              		.loc 7 343 55 is_stmt 0 view .LVU110
 520 00e6 94F83010 		ldrb	r1, [r4, #48]	@ zero_extendqisi2
 521              	.LBE288:
 522              	.LBE312:
 523              	.LBB313:
 524              	.LBB307:
  66:../../../libDaisy/src/dev/mpr121.h ****     }
 525              		.loc 7 66 40 view .LVU111
 526 00ea 03AA     		add	r2, sp, #12
 527              	.LBE307:
 528              	.LBE313:
 289:../../../libDaisy/src/dev/mpr121.h ****             SetTransportErr(transport_.Write(buff, 2));
 529              		.loc 7 289 21 view .LVU112
ARM GAS  /var/folders/yw/6_x9gyn52jjg4jtn_wsryx_80000gp/T//cccDMQvQ.s 			page 24


 530 00ec 9DF80B30 		ldrb	r3, [sp, #11]	@ zero_extendqisi2
 531              	.LBB314:
 532              	.LBB308:
  66:../../../libDaisy/src/dev/mpr121.h ****     }
 533              		.loc 7 66 40 view .LVU113
 534 00f0 3046     		mov	r0, r6
 535              	.LVL31:
  66:../../../libDaisy/src/dev/mpr121.h ****     }
 536              		.loc 7 66 40 view .LVU114
 537              	.LBE308:
 538              	.LBE314:
 539              	.LBB315:
 540              	.LBB289:
 541              		.loc 7 343 55 view .LVU115
 542 00f2 002D     		cmp	r5, #0
 543 00f4 18BF     		it	ne
 544 00f6 41F00101 		orrne	r1, r1, #1
 545              	.LBE289:
 546              	.LBE315:
 288:../../../libDaisy/src/dev/mpr121.h ****             buff[1] = ecr_backup;
 547              		.loc 7 288 21 view .LVU116
 548 00fa 8DF80C90 		strb	r9, [sp, #12]
 289:../../../libDaisy/src/dev/mpr121.h ****             SetTransportErr(transport_.Write(buff, 2));
 549              		.loc 7 289 21 view .LVU117
 550 00fe 8DF80D30 		strb	r3, [sp, #13]
 551              	.LBB316:
 552              	.LBB309:
  66:../../../libDaisy/src/dev/mpr121.h ****     }
 553              		.loc 7 66 40 view .LVU118
 554 0102 0223     		movs	r3, #2
 555              	.LBE309:
 556              	.LBE316:
 557              	.LBB317:
 558              	.LBB290:
 559              		.loc 7 343 55 view .LVU119
 560 0104 84F83010 		strb	r1, [r4, #48]
 561              	.LVL32:
 562              		.loc 7 343 55 view .LVU120
 563              	.LBE290:
 564              	.LBE317:
 565              	.LBB318:
 566              	.LBI305:
  63:../../../libDaisy/src/dev/mpr121.h ****     {
 567              		.loc 7 63 10 is_stmt 1 view .LVU121
 568              	.LBB310:
  65:../../../libDaisy/src/dev/mpr121.h ****                != i2c_.TransmitBlocking(config_.dev_addr, data, size, 10);
 569              		.loc 7 65 9 view .LVU122
 570 0108 BDE7     		b	.L22
 571              	.LBE310:
 572              	.LBE318:
 573              		.cfi_endproc
 574              	.LFE5222:
 576 010a 00BF     		.section	.rodata.main.str1.4,"aMS",%progbits,1
 577              		.align	2
 578              	.LC0:
 579 0000 4368616E 		.ascii	"Channel %d touched\000"
 579      6E656C20 
ARM GAS  /var/folders/yw/6_x9gyn52jjg4jtn_wsryx_80000gp/T//cccDMQvQ.s 			page 25


 579      25642074 
 579      6F756368 
 579      656400
 580 0013 00       		.align	2
 581              	.LC1:
 582 0014 4368616E 		.ascii	"Channel %d released\000"
 582      6E656C20 
 582      25642072 
 582      656C6561 
 582      73656400 
 583              		.section	.text.startup.main,"ax",%progbits
 584              		.align	1
 585              		.p2align 2,,3
 586              		.global	main
 587              		.syntax unified
 588              		.thumb
 589              		.thumb_func
 591              	main:
 592              	.LFB4790:
  42:mpr121Test.cpp **** 
  43:mpr121Test.cpp **** int main(void)
  44:mpr121Test.cpp **** {
 593              		.loc 8 44 1 view -0
 594              		.cfi_startproc
 595              		@ args = 0, pretend = 0, frame = 40
 596              		@ frame_needed = 0, uses_anonymous_args = 0
  45:mpr121Test.cpp **** 	hw.Init();
 597              		.loc 8 45 2 view .LVU124
  44:mpr121Test.cpp **** 	hw.Init();
 598              		.loc 8 44 1 is_stmt 0 view .LVU125
 599 0000 2DE9F04F 		push	{r4, r5, r6, r7, r8, r9, r10, fp, lr}
 600              		.cfi_def_cfa_offset 36
 601              		.cfi_offset 4, -36
 602              		.cfi_offset 5, -32
 603              		.cfi_offset 6, -28
 604              		.cfi_offset 7, -24
 605              		.cfi_offset 8, -20
 606              		.cfi_offset 9, -16
 607              		.cfi_offset 10, -12
 608              		.cfi_offset 11, -8
 609              		.cfi_offset 14, -4
 610              		.loc 8 45 9 view .LVU126
 611 0004 0021     		movs	r1, #0
 612 0006 CE48     		ldr	r0, .L57
 613              	.LBB434:
 614              	.LBB435:
  17:../../../DaisySP/Source/Synthesis/oscillator.h ****     /** Choices for output waveforms, POLYBLEP are appropriately labeled. Others are naive forms.
  18:../../../DaisySP/Source/Synthesis/oscillator.h ****     */
  19:../../../DaisySP/Source/Synthesis/oscillator.h ****     enum
  20:../../../DaisySP/Source/Synthesis/oscillator.h ****     {
  21:../../../DaisySP/Source/Synthesis/oscillator.h ****         WAVE_SIN,
  22:../../../DaisySP/Source/Synthesis/oscillator.h ****         WAVE_TRI,
  23:../../../DaisySP/Source/Synthesis/oscillator.h ****         WAVE_SAW,
  24:../../../DaisySP/Source/Synthesis/oscillator.h ****         WAVE_RAMP,
  25:../../../DaisySP/Source/Synthesis/oscillator.h ****         WAVE_SQUARE,
  26:../../../DaisySP/Source/Synthesis/oscillator.h ****         WAVE_POLYBLEP_TRI,
  27:../../../DaisySP/Source/Synthesis/oscillator.h ****         WAVE_POLYBLEP_SAW,
ARM GAS  /var/folders/yw/6_x9gyn52jjg4jtn_wsryx_80000gp/T//cccDMQvQ.s 			page 26


  28:../../../DaisySP/Source/Synthesis/oscillator.h ****         WAVE_POLYBLEP_SQUARE,
  29:../../../DaisySP/Source/Synthesis/oscillator.h ****         WAVE_LAST,
  30:../../../DaisySP/Source/Synthesis/oscillator.h ****     };
  31:../../../DaisySP/Source/Synthesis/oscillator.h **** 
  32:../../../DaisySP/Source/Synthesis/oscillator.h **** 
  33:../../../DaisySP/Source/Synthesis/oscillator.h ****     /** Initializes the Oscillator
  34:../../../DaisySP/Source/Synthesis/oscillator.h **** 
  35:../../../DaisySP/Source/Synthesis/oscillator.h ****         \param sample_rate - sample rate of the audio engine being run, and the frequency that the 
  36:../../../DaisySP/Source/Synthesis/oscillator.h **** 
  37:../../../DaisySP/Source/Synthesis/oscillator.h ****         Defaults:
  38:../../../DaisySP/Source/Synthesis/oscillator.h ****         - freq_ = 100 Hz
  39:../../../DaisySP/Source/Synthesis/oscillator.h ****         - amp_ = 0.5
  40:../../../DaisySP/Source/Synthesis/oscillator.h ****         - waveform_ = sine wave.
  41:../../../DaisySP/Source/Synthesis/oscillator.h ****     */
  42:../../../DaisySP/Source/Synthesis/oscillator.h ****     void Init(float sample_rate)
  43:../../../DaisySP/Source/Synthesis/oscillator.h ****     {
  44:../../../DaisySP/Source/Synthesis/oscillator.h ****         sr_        = sample_rate;
 615              		.loc 6 44 20 view .LVU127
 616 0008 DFF85083 		ldr	r8, .L57+28
  45:../../../DaisySP/Source/Synthesis/oscillator.h ****         sr_recip_  = 1.0f / sample_rate;
  46:../../../DaisySP/Source/Synthesis/oscillator.h ****         freq_      = 100.0f;
  47:../../../DaisySP/Source/Synthesis/oscillator.h ****         amp_       = 0.5f;
  48:../../../DaisySP/Source/Synthesis/oscillator.h ****         pw_        = 0.5f;
  49:../../../DaisySP/Source/Synthesis/oscillator.h ****         pw_rad_    = pw_ * TWOPI_F;
  50:../../../DaisySP/Source/Synthesis/oscillator.h ****         phase_     = 0.0f;
  51:../../../DaisySP/Source/Synthesis/oscillator.h ****         phase_inc_ = CalcPhaseInc(freq_);
  52:../../../DaisySP/Source/Synthesis/oscillator.h ****         waveform_  = WAVE_SIN;
 617              		.loc 6 52 20 view .LVU128
 618 000c 4FF00009 		mov	r9, #0
 619              	.LBE435:
 620              	.LBE434:
 621              	.LBB441:
 622              	.LBB442:
 117:../../../libDaisy/src/dev/mpr121.h **** 
 623              		.loc 7 117 9 view .LVU129
 624 0010 CC4D     		ldr	r5, .L57+4
 625 0012 4FF0010A 		mov	r10, #1
 626              	.LBB443:
 627              	.LBB444:
 628              	.LBB445:
 629              	.LBB446:
 630              		.file 9 "../../../libDaisy/src/per/i2c.h"
   1:../../../libDaisy/src/per/i2c.h **** #pragma once
   2:../../../libDaisy/src/per/i2c.h **** #include "daisy_core.h"
   3:../../../libDaisy/src/per/i2c.h **** 
   4:../../../libDaisy/src/per/i2c.h **** namespace daisy
   5:../../../libDaisy/src/per/i2c.h **** {
   6:../../../libDaisy/src/per/i2c.h **** /** A handle for interacting with an I2C peripheral. This is a dumb
   7:../../../libDaisy/src/per/i2c.h ****  *  gateway that internally points to one of the four I2C peripherals
   8:../../../libDaisy/src/per/i2c.h ****  *  after it was initialised. It can then be copied and passed around.
   9:../../../libDaisy/src/per/i2c.h ****  *  Use an I2CHandle like this:
  10:../../../libDaisy/src/per/i2c.h ****  *  
  11:../../../libDaisy/src/per/i2c.h ****  *      // setup the configuration
  12:../../../libDaisy/src/per/i2c.h ****  *      I2CHandle::Config i2c_conf;
  13:../../../libDaisy/src/per/i2c.h ****  *      i2c_conf.periph = I2CHandle::Config::Peripheral::I2C_1;
  14:../../../libDaisy/src/per/i2c.h ****  *      i2c_conf.speed  = I2CHandle::Config::Speed::I2C_400KHZ;
  15:../../../libDaisy/src/per/i2c.h ****  *      i2c_conf.mode   = I2CHandle::Config::Mode::Master;
ARM GAS  /var/folders/yw/6_x9gyn52jjg4jtn_wsryx_80000gp/T//cccDMQvQ.s 			page 27


  16:../../../libDaisy/src/per/i2c.h ****  *      i2c_conf.pin_config.scl  = {DSY_GPIOB, 8};
  17:../../../libDaisy/src/per/i2c.h ****  *      i2c_conf.pin_config.sda  = {DSY_GPIOB, 9};
  18:../../../libDaisy/src/per/i2c.h ****  *      // initialise the peripheral
  19:../../../libDaisy/src/per/i2c.h ****  *      I2CHandle i2c;
  20:../../../libDaisy/src/per/i2c.h ****  *      i2c.Init(i2c_conf);
  21:../../../libDaisy/src/per/i2c.h ****  *      // now i2c points to the corresponding peripheral and can be used.
  22:../../../libDaisy/src/per/i2c.h ****  *      i2c.TransmitBlocking( ... );
  23:../../../libDaisy/src/per/i2c.h ****  */
  24:../../../libDaisy/src/per/i2c.h **** class I2CHandle
  25:../../../libDaisy/src/per/i2c.h **** {
  26:../../../libDaisy/src/per/i2c.h ****   public:
  27:../../../libDaisy/src/per/i2c.h ****     /** Contains settings for initialising an I2C interface. */
  28:../../../libDaisy/src/per/i2c.h ****     struct Config
 631              		.loc 9 28 12 view .LVU130
 632 0016 4FF0100B 		mov	fp, #16
 633              	.LBE446:
 634              	.LBE445:
 635              	.LBE444:
 636              	.LBE443:
 133:../../../libDaisy/src/dev/mpr121.h ****         WriteRegister(MPR121_MHDR, 0x01);
 637              		.loc 7 133 22 view .LVU131
 638 001a 4126     		movs	r6, #65
 639              	.LBB458:
 640              	.LBB450:
  49:../../../libDaisy/src/dev/mpr121.h **** 
 641              		.loc 7 49 17 view .LVU132
 642 001c 05F11C04 		add	r4, r5, #28
 643              	.LBE450:
 644              	.LBE458:
 645              	.LBE442:
 646              	.LBE441:
  44:mpr121Test.cpp **** 	hw.Init();
 647              		.loc 8 44 1 view .LVU133
 648 0020 2DED028B 		vpush.64	{d8}
 649              		.cfi_def_cfa_offset 44
 650              		.cfi_offset 80, -44
 651              		.cfi_offset 81, -40
 652 0024 8DB0     		sub	sp, sp, #52
 653              		.cfi_def_cfa_offset 96
 654              	.LBB633:
 655              	.LBB436:
  45:../../../DaisySP/Source/Synthesis/oscillator.h ****         freq_      = 100.0f;
 656              		.loc 6 45 27 view .LVU134
 657 0026 B7EE008A 		vmov.f32	s16, #1.0e+0
 658              	.LBE436:
 659              	.LBE633:
 660              		.loc 8 45 9 view .LVU135
 661 002a FFF7FEFF 		bl	_ZN5daisy9DaisySeed4InitEb
 662              	.LVL33:
  46:mpr121Test.cpp ****     hw.StartLog();
 663              		.loc 8 46 5 is_stmt 1 view .LVU136
 664              	.LBB634:
 665              	.LBI634:
  23:../../../libDaisy/src/daisy_seed.h **** 
  24:../../../libDaisy/src/daisy_seed.h ****     /** This function used to provide a pre-initialization configuraiton 
  25:../../../libDaisy/src/daisy_seed.h ****      *  it has since been deprecated, and does nothing.
  26:../../../libDaisy/src/daisy_seed.h ****      */
ARM GAS  /var/folders/yw/6_x9gyn52jjg4jtn_wsryx_80000gp/T//cccDMQvQ.s 			page 28


  27:../../../libDaisy/src/daisy_seed.h ****     void Configure();
  28:../../../libDaisy/src/daisy_seed.h **** 
  29:../../../libDaisy/src/daisy_seed.h ****     /** 
  30:../../../libDaisy/src/daisy_seed.h ****     Initializes the Daisy Seed and the following peripherals:
  31:../../../libDaisy/src/daisy_seed.h ****     SDRAM, QSPI, 24-bit 48kHz Audio via AK4556, Internal USB,
  32:../../../libDaisy/src/daisy_seed.h ****     as well as the built-in LED and Testpoint.
  33:../../../libDaisy/src/daisy_seed.h **** 
  34:../../../libDaisy/src/daisy_seed.h ****     ADCs, DACs, and other special peripherals (such as I2C, SPI, etc.)
  35:../../../libDaisy/src/daisy_seed.h ****     can be initialized using their specific initializers within libdaisy
  36:../../../libDaisy/src/daisy_seed.h ****     for a specific application.
  37:../../../libDaisy/src/daisy_seed.h ****     */
  38:../../../libDaisy/src/daisy_seed.h ****     void Init(bool boost = false);
  39:../../../libDaisy/src/daisy_seed.h **** 
  40:../../../libDaisy/src/daisy_seed.h ****     /** 
  41:../../../libDaisy/src/daisy_seed.h ****     Deinitializes all peripherals automatically handled by `Init`.
  42:../../../libDaisy/src/daisy_seed.h ****     */
  43:../../../libDaisy/src/daisy_seed.h ****     void DeInit();
  44:../../../libDaisy/src/daisy_seed.h **** 
  45:../../../libDaisy/src/daisy_seed.h ****     /** 
  46:../../../libDaisy/src/daisy_seed.h ****     Wait some ms before going on.
  47:../../../libDaisy/src/daisy_seed.h ****     \param del Delay time in ms.
  48:../../../libDaisy/src/daisy_seed.h ****     */
  49:../../../libDaisy/src/daisy_seed.h ****     void DelayMs(size_t del);
  50:../../../libDaisy/src/daisy_seed.h **** 
  51:../../../libDaisy/src/daisy_seed.h ****     /** 
  52:../../../libDaisy/src/daisy_seed.h ****     Returns the gpio_pin corresponding to the index 0-31.
  53:../../../libDaisy/src/daisy_seed.h ****     For the given GPIO on the Daisy Seed (labeled 1-32 in docs).
  54:../../../libDaisy/src/daisy_seed.h ****     */
  55:../../../libDaisy/src/daisy_seed.h ****     static dsy_gpio_pin GetPin(uint8_t pin_idx);
  56:../../../libDaisy/src/daisy_seed.h **** 
  57:../../../libDaisy/src/daisy_seed.h ****     /** Begins the audio for the seeds builtin audio.
  58:../../../libDaisy/src/daisy_seed.h ****     the specified callback will get called whenever
  59:../../../libDaisy/src/daisy_seed.h ****     new data is ready to be prepared.
  60:../../../libDaisy/src/daisy_seed.h ****     */
  61:../../../libDaisy/src/daisy_seed.h ****     void StartAudio(AudioHandle::InterleavingAudioCallback cb);
  62:../../../libDaisy/src/daisy_seed.h **** 
  63:../../../libDaisy/src/daisy_seed.h ****     /** Begins the audio for the seeds builtin audio.
  64:../../../libDaisy/src/daisy_seed.h ****     the specified callback will get called whenever
  65:../../../libDaisy/src/daisy_seed.h ****     new data is ready to be prepared.
  66:../../../libDaisy/src/daisy_seed.h ****     This will use the newer non-interleaved callback.
  67:../../../libDaisy/src/daisy_seed.h ****     */
  68:../../../libDaisy/src/daisy_seed.h ****     void StartAudio(AudioHandle::AudioCallback cb);
  69:../../../libDaisy/src/daisy_seed.h **** 
  70:../../../libDaisy/src/daisy_seed.h ****     /** Changes to a new interleaved callback
  71:../../../libDaisy/src/daisy_seed.h ****      */
  72:../../../libDaisy/src/daisy_seed.h ****     void ChangeAudioCallback(AudioHandle::InterleavingAudioCallback cb);
  73:../../../libDaisy/src/daisy_seed.h **** 
  74:../../../libDaisy/src/daisy_seed.h ****     /** Changes to a new multichannel callback
  75:../../../libDaisy/src/daisy_seed.h ****      */
  76:../../../libDaisy/src/daisy_seed.h ****     void ChangeAudioCallback(AudioHandle::AudioCallback cb);
  77:../../../libDaisy/src/daisy_seed.h **** 
  78:../../../libDaisy/src/daisy_seed.h ****     /** Stops the audio if it is running. */
  79:../../../libDaisy/src/daisy_seed.h ****     void StopAudio();
  80:../../../libDaisy/src/daisy_seed.h **** 
  81:../../../libDaisy/src/daisy_seed.h ****     /** Updates the Audio Sample Rate, and reinitializes.
  82:../../../libDaisy/src/daisy_seed.h ****      ** Audio must be stopped for this to work.
  83:../../../libDaisy/src/daisy_seed.h ****      */
ARM GAS  /var/folders/yw/6_x9gyn52jjg4jtn_wsryx_80000gp/T//cccDMQvQ.s 			page 29


  84:../../../libDaisy/src/daisy_seed.h ****     void SetAudioSampleRate(SaiHandle::Config::SampleRate samplerate);
  85:../../../libDaisy/src/daisy_seed.h **** 
  86:../../../libDaisy/src/daisy_seed.h ****     /** Returns the audio sample rate in Hz as a floating point number.
  87:../../../libDaisy/src/daisy_seed.h ****      */
  88:../../../libDaisy/src/daisy_seed.h ****     float AudioSampleRate();
  89:../../../libDaisy/src/daisy_seed.h **** 
  90:../../../libDaisy/src/daisy_seed.h ****     /** Sets the number of samples processed per channel by the audio callback.
  91:../../../libDaisy/src/daisy_seed.h ****      */
  92:../../../libDaisy/src/daisy_seed.h ****     void SetAudioBlockSize(size_t blocksize);
  93:../../../libDaisy/src/daisy_seed.h **** 
  94:../../../libDaisy/src/daisy_seed.h ****     /** Returns the number of samples per channel in a block of audio. */
  95:../../../libDaisy/src/daisy_seed.h ****     size_t AudioBlockSize();
  96:../../../libDaisy/src/daisy_seed.h **** 
  97:../../../libDaisy/src/daisy_seed.h ****     /** Returns the rate in Hz that the Audio callback is called */
  98:../../../libDaisy/src/daisy_seed.h ****     float AudioCallbackRate() const;
  99:../../../libDaisy/src/daisy_seed.h **** 
 100:../../../libDaisy/src/daisy_seed.h ****     /** Sets the state of the built in LED
 101:../../../libDaisy/src/daisy_seed.h ****      */
 102:../../../libDaisy/src/daisy_seed.h ****     void SetLed(bool state);
 103:../../../libDaisy/src/daisy_seed.h **** 
 104:../../../libDaisy/src/daisy_seed.h ****     /** Sets the state of the test point near pin 10
 105:../../../libDaisy/src/daisy_seed.h ****      */
 106:../../../libDaisy/src/daisy_seed.h ****     void SetTestPoint(bool state);
 107:../../../libDaisy/src/daisy_seed.h **** 
 108:../../../libDaisy/src/daisy_seed.h ****     /** Print formatted debug log message
 109:../../../libDaisy/src/daisy_seed.h ****      */
 110:../../../libDaisy/src/daisy_seed.h ****     template <typename... VA>
 111:../../../libDaisy/src/daisy_seed.h ****     static void Print(const char* format, VA... va)
 112:../../../libDaisy/src/daisy_seed.h ****     {
 113:../../../libDaisy/src/daisy_seed.h ****         Log::Print(format, va...);
 114:../../../libDaisy/src/daisy_seed.h ****     }
 115:../../../libDaisy/src/daisy_seed.h **** 
 116:../../../libDaisy/src/daisy_seed.h ****     /** Print formatted debug log message with automatic line termination
 117:../../../libDaisy/src/daisy_seed.h ****     */
 118:../../../libDaisy/src/daisy_seed.h ****     template <typename... VA>
 119:../../../libDaisy/src/daisy_seed.h ****     static void PrintLine(const char* format, VA... va)
 120:../../../libDaisy/src/daisy_seed.h ****     {
 121:../../../libDaisy/src/daisy_seed.h ****         Log::PrintLine(format, va...);
 122:../../../libDaisy/src/daisy_seed.h ****     }
 123:../../../libDaisy/src/daisy_seed.h **** 
 124:../../../libDaisy/src/daisy_seed.h ****     /** Start the logging session. Optionally wait for terminal connection before proceeding.
 125:../../../libDaisy/src/daisy_seed.h ****     */
 126:../../../libDaisy/src/daisy_seed.h ****     static void StartLog(bool wait_for_pc = false)
 666              		.loc 1 126 17 view .LVU137
 667              	.LBB635:
 127:../../../libDaisy/src/daisy_seed.h ****     {
 128:../../../libDaisy/src/daisy_seed.h ****         Log::StartLog(wait_for_pc);
 668              		.loc 1 128 9 view .LVU138
 669              		.loc 1 128 22 is_stmt 0 view .LVU139
 670 002e 0020     		movs	r0, #0
 671 0030 FFF7FEFF 		bl	_ZN5daisy6LoggerILNS_17LoggerDestinationE1EE8StartLogEb
 672              	.LVL34:
 673              		.loc 1 128 22 view .LVU140
 674              	.LBE635:
 675              	.LBE634:
  47:mpr121Test.cpp **** 	hw.SetAudioBlockSize(4); // number of samples handled per callback
 676              		.loc 8 47 2 is_stmt 1 view .LVU141
ARM GAS  /var/folders/yw/6_x9gyn52jjg4jtn_wsryx_80000gp/T//cccDMQvQ.s 			page 30


 677              		.loc 8 47 22 is_stmt 0 view .LVU142
 678 0034 0421     		movs	r1, #4
 679 0036 C248     		ldr	r0, .L57
 680 0038 02AF     		add	r7, sp, #8
 681 003a FFF7FEFF 		bl	_ZN5daisy9DaisySeed17SetAudioBlockSizeEj
 682              	.LVL35:
  48:mpr121Test.cpp **** 	hw.SetAudioSampleRate(SaiHandle::Config::SampleRate::SAI_48KHZ);
 683              		.loc 8 48 2 is_stmt 1 view .LVU143
 684              		.loc 8 48 23 is_stmt 0 view .LVU144
 685 003e 0321     		movs	r1, #3
 686 0040 BF48     		ldr	r0, .L57
 687 0042 FFF7FEFF 		bl	_ZN5daisy9DaisySeed18SetAudioSampleRateENS_9SaiHandle6Config10SampleRateE
 688              	.LVL36:
  49:mpr121Test.cpp **** 	hw.StartAudio(AudioCallback);
 689              		.loc 8 49 2 is_stmt 1 view .LVU145
 690              		.loc 8 49 15 is_stmt 0 view .LVU146
 691 0046 C049     		ldr	r1, .L57+8
 692 0048 BD48     		ldr	r0, .L57
 693 004a FFF7FEFF 		bl	_ZN5daisy9DaisySeed10StartAudioEPFvPKfPfjE
 694              	.LVL37:
  50:mpr121Test.cpp **** 
  51:mpr121Test.cpp ****     //How many samples we'll output per second
  52:mpr121Test.cpp ****     float samplerate = hw.AudioSampleRate();
 695              		.loc 8 52 5 is_stmt 1 view .LVU147
 696              		.loc 8 52 42 is_stmt 0 view .LVU148
 697 004e BC48     		ldr	r0, .L57
 698 0050 FFF7FEFF 		bl	_ZN5daisy9DaisySeed15AudioSampleRateEv
 699              	.LVL38:
 700 0054 F0EE407A 		vmov.f32	s15, s0
 701              	.LVL39:
  53:mpr121Test.cpp **** 
  54:mpr121Test.cpp **** 	// Initialize MPR121 with I2C configuration
  55:mpr121Test.cpp ****     Mpr121I2C::Config mprConfig;
 702              		.loc 8 55 5 is_stmt 1 view .LVU149
 703              	.LBB636:
 704              	.LBI636:
  99:../../../libDaisy/src/dev/mpr121.h ****         {
 705              		.loc 7 99 9 view .LVU150
 706              	.LBB637:
 707              	.LBI637:
  34:../../../libDaisy/src/dev/mpr121.h ****         {
 708              		.loc 7 34 9 view .LVU151
 709              	.LBB638:
 710              	.LBI638:
 711              		.file 10 "../../../libDaisy/src/daisy_core.h"
   1:../../../libDaisy/src/daisy_core.h **** #pragma once
   2:../../../libDaisy/src/daisy_core.h **** #ifndef DSY_CORE_HW_H
   3:../../../libDaisy/src/daisy_core.h **** #define DSY_CORE_HW_H /**< & */
   4:../../../libDaisy/src/daisy_core.h **** #include <stdint.h>
   5:../../../libDaisy/src/daisy_core.h **** #include <stdlib.h>
   6:../../../libDaisy/src/daisy_core.h **** 
   7:../../../libDaisy/src/daisy_core.h **** #if defined(_MSC_VER)
   8:../../../libDaisy/src/daisy_core.h **** #define FORCE_INLINE __forceinline /**< & */
   9:../../../libDaisy/src/daisy_core.h **** #elif defined(__clang__)
  10:../../../libDaisy/src/daisy_core.h **** #define FORCE_INLINE inline __attribute__((always_inline)) /**< & */
  11:../../../libDaisy/src/daisy_core.h **** #pragma clang diagnostic ignored "-Wduplicate-decl-specifier"
  12:../../../libDaisy/src/daisy_core.h **** #elif defined(__GNUC__)
ARM GAS  /var/folders/yw/6_x9gyn52jjg4jtn_wsryx_80000gp/T//cccDMQvQ.s 			page 31


  13:../../../libDaisy/src/daisy_core.h **** #define FORCE_INLINE inline __attribute__((always_inline)) /**< & */
  14:../../../libDaisy/src/daisy_core.h **** #else
  15:../../../libDaisy/src/daisy_core.h **** #error unknown compiler
  16:../../../libDaisy/src/daisy_core.h **** #endif
  17:../../../libDaisy/src/daisy_core.h **** 
  18:../../../libDaisy/src/daisy_core.h **** /** @addtogroup utility
  19:../../../libDaisy/src/daisy_core.h ****     @{
  20:../../../libDaisy/src/daisy_core.h **** */
  21:../../../libDaisy/src/daisy_core.h **** 
  22:../../../libDaisy/src/daisy_core.h **** /** Macro for area of memory that is configured as cacheless
  23:../../../libDaisy/src/daisy_core.h **** This should be used primarily for DMA buffers, and the like.
  24:../../../libDaisy/src/daisy_core.h **** */
  25:../../../libDaisy/src/daisy_core.h **** #define DMA_BUFFER_MEM_SECTION __attribute__((section(".sram1_bss")))
  26:../../../libDaisy/src/daisy_core.h **** /** 
  27:../../../libDaisy/src/daisy_core.h **** THE DTCM RAM section is also non-cached. However, is not suitable 
  28:../../../libDaisy/src/daisy_core.h **** for DMA transfers. Performance is on par with internal SRAM w/ 
  29:../../../libDaisy/src/daisy_core.h **** cache enabled.
  30:../../../libDaisy/src/daisy_core.h **** */
  31:../../../libDaisy/src/daisy_core.h **** #define DTCM_MEM_SECTION __attribute__((section(".dtcmram_bss")))
  32:../../../libDaisy/src/daisy_core.h **** 
  33:../../../libDaisy/src/daisy_core.h **** #define FBIPMAX 0.999985f             /**< close to 1.0f-LSB at 16 bit */
  34:../../../libDaisy/src/daisy_core.h **** #define FBIPMIN (-FBIPMAX)            /**< - (1 - LSB) */
  35:../../../libDaisy/src/daisy_core.h **** #define U82F_SCALE 0.0078740f         /**< 1 / 127 */
  36:../../../libDaisy/src/daisy_core.h **** #define F2U8_SCALE 127.0f             /**< 128 - 1 */
  37:../../../libDaisy/src/daisy_core.h **** #define S82F_SCALE 0.0078125f         /**< 1 / (2**7) */
  38:../../../libDaisy/src/daisy_core.h **** #define F2S8_SCALE 127.0f             /**< (2 ** 7) - 1 */
  39:../../../libDaisy/src/daisy_core.h **** #define S162F_SCALE 3.0517578125e-05f /**< 1 / (2** 15) */
  40:../../../libDaisy/src/daisy_core.h **** #define F2S16_SCALE 32767.0f          /**< (2 ** 15) - 1 */
  41:../../../libDaisy/src/daisy_core.h **** #define F2S24_SCALE 8388608.0f        /**< 2 ** 23 */
  42:../../../libDaisy/src/daisy_core.h **** #define S242F_SCALE 1.192092896e-07f  /**< 1 / (2 ** 23) */
  43:../../../libDaisy/src/daisy_core.h **** #define S24SIGN 0x800000              /**< 2 ** 23 */
  44:../../../libDaisy/src/daisy_core.h **** #define S322F_SCALE 4.6566129e-10f    /**< 1 / (2** 31) */
  45:../../../libDaisy/src/daisy_core.h **** #define F2S32_SCALE 2147483647.f      /**< (2 ** 31) - 1 */
  46:../../../libDaisy/src/daisy_core.h **** 
  47:../../../libDaisy/src/daisy_core.h **** 
  48:../../../libDaisy/src/daisy_core.h **** /** shorthand macro for simplifying the reading of the left 
  49:../../../libDaisy/src/daisy_core.h ****  *  channel of a non-interleaved output buffer named out */
  50:../../../libDaisy/src/daisy_core.h **** #define OUT_L out[0]
  51:../../../libDaisy/src/daisy_core.h **** 
  52:../../../libDaisy/src/daisy_core.h **** /** shorthand macro for simplifying the reading of the right 
  53:../../../libDaisy/src/daisy_core.h ****  *  channel of a non-interleaved output buffer named out */
  54:../../../libDaisy/src/daisy_core.h **** #define OUT_R out[1]
  55:../../../libDaisy/src/daisy_core.h **** 
  56:../../../libDaisy/src/daisy_core.h **** /** shorthand macro for simplifying the reading of the left 
  57:../../../libDaisy/src/daisy_core.h ****  *  channel of a non-interleaved input buffer named in */
  58:../../../libDaisy/src/daisy_core.h **** #define IN_L in[0]
  59:../../../libDaisy/src/daisy_core.h **** 
  60:../../../libDaisy/src/daisy_core.h **** /** shorthand macro for simplifying the reading of the right 
  61:../../../libDaisy/src/daisy_core.h ****  *  channel of a non-interleaved input buffer named in */
  62:../../../libDaisy/src/daisy_core.h **** #define IN_R in[1]
  63:../../../libDaisy/src/daisy_core.h **** 
  64:../../../libDaisy/src/daisy_core.h **** /** 
  65:../../../libDaisy/src/daisy_core.h ****     Computes cube.
  66:../../../libDaisy/src/daisy_core.h ****     \param x Number to be cubed
  67:../../../libDaisy/src/daisy_core.h ****     \return x ^ 3
  68:../../../libDaisy/src/daisy_core.h **** */
  69:../../../libDaisy/src/daisy_core.h **** FORCE_INLINE float cube(float x)
ARM GAS  /var/folders/yw/6_x9gyn52jjg4jtn_wsryx_80000gp/T//cccDMQvQ.s 			page 32


  70:../../../libDaisy/src/daisy_core.h **** {
  71:../../../libDaisy/src/daisy_core.h ****     return (x * x) * x;
  72:../../../libDaisy/src/daisy_core.h **** }
  73:../../../libDaisy/src/daisy_core.h **** 
  74:../../../libDaisy/src/daisy_core.h **** /** 
  75:../../../libDaisy/src/daisy_core.h ****     Converts unsigned 8-bit to float
  76:../../../libDaisy/src/daisy_core.h ****     \param x Number to be scaled.
  77:../../../libDaisy/src/daisy_core.h ****     \return Scaled number.
  78:../../../libDaisy/src/daisy_core.h **** */
  79:../../../libDaisy/src/daisy_core.h **** FORCE_INLINE float u82f(uint8_t x)
  80:../../../libDaisy/src/daisy_core.h **** {
  81:../../../libDaisy/src/daisy_core.h ****     return ((float)x - 127.f) * U82F_SCALE;
  82:../../../libDaisy/src/daisy_core.h **** }
  83:../../../libDaisy/src/daisy_core.h **** 
  84:../../../libDaisy/src/daisy_core.h **** /**
  85:../../../libDaisy/src/daisy_core.h ****     Converts float to unsigned 8-bit
  86:../../../libDaisy/src/daisy_core.h **** */
  87:../../../libDaisy/src/daisy_core.h **** FORCE_INLINE uint8_t f2u8(float x)
  88:../../../libDaisy/src/daisy_core.h **** {
  89:../../../libDaisy/src/daisy_core.h ****     x = x <= FBIPMIN ? FBIPMIN : x;
  90:../../../libDaisy/src/daisy_core.h ****     x = x >= FBIPMAX ? FBIPMAX : x;
  91:../../../libDaisy/src/daisy_core.h ****     return (uint8_t)((x * F2U8_SCALE) + F2U8_SCALE);
  92:../../../libDaisy/src/daisy_core.h **** }
  93:../../../libDaisy/src/daisy_core.h **** 
  94:../../../libDaisy/src/daisy_core.h **** 
  95:../../../libDaisy/src/daisy_core.h **** /** 
  96:../../../libDaisy/src/daisy_core.h ****     Converts Signed 8-bit to float
  97:../../../libDaisy/src/daisy_core.h ****     \param x Number to be scaled.
  98:../../../libDaisy/src/daisy_core.h ****     \return Scaled number.
  99:../../../libDaisy/src/daisy_core.h **** */
 100:../../../libDaisy/src/daisy_core.h **** FORCE_INLINE float s82f(int8_t x)
 101:../../../libDaisy/src/daisy_core.h **** {
 102:../../../libDaisy/src/daisy_core.h ****     return (float)x * S82F_SCALE;
 103:../../../libDaisy/src/daisy_core.h **** }
 104:../../../libDaisy/src/daisy_core.h **** 
 105:../../../libDaisy/src/daisy_core.h **** /**
 106:../../../libDaisy/src/daisy_core.h ****     Converts float to Signed 8-bit
 107:../../../libDaisy/src/daisy_core.h **** */
 108:../../../libDaisy/src/daisy_core.h **** FORCE_INLINE int8_t f2s8(float x)
 109:../../../libDaisy/src/daisy_core.h **** {
 110:../../../libDaisy/src/daisy_core.h ****     x = x <= FBIPMIN ? FBIPMIN : x;
 111:../../../libDaisy/src/daisy_core.h ****     x = x >= FBIPMAX ? FBIPMAX : x;
 112:../../../libDaisy/src/daisy_core.h ****     return (int32_t)(x * F2S8_SCALE);
 113:../../../libDaisy/src/daisy_core.h **** }
 114:../../../libDaisy/src/daisy_core.h **** 
 115:../../../libDaisy/src/daisy_core.h **** /** 
 116:../../../libDaisy/src/daisy_core.h ****     Converts Signed 16-bit to float
 117:../../../libDaisy/src/daisy_core.h ****     \param x Number to be scaled.
 118:../../../libDaisy/src/daisy_core.h ****     \return Scaled number.
 119:../../../libDaisy/src/daisy_core.h **** */
 120:../../../libDaisy/src/daisy_core.h **** FORCE_INLINE float s162f(int16_t x)
 121:../../../libDaisy/src/daisy_core.h **** {
 122:../../../libDaisy/src/daisy_core.h ****     return (float)x * S162F_SCALE;
 123:../../../libDaisy/src/daisy_core.h **** }
 124:../../../libDaisy/src/daisy_core.h **** 
 125:../../../libDaisy/src/daisy_core.h **** /**
 126:../../../libDaisy/src/daisy_core.h ****     Converts float to Signed 16-bit
ARM GAS  /var/folders/yw/6_x9gyn52jjg4jtn_wsryx_80000gp/T//cccDMQvQ.s 			page 33


 127:../../../libDaisy/src/daisy_core.h **** */
 128:../../../libDaisy/src/daisy_core.h **** FORCE_INLINE int16_t f2s16(float x)
 129:../../../libDaisy/src/daisy_core.h **** {
 130:../../../libDaisy/src/daisy_core.h ****     x = x <= FBIPMIN ? FBIPMIN : x;
 131:../../../libDaisy/src/daisy_core.h ****     x = x >= FBIPMAX ? FBIPMAX : x;
 132:../../../libDaisy/src/daisy_core.h ****     return (int32_t)(x * F2S16_SCALE);
 133:../../../libDaisy/src/daisy_core.h **** }
 134:../../../libDaisy/src/daisy_core.h **** 
 135:../../../libDaisy/src/daisy_core.h **** /**
 136:../../../libDaisy/src/daisy_core.h ****     Converts Signed 24-bit to float
 137:../../../libDaisy/src/daisy_core.h ****  */
 138:../../../libDaisy/src/daisy_core.h **** FORCE_INLINE float s242f(int32_t x)
 139:../../../libDaisy/src/daisy_core.h **** {
 140:../../../libDaisy/src/daisy_core.h ****     x = (x ^ S24SIGN) - S24SIGN; //sign extend aka ((x<<8)>>8)
 141:../../../libDaisy/src/daisy_core.h ****     return (float)x * S242F_SCALE;
 142:../../../libDaisy/src/daisy_core.h **** }
 143:../../../libDaisy/src/daisy_core.h **** /**
 144:../../../libDaisy/src/daisy_core.h ****     Converts float to Signed 24-bit
 145:../../../libDaisy/src/daisy_core.h ****  */
 146:../../../libDaisy/src/daisy_core.h **** FORCE_INLINE int32_t f2s24(float x)
 147:../../../libDaisy/src/daisy_core.h **** {
 148:../../../libDaisy/src/daisy_core.h ****     x = x <= FBIPMIN ? FBIPMIN : x;
 149:../../../libDaisy/src/daisy_core.h ****     x = x >= FBIPMAX ? FBIPMAX : x;
 150:../../../libDaisy/src/daisy_core.h ****     return (int32_t)(x * F2S24_SCALE);
 151:../../../libDaisy/src/daisy_core.h **** }
 152:../../../libDaisy/src/daisy_core.h **** 
 153:../../../libDaisy/src/daisy_core.h **** /**
 154:../../../libDaisy/src/daisy_core.h ****     Converts Signed 32-bit to float
 155:../../../libDaisy/src/daisy_core.h ****  */
 156:../../../libDaisy/src/daisy_core.h **** FORCE_INLINE float s322f(int32_t x)
 157:../../../libDaisy/src/daisy_core.h **** {
 158:../../../libDaisy/src/daisy_core.h ****     return (float)x * S322F_SCALE;
 159:../../../libDaisy/src/daisy_core.h **** }
 160:../../../libDaisy/src/daisy_core.h **** /**
 161:../../../libDaisy/src/daisy_core.h ****     Converts float to Signed 24-bit
 162:../../../libDaisy/src/daisy_core.h ****  */
 163:../../../libDaisy/src/daisy_core.h **** FORCE_INLINE int32_t f2s32(float x)
 164:../../../libDaisy/src/daisy_core.h **** {
 165:../../../libDaisy/src/daisy_core.h ****     x = x <= FBIPMIN ? FBIPMIN : x;
 166:../../../libDaisy/src/daisy_core.h ****     x = x >= FBIPMAX ? FBIPMAX : x;
 167:../../../libDaisy/src/daisy_core.h ****     return (int32_t)(x * F2S32_SCALE);
 168:../../../libDaisy/src/daisy_core.h **** }
 169:../../../libDaisy/src/daisy_core.h **** 
 170:../../../libDaisy/src/daisy_core.h **** 
 171:../../../libDaisy/src/daisy_core.h **** /** Enums and a simple struct for defining a hardware pin on the MCU
 172:../../../libDaisy/src/daisy_core.h ****  *  These correlate with the stm32 datasheet, and are used to configure
 173:../../../libDaisy/src/daisy_core.h ****  *  the hardware.
 174:../../../libDaisy/src/daisy_core.h ****  * 
 175:../../../libDaisy/src/daisy_core.h ****  *  This along with the dsy_gpio_pin class should no longer be used.
 176:../../../libDaisy/src/daisy_core.h ****  *  They are available for backwards compatability. 
 177:../../../libDaisy/src/daisy_core.h ****  * 
 178:../../../libDaisy/src/daisy_core.h ****  *  Please use GPIOPort enum and the Pin struct instead.
 179:../../../libDaisy/src/daisy_core.h ****  */
 180:../../../libDaisy/src/daisy_core.h **** typedef enum
 181:../../../libDaisy/src/daisy_core.h **** {
 182:../../../libDaisy/src/daisy_core.h ****     DSY_GPIOA, /**< & */
 183:../../../libDaisy/src/daisy_core.h ****     DSY_GPIOB, /**< & */
ARM GAS  /var/folders/yw/6_x9gyn52jjg4jtn_wsryx_80000gp/T//cccDMQvQ.s 			page 34


 184:../../../libDaisy/src/daisy_core.h ****     DSY_GPIOC, /**< & */
 185:../../../libDaisy/src/daisy_core.h ****     DSY_GPIOD, /**< & */
 186:../../../libDaisy/src/daisy_core.h ****     DSY_GPIOE, /**< & */
 187:../../../libDaisy/src/daisy_core.h ****     DSY_GPIOF, /**< & */
 188:../../../libDaisy/src/daisy_core.h ****     DSY_GPIOG, /**< & */
 189:../../../libDaisy/src/daisy_core.h ****     DSY_GPIOH, /**< & */
 190:../../../libDaisy/src/daisy_core.h ****     DSY_GPIOI, /**< & */
 191:../../../libDaisy/src/daisy_core.h ****     DSY_GPIOJ, /**< & */
 192:../../../libDaisy/src/daisy_core.h ****     DSY_GPIOK, /**< & */
 193:../../../libDaisy/src/daisy_core.h ****     DSY_GPIOX, /** This is a non-existant port for unsupported bits of hardware. */
 194:../../../libDaisy/src/daisy_core.h ****     DSY_GPIO_LAST, /** Final enum member */
 195:../../../libDaisy/src/daisy_core.h **** } dsy_gpio_port;
 196:../../../libDaisy/src/daisy_core.h **** 
 197:../../../libDaisy/src/daisy_core.h **** /** Hardware define pins 
 198:../../../libDaisy/src/daisy_core.h ****  *  
 199:../../../libDaisy/src/daisy_core.h ****  *  The dsy_gpio_pin struct should no longer be used, and is only available for
 200:../../../libDaisy/src/daisy_core.h ****  *  backwards compatability.
 201:../../../libDaisy/src/daisy_core.h ****  * 
 202:../../../libDaisy/src/daisy_core.h ****  *  Please use Pin struct instead.
 203:../../../libDaisy/src/daisy_core.h ****  */
 204:../../../libDaisy/src/daisy_core.h **** typedef struct
 205:../../../libDaisy/src/daisy_core.h **** {
 206:../../../libDaisy/src/daisy_core.h ****     dsy_gpio_port port; /**< & */
 207:../../../libDaisy/src/daisy_core.h ****     uint8_t       pin;  /**< number 0-15 */
 208:../../../libDaisy/src/daisy_core.h **** } dsy_gpio_pin;
 209:../../../libDaisy/src/daisy_core.h **** 
 210:../../../libDaisy/src/daisy_core.h **** /** Helper for creating pins from port/pin combos easily
 211:../../../libDaisy/src/daisy_core.h ****  * 
 212:../../../libDaisy/src/daisy_core.h ****  *  The dsy_gpio_pin struct should no longer be used, and is only available for
 213:../../../libDaisy/src/daisy_core.h ****  *  backwards compatability.
 214:../../../libDaisy/src/daisy_core.h ****  * 
 215:../../../libDaisy/src/daisy_core.h ****  *  Please use Pin struct instead.
 216:../../../libDaisy/src/daisy_core.h **** */
 217:../../../libDaisy/src/daisy_core.h **** FORCE_INLINE dsy_gpio_pin dsy_pin(dsy_gpio_port port, uint8_t pin)
 218:../../../libDaisy/src/daisy_core.h **** {
 219:../../../libDaisy/src/daisy_core.h ****     dsy_gpio_pin p;
 220:../../../libDaisy/src/daisy_core.h ****     p.port = port;
 221:../../../libDaisy/src/daisy_core.h ****     p.pin  = pin;
 222:../../../libDaisy/src/daisy_core.h ****     return p;
 223:../../../libDaisy/src/daisy_core.h **** }
 224:../../../libDaisy/src/daisy_core.h **** 
 225:../../../libDaisy/src/daisy_core.h **** /** Helper for testing sameness of two dsy_gpio_pins
 226:../../../libDaisy/src/daisy_core.h ****  *  \return    1 if same, 0 if different
 227:../../../libDaisy/src/daisy_core.h ****  * 
 228:../../../libDaisy/src/daisy_core.h ****  *  The dsy_gpio_pin struct should no longer be used, and is only available for
 229:../../../libDaisy/src/daisy_core.h ****  *  backwards compatability.
 230:../../../libDaisy/src/daisy_core.h ****  * 
 231:../../../libDaisy/src/daisy_core.h ****  *  Please use Pin struct instead.
 232:../../../libDaisy/src/daisy_core.h ****  */
 233:../../../libDaisy/src/daisy_core.h **** FORCE_INLINE uint8_t dsy_pin_cmp(dsy_gpio_pin *a, dsy_gpio_pin *b)
 234:../../../libDaisy/src/daisy_core.h **** {
 235:../../../libDaisy/src/daisy_core.h ****     return ((a->port == b->port) && (a->pin == b->pin));
 236:../../../libDaisy/src/daisy_core.h **** }
 237:../../../libDaisy/src/daisy_core.h **** 
 238:../../../libDaisy/src/daisy_core.h **** #ifdef __cplusplus
 239:../../../libDaisy/src/daisy_core.h **** 
 240:../../../libDaisy/src/daisy_core.h **** namespace daisy
ARM GAS  /var/folders/yw/6_x9gyn52jjg4jtn_wsryx_80000gp/T//cccDMQvQ.s 			page 35


 241:../../../libDaisy/src/daisy_core.h **** {
 242:../../../libDaisy/src/daisy_core.h **** /** @brief GPIO Port names */
 243:../../../libDaisy/src/daisy_core.h **** enum GPIOPort
 244:../../../libDaisy/src/daisy_core.h **** {
 245:../../../libDaisy/src/daisy_core.h ****     PORTA, /**< Port A */
 246:../../../libDaisy/src/daisy_core.h ****     PORTB, /**< Port B */
 247:../../../libDaisy/src/daisy_core.h ****     PORTC, /**< Port C */
 248:../../../libDaisy/src/daisy_core.h ****     PORTD, /**< Port D */
 249:../../../libDaisy/src/daisy_core.h ****     PORTE, /**< Port E */
 250:../../../libDaisy/src/daisy_core.h ****     PORTF, /**< Port F */
 251:../../../libDaisy/src/daisy_core.h ****     PORTG, /**< Port G */
 252:../../../libDaisy/src/daisy_core.h ****     PORTH, /**< Port H */
 253:../../../libDaisy/src/daisy_core.h ****     PORTI, /**< Port I */
 254:../../../libDaisy/src/daisy_core.h ****     PORTJ, /**< Port J */
 255:../../../libDaisy/src/daisy_core.h ****     PORTK, /**< Port K */
 256:../../../libDaisy/src/daisy_core.h ****     PORTX, /**< Used as a dummy port to signal an invalid pin. */
 257:../../../libDaisy/src/daisy_core.h **** };
 258:../../../libDaisy/src/daisy_core.h **** 
 259:../../../libDaisy/src/daisy_core.h **** /** @brief representation of hardware port/pin combination */
 260:../../../libDaisy/src/daisy_core.h **** struct Pin
 261:../../../libDaisy/src/daisy_core.h **** {
 262:../../../libDaisy/src/daisy_core.h ****     GPIOPort port;
 263:../../../libDaisy/src/daisy_core.h ****     uint8_t  pin;
 264:../../../libDaisy/src/daisy_core.h **** 
 265:../../../libDaisy/src/daisy_core.h ****     /** @brief Constructor creates a valid pin. 
 266:../../../libDaisy/src/daisy_core.h ****      *  @param pt GPIOPort between PA, and PK corresponding to STM32 Port.
 267:../../../libDaisy/src/daisy_core.h ****      *  @param pn pin number in range of 0-15
 268:../../../libDaisy/src/daisy_core.h ****     */
 269:../../../libDaisy/src/daisy_core.h ****     constexpr Pin(const GPIOPort pt, const uint8_t pn) : port(pt), pin(pn) {}
 270:../../../libDaisy/src/daisy_core.h **** 
 271:../../../libDaisy/src/daisy_core.h ****     /** @brief Basic Constructor creates an invalid Pin object */
 272:../../../libDaisy/src/daisy_core.h ****     constexpr Pin() : port(PORTX), pin(255) {}
 712              		.loc 10 272 15 view .LVU152
 713              		.loc 10 272 15 is_stmt 0 view .LVU153
 714              	.LBE638:
 715              	.LBB639:
 716              	.LBI639:
 717              		.loc 10 272 15 is_stmt 1 view .LVU154
 718              		.loc 10 272 15 is_stmt 0 view .LVU155
 719              	.LBE639:
 720              	.LBE637:
 721              	.LBE636:
  36:../../../libDaisy/src/dev/mpr121.h ****             speed  = I2CHandle::Config::Speed::I2C_400KHZ;
 722              		.loc 7 36 13 is_stmt 1 view .LVU156
  37:../../../libDaisy/src/dev/mpr121.h **** 
 723              		.loc 7 37 13 view .LVU157
  39:../../../libDaisy/src/dev/mpr121.h ****             sda = Pin(PORTB, 9);
 724              		.loc 7 39 13 view .LVU158
 725              	.LBB644:
 726              	.LBB642:
 727              	.LBB640:
 728              	.LBI640:
 269:../../../libDaisy/src/daisy_core.h **** 
 729              		.loc 10 269 15 view .LVU159
 269:../../../libDaisy/src/daisy_core.h **** 
 730              		.loc 10 269 15 is_stmt 0 view .LVU160
 731              	.LBE640:
ARM GAS  /var/folders/yw/6_x9gyn52jjg4jtn_wsryx_80000gp/T//cccDMQvQ.s 			page 36


 732              	.LBE642:
 733              	.LBE644:
  40:../../../libDaisy/src/dev/mpr121.h **** 
 734              		.loc 7 40 13 is_stmt 1 view .LVU161
 735              	.LBB645:
 736              	.LBB643:
 737              	.LBB641:
 738              	.LBI641:
 269:../../../libDaisy/src/daisy_core.h **** 
 739              		.loc 10 269 15 view .LVU162
 269:../../../libDaisy/src/daisy_core.h **** 
 740              		.loc 10 269 15 is_stmt 0 view .LVU163
 741              	.LBE641:
 742              	.LBE643:
 743              	.LBE645:
  42:../../../libDaisy/src/dev/mpr121.h ****         }
 744              		.loc 7 42 13 is_stmt 1 view .LVU164
  56:mpr121Test.cpp ****     mprConfig.transport_config.periph = I2CHandle::Config::Peripheral::I2C_1;
 745              		.loc 8 56 5 view .LVU165
  57:mpr121Test.cpp ****     mprConfig.transport_config.speed = I2CHandle::Config::Speed::I2C_400KHZ;
 746              		.loc 8 57 5 view .LVU166
  58:mpr121Test.cpp ****     mprConfig.transport_config.scl = Pin(PORTB,6);  // Replace with your SCL pin
 747              		.loc 8 58 5 view .LVU167
 748              	.LBB646:
 749              	.LBI646:
 269:../../../libDaisy/src/daisy_core.h **** 
 750              		.loc 10 269 15 view .LVU168
 269:../../../libDaisy/src/daisy_core.h **** 
 751              		.loc 10 269 15 is_stmt 0 view .LVU169
 752              	.LBE646:
  59:mpr121Test.cpp ****     mprConfig.transport_config.sda = Pin(PORTB,7);  // Replace with your SDA pin
 753              		.loc 8 59 5 is_stmt 1 view .LVU170
 754              	.LBB647:
 755              	.LBI647:
 269:../../../libDaisy/src/daisy_core.h **** 
 756              		.loc 10 269 15 view .LVU171
 269:../../../libDaisy/src/daisy_core.h **** 
 757              		.loc 10 269 15 is_stmt 0 view .LVU172
 758              	.LBE647:
  60:mpr121Test.cpp **** 
  61:mpr121Test.cpp **** 	// Set additional MPR121 configuration if needed
  62:mpr121Test.cpp ****     mprConfig.touch_threshold = 12;
 759              		.loc 8 62 5 is_stmt 1 view .LVU173
  63:mpr121Test.cpp ****     mprConfig.release_threshold = 6;
 760              		.loc 8 63 5 view .LVU174
  64:mpr121Test.cpp **** 
  65:mpr121Test.cpp ****     //Set up oscillator
  66:mpr121Test.cpp ****     osc.Init(samplerate);
 761              		.loc 8 66 5 view .LVU175
 762              	.LBB648:
 763              	.LBI434:
  42:../../../DaisySP/Source/Synthesis/oscillator.h ****     {
 764              		.loc 6 42 10 view .LVU176
 765              	.LBB437:
  44:../../../DaisySP/Source/Synthesis/oscillator.h ****         sr_recip_  = 1.0f / sample_rate;
 766              		.loc 6 44 9 view .LVU177
  46:../../../DaisySP/Source/Synthesis/oscillator.h ****         amp_       = 0.5f;
ARM GAS  /var/folders/yw/6_x9gyn52jjg4jtn_wsryx_80000gp/T//cccDMQvQ.s 			page 37


 767              		.loc 6 46 20 is_stmt 0 view .LVU178
 768 0058 9FEDBC7A 		vldr.32	s14, .L57+12
  47:../../../DaisySP/Source/Synthesis/oscillator.h ****         pw_        = 0.5f;
 769              		.loc 6 47 20 view .LVU179
 770 005c 4FF07C53 		mov	r3, #1056964608
  49:../../../DaisySP/Source/Synthesis/oscillator.h ****         phase_     = 0.0f;
 771              		.loc 6 49 20 view .LVU180
 772 0060 BB49     		ldr	r1, .L57+16
  50:../../../DaisySP/Source/Synthesis/oscillator.h ****         phase_inc_ = CalcPhaseInc(freq_);
 773              		.loc 6 50 20 view .LVU181
 774 0062 0022     		movs	r2, #0
  45:../../../DaisySP/Source/Synthesis/oscillator.h ****         freq_      = 100.0f;
 775              		.loc 6 45 27 view .LVU182
 776 0064 C8EE276A 		vdiv.f32	s13, s16, s15
  51:../../../DaisySP/Source/Synthesis/oscillator.h ****         waveform_  = WAVE_SIN;
 777              		.loc 6 51 34 view .LVU183
 778 0068 4046     		mov	r0, r8
  44:../../../DaisySP/Source/Synthesis/oscillator.h ****         sr_recip_  = 1.0f / sample_rate;
 779              		.loc 6 44 20 view .LVU184
 780 006a C8ED057A 		vstr.32	s15, [r8, #20]
  45:../../../DaisySP/Source/Synthesis/oscillator.h ****         freq_      = 100.0f;
 781              		.loc 6 45 9 is_stmt 1 view .LVU185
  46:../../../DaisySP/Source/Synthesis/oscillator.h ****         amp_       = 0.5f;
 782              		.loc 6 46 20 is_stmt 0 view .LVU186
 783 006e 88ED027A 		vstr.32	s14, [r8, #8]
  47:../../../DaisySP/Source/Synthesis/oscillator.h ****         pw_        = 0.5f;
 784              		.loc 6 47 20 view .LVU187
 785 0072 C8F80430 		str	r3, [r8, #4]	@ float
  48:../../../DaisySP/Source/Synthesis/oscillator.h ****         pw_rad_    = pw_ * TWOPI_F;
 786              		.loc 6 48 20 view .LVU188
 787 0076 C8F80C30 		str	r3, [r8, #12]	@ float
  51:../../../DaisySP/Source/Synthesis/oscillator.h ****         waveform_  = WAVE_SIN;
 788              		.loc 6 51 34 view .LVU189
 789 007a B0EE470A 		vmov.f32	s0, s14
 790              	.LVL40:
  49:../../../DaisySP/Source/Synthesis/oscillator.h ****         phase_     = 0.0f;
 791              		.loc 6 49 20 view .LVU190
 792 007e C8F81010 		str	r1, [r8, #16]	@ float
  50:../../../DaisySP/Source/Synthesis/oscillator.h ****         phase_inc_ = CalcPhaseInc(freq_);
 793              		.loc 6 50 20 view .LVU191
 794 0082 C8F81C20 		str	r2, [r8, #28]	@ float
  45:../../../DaisySP/Source/Synthesis/oscillator.h ****         freq_      = 100.0f;
 795              		.loc 6 45 20 view .LVU192
 796 0086 C8ED066A 		vstr.32	s13, [r8, #24]
  46:../../../DaisySP/Source/Synthesis/oscillator.h ****         amp_       = 0.5f;
 797              		.loc 6 46 9 is_stmt 1 view .LVU193
  47:../../../DaisySP/Source/Synthesis/oscillator.h ****         pw_        = 0.5f;
 798              		.loc 6 47 9 view .LVU194
  48:../../../DaisySP/Source/Synthesis/oscillator.h ****         pw_rad_    = pw_ * TWOPI_F;
 799              		.loc 6 48 9 view .LVU195
  49:../../../DaisySP/Source/Synthesis/oscillator.h ****         phase_     = 0.0f;
 800              		.loc 6 49 9 view .LVU196
  50:../../../DaisySP/Source/Synthesis/oscillator.h ****         phase_inc_ = CalcPhaseInc(freq_);
 801              		.loc 6 50 9 view .LVU197
  51:../../../DaisySP/Source/Synthesis/oscillator.h ****         waveform_  = WAVE_SIN;
 802              		.loc 6 51 9 view .LVU198
  51:../../../DaisySP/Source/Synthesis/oscillator.h ****         waveform_  = WAVE_SIN;
ARM GAS  /var/folders/yw/6_x9gyn52jjg4jtn_wsryx_80000gp/T//cccDMQvQ.s 			page 38


 803              		.loc 6 51 34 is_stmt 0 view .LVU199
 804 008a FFF7FEFF 		bl	_ZN7daisysp10Oscillator12CalcPhaseIncEf
 805              	.LVL41:
  53:../../../DaisySP/Source/Synthesis/oscillator.h ****         eoc_       = true;
  54:../../../DaisySP/Source/Synthesis/oscillator.h ****         eor_       = true;
 806              		.loc 6 54 20 view .LVU200
 807 008e 40F20113 		movw	r3, #257
 808 0092 AC46     		mov	ip, r5
 809              	.LBE437:
 810              	.LBE648:
 811              	.LBB649:
 812              	.LBB627:
 117:../../../libDaisy/src/dev/mpr121.h **** 
 813              		.loc 7 117 9 view .LVU201
 814 0094 C5F804A0 		str	r10, [r5, #4]
 815              	.LBB459:
 816              	.LBB451:
  49:../../../libDaisy/src/dev/mpr121.h **** 
 817              		.loc 7 49 17 view .LVU202
 818 0098 BE46     		mov	lr, r7
 819              	.LBE451:
 820              	.LBE459:
 821              	.LBE627:
 822              	.LBE649:
 823              	.LBB650:
 824              	.LBB438:
 825              		.loc 6 54 20 view .LVU203
 826 009a A8F82C30 		strh	r3, [r8, #44]	@ movhi
 827              	.LBE438:
 828              	.LBE650:
 829              	.LBB651:
 830              	.LBB628:
 117:../../../libDaisy/src/dev/mpr121.h **** 
 831              		.loc 7 117 9 view .LVU204
 832 009e AD4B     		ldr	r3, .L57+20
 833 00a0 C5F80090 		str	r9, [r5]
 834 00a4 AB60     		str	r3, [r5, #8]
 835              	.LBB460:
 836              	.LBB452:
  56:../../../libDaisy/src/dev/mpr121.h ****         i2c_conf.pin_config.sda = config.sda;
 837              		.loc 7 56 42 view .LVU205
 838 00a6 0893     		str	r3, [sp, #32]
 839              	.LBE452:
 840              	.LBE460:
 117:../../../libDaisy/src/dev/mpr121.h **** 
 841              		.loc 7 117 9 view .LVU206
 842 00a8 5A23     		movs	r3, #90
 843              	.LBE628:
 844              	.LBE651:
 845              	.LBB652:
 846              	.LBB439:
  51:../../../DaisySP/Source/Synthesis/oscillator.h ****         waveform_  = WAVE_SIN;
 847              		.loc 6 51 20 view .LVU207
 848 00aa 88ED080A 		vstr.32	s0, [r8, #32]
  52:../../../DaisySP/Source/Synthesis/oscillator.h ****         eoc_       = true;
 849              		.loc 6 52 9 is_stmt 1 view .LVU208
 850              	.LBE439:
ARM GAS  /var/folders/yw/6_x9gyn52jjg4jtn_wsryx_80000gp/T//cccDMQvQ.s 			page 39


 851              	.LBE652:
 852              	.LBB653:
 853              	.LBB629:
 117:../../../libDaisy/src/dev/mpr121.h **** 
 854              		.loc 7 117 9 is_stmt 0 view .LVU209
 855 00ae 2B74     		strb	r3, [r5, #16]
 856 00b0 40F20C63 		movw	r3, #1548
 857              	.LBB461:
 858              	.LBB453:
  54:../../../libDaisy/src/dev/mpr121.h **** 
 859              		.loc 7 54 25 view .LVU210
 860 00b4 CDF824A0 		str	r10, [sp, #36]
 861              	.LBE453:
 862              	.LBE461:
 117:../../../libDaisy/src/dev/mpr121.h **** 
 863              		.loc 7 117 9 view .LVU211
 864 00b8 AB82     		strh	r3, [r5, #20]	@ movhi
 865              	.LBE629:
 866              	.LBE653:
 867              	.LBB654:
 868              	.LBB440:
  52:../../../DaisySP/Source/Synthesis/oscillator.h ****         eoc_       = true;
 869              		.loc 6 52 20 view .LVU212
 870 00ba 88F80090 		strb	r9, [r8]
  53:../../../DaisySP/Source/Synthesis/oscillator.h ****         eor_       = true;
 871              		.loc 6 53 9 is_stmt 1 view .LVU213
 872              		.loc 6 54 9 view .LVU214
 873              	.LVL42:
 874              		.loc 6 54 9 is_stmt 0 view .LVU215
 875              	.LBE440:
 876              	.LBE654:
  67:mpr121Test.cpp ****     osc.SetWaveform(osc.WAVE_SIN);
 877              		.loc 8 67 5 is_stmt 1 view .LVU216
  55:../../../DaisySP/Source/Synthesis/oscillator.h ****     }
  56:../../../DaisySP/Source/Synthesis/oscillator.h **** 
  57:../../../DaisySP/Source/Synthesis/oscillator.h **** 
  58:../../../DaisySP/Source/Synthesis/oscillator.h ****     /** Changes the frequency of the Oscillator, and recalculates phase increment.
  59:../../../DaisySP/Source/Synthesis/oscillator.h ****     */
  60:../../../DaisySP/Source/Synthesis/oscillator.h ****     inline void SetFreq(const float f)
  61:../../../DaisySP/Source/Synthesis/oscillator.h ****     {
  62:../../../DaisySP/Source/Synthesis/oscillator.h ****         freq_      = f;
  63:../../../DaisySP/Source/Synthesis/oscillator.h ****         phase_inc_ = CalcPhaseInc(f);
  64:../../../DaisySP/Source/Synthesis/oscillator.h ****     }
  65:../../../DaisySP/Source/Synthesis/oscillator.h **** 
  66:../../../DaisySP/Source/Synthesis/oscillator.h **** 
  67:../../../DaisySP/Source/Synthesis/oscillator.h ****     /** Sets the amplitude of the waveform.
  68:../../../DaisySP/Source/Synthesis/oscillator.h ****     */
  69:../../../DaisySP/Source/Synthesis/oscillator.h ****     inline void SetAmp(const float a) { amp_ = a; }
  70:../../../DaisySP/Source/Synthesis/oscillator.h ****     /** Sets the waveform to be synthesized by the Process() function.
  71:../../../DaisySP/Source/Synthesis/oscillator.h ****     */
  72:../../../DaisySP/Source/Synthesis/oscillator.h ****     inline void SetWaveform(const uint8_t wf)
  73:../../../DaisySP/Source/Synthesis/oscillator.h ****     {
  74:../../../DaisySP/Source/Synthesis/oscillator.h ****         waveform_ = wf < WAVE_LAST ? wf : WAVE_SIN;
 878              		.loc 6 74 9 view .LVU217
  68:mpr121Test.cpp ****     osc.SetAmp(1.f);
 879              		.loc 8 68 5 view .LVU218
 880              	.LBB655:
ARM GAS  /var/folders/yw/6_x9gyn52jjg4jtn_wsryx_80000gp/T//cccDMQvQ.s 			page 40


 881              	.LBI655:
  69:../../../DaisySP/Source/Synthesis/oscillator.h ****     /** Sets the waveform to be synthesized by the Process() function.
 882              		.loc 6 69 17 view .LVU219
 883              	.LBB656:
  69:../../../DaisySP/Source/Synthesis/oscillator.h ****     /** Sets the waveform to be synthesized by the Process() function.
 884              		.loc 6 69 41 view .LVU220
  69:../../../DaisySP/Source/Synthesis/oscillator.h ****     /** Sets the waveform to be synthesized by the Process() function.
 885              		.loc 6 69 46 is_stmt 0 view .LVU221
 886 00be 88ED018A 		vstr.32	s16, [r8, #4]
 887              	.LVL43:
  69:../../../DaisySP/Source/Synthesis/oscillator.h ****     /** Sets the waveform to be synthesized by the Process() function.
 888              		.loc 6 69 46 view .LVU222
 889              	.LBE656:
 890              	.LBE655:
  69:mpr121Test.cpp ****     //osc.SetFreq(440);
  70:mpr121Test.cpp **** 
  71:mpr121Test.cpp **** 	if(mpr121.Init(mprConfig) != Mpr121I2C::OK)
 891              		.loc 8 71 2 is_stmt 1 view .LVU223
 892              	.LBB657:
 893              	.LBI441:
 115:../../../libDaisy/src/dev/mpr121.h ****     {
 894              		.loc 7 115 12 view .LVU224
 895              	.LBB630:
 896              	.LBB462:
 897              	.LBB454:
  53:../../../libDaisy/src/dev/mpr121.h ****         i2c_conf.speed  = config.speed;
 898              		.loc 7 53 25 is_stmt 0 view .LVU225
 899 00c2 CDF81C90 		str	r9, [sp, #28]
  52:../../../libDaisy/src/dev/mpr121.h ****         i2c_conf.periph = config.periph;
 900              		.loc 7 52 25 view .LVU226
 901 00c6 CDF82890 		str	r9, [sp, #40]
 902 00ca BCE80F00 		ldmia	ip!, {r0, r1, r2, r3}
 903 00ce DCF800C0 		ldr	ip, [ip]
 904 00d2 0FC7     		stmia	r7!, {r0, r1, r2, r3}
 905 00d4 C7F800C0 		str	ip, [r7]
 906              	.LBE454:
 907              	.LBI443:
  47:../../../libDaisy/src/dev/mpr121.h ****     {
 908              		.loc 7 47 17 is_stmt 1 view .LVU227
 909              	.LBB455:
  49:../../../libDaisy/src/dev/mpr121.h **** 
 910              		.loc 7 49 9 view .LVU228
  49:../../../libDaisy/src/dev/mpr121.h **** 
 911              		.loc 7 49 17 is_stmt 0 view .LVU229
 912 00d8 BEE80F00 		ldmia	lr!, {r0, r1, r2, r3}
 913 00dc 0FC4     		stmia	r4!, {r0, r1, r2, r3}
  59:../../../libDaisy/src/dev/mpr121.h ****     }
 914              		.loc 7 59 50 view .LVU230
 915 00de 07A9     		add	r1, sp, #28
 916 00e0 05F11800 		add	r0, r5, #24
  49:../../../libDaisy/src/dev/mpr121.h **** 
 917              		.loc 7 49 17 view .LVU231
 918 00e4 84F800C0 		strb	ip, [r4]
  51:../../../libDaisy/src/dev/mpr121.h ****         i2c_conf.mode   = I2CHandle::Config::Mode::I2C_MASTER;
 919              		.loc 7 51 9 is_stmt 1 view .LVU232
 920              	.LVL44:
 921              	.LBB448:
ARM GAS  /var/folders/yw/6_x9gyn52jjg4jtn_wsryx_80000gp/T//cccDMQvQ.s 			page 41


 922              	.LBI445:
 923              		.loc 9 28 12 view .LVU233
 924              		.loc 9 28 12 is_stmt 0 view .LVU234
 925              	.LBE448:
  52:../../../libDaisy/src/dev/mpr121.h ****         i2c_conf.periph = config.periph;
 926              		.loc 7 52 9 is_stmt 1 view .LVU235
  53:../../../libDaisy/src/dev/mpr121.h ****         i2c_conf.speed  = config.speed;
 927              		.loc 7 53 9 view .LVU236
  54:../../../libDaisy/src/dev/mpr121.h **** 
 928              		.loc 7 54 9 view .LVU237
  56:../../../libDaisy/src/dev/mpr121.h ****         i2c_conf.pin_config.sda = config.sda;
 929              		.loc 7 56 9 view .LVU238
  56:../../../libDaisy/src/dev/mpr121.h ****         i2c_conf.pin_config.sda = config.sda;
 930              		.loc 7 56 9 is_stmt 0 view .LVU239
 931              	.LBE455:
 932              	.LBE462:
 933              	.LBE630:
 934              	.LBE657:
 273:../../../libDaisy/src/daisy_core.h **** 
 274:../../../libDaisy/src/daisy_core.h ****     /** @brief checks validity of a Pin 
 275:../../../libDaisy/src/daisy_core.h ****      *  @retval returns true if the port is a valid hardware pin, otherwise false.
 276:../../../libDaisy/src/daisy_core.h ****     */
 277:../../../libDaisy/src/daisy_core.h ****     constexpr bool IsValid() const { return port != PORTX && pin < 16; }
 278:../../../libDaisy/src/daisy_core.h **** 
 279:../../../libDaisy/src/daisy_core.h ****     /** @brief comparison operator for checking equality between Pin objects */
 280:../../../libDaisy/src/daisy_core.h ****     constexpr bool operator==(const Pin &rhs) const
 281:../../../libDaisy/src/daisy_core.h ****     {
 282:../../../libDaisy/src/daisy_core.h ****         return (rhs.port == port) && (rhs.pin == pin);
 283:../../../libDaisy/src/daisy_core.h ****     }
 284:../../../libDaisy/src/daisy_core.h **** 
 285:../../../libDaisy/src/daisy_core.h ****     /** @brief comparison operator for checking inequality between Pin objects */
 286:../../../libDaisy/src/daisy_core.h ****     constexpr bool operator!=(const Pin &rhs) const { return !operator==(rhs); }
 287:../../../libDaisy/src/daisy_core.h **** 
 288:../../../libDaisy/src/daisy_core.h ****     /** @brief conversion operation for converting to the old-style representation
 289:../../../libDaisy/src/daisy_core.h ****      *         of a pin.
 290:../../../libDaisy/src/daisy_core.h ****      * 
 291:../../../libDaisy/src/daisy_core.h ****      *  This allows the new Pin type to be used in place of the older, dsy_gpio_pin
 292:../../../libDaisy/src/daisy_core.h ****      *  type.
 293:../../../libDaisy/src/daisy_core.h ****      */
 294:../../../libDaisy/src/daisy_core.h ****     operator dsy_gpio_pin() const
 295:../../../libDaisy/src/daisy_core.h ****     {
 296:../../../libDaisy/src/daisy_core.h ****         return dsy_pin(static_cast<dsy_gpio_port>(port), pin);
 935              		.loc 10 296 9 is_stmt 1 view .LVU240
 219:../../../libDaisy/src/daisy_core.h ****     p.port = port;
 936              		.loc 10 219 5 view .LVU241
 220:../../../libDaisy/src/daisy_core.h ****     p.pin  = pin;
 937              		.loc 10 220 5 view .LVU242
 221:../../../libDaisy/src/daisy_core.h ****     return p;
 938              		.loc 10 221 5 view .LVU243
 222:../../../libDaisy/src/daisy_core.h **** }
 939              		.loc 10 222 5 view .LVU244
 940              	.LBB658:
 941              	.LBB631:
 942              	.LBB463:
 943              	.LBB456:
  57:../../../libDaisy/src/dev/mpr121.h **** 
 944              		.loc 7 57 9 view .LVU245
ARM GAS  /var/folders/yw/6_x9gyn52jjg4jtn_wsryx_80000gp/T//cccDMQvQ.s 			page 42


  57:../../../libDaisy/src/dev/mpr121.h **** 
 945              		.loc 7 57 9 is_stmt 0 view .LVU246
 946              	.LBE456:
 947              	.LBE463:
 948              	.LBE631:
 949              	.LBE658:
 950              		.loc 10 296 9 is_stmt 1 view .LVU247
 219:../../../libDaisy/src/daisy_core.h ****     p.port = port;
 951              		.loc 10 219 5 view .LVU248
 220:../../../libDaisy/src/daisy_core.h ****     p.pin  = pin;
 952              		.loc 10 220 5 view .LVU249
 221:../../../libDaisy/src/daisy_core.h ****     return p;
 953              		.loc 10 221 5 view .LVU250
 222:../../../libDaisy/src/daisy_core.h **** }
 954              		.loc 10 222 5 view .LVU251
 955              	.LBB659:
 956              	.LBB632:
 957              	.LBB464:
 958              	.LBB457:
 959              	.LBB449:
 960              	.LBB447:
 961              		.loc 9 28 12 is_stmt 0 view .LVU252
 962 00e8 8DF82CB0 		strb	fp, [sp, #44]
 963              	.LBE447:
 964              	.LBE449:
  59:../../../libDaisy/src/dev/mpr121.h ****     }
 965              		.loc 7 59 9 is_stmt 1 view .LVU253
  59:../../../libDaisy/src/dev/mpr121.h ****     }
 966              		.loc 7 59 50 is_stmt 0 view .LVU254
 967 00ec FFF7FEFF 		bl	_ZN5daisy9I2CHandle4InitERKNS0_6ConfigE
 968              	.LVL45:
  59:../../../libDaisy/src/dev/mpr121.h ****     }
 969              		.loc 7 59 50 view .LVU255
 970              	.LBE457:
 971              	.LBE464:
 972              	.LBB465:
 973              	.LBI465:
 974              		.loc 7 343 10 is_stmt 1 view .LVU256
 975              	.LBB466:
 976              		.loc 7 343 55 is_stmt 0 view .LVU257
 977 00f0 95F83030 		ldrb	r3, [r5, #48]	@ zero_extendqisi2
 978              	.LBE466:
 979              	.LBE465:
 122:../../../libDaisy/src/dev/mpr121.h ****         System::Delay(1);
 980              		.loc 7 122 22 view .LVU258
 981 00f4 8021     		movs	r1, #128
 982 00f6 6322     		movs	r2, #99
 983              	.LBB469:
 984              	.LBB467:
 985              		.loc 7 343 55 view .LVU259
 986 00f8 4845     		cmp	r0, r9
 987 00fa 18BF     		it	ne
 988 00fc 43F00103 		orrne	r3, r3, #1
 989              	.LBE467:
 990              	.LBE469:
 122:../../../libDaisy/src/dev/mpr121.h ****         System::Delay(1);
 991              		.loc 7 122 22 view .LVU260
ARM GAS  /var/folders/yw/6_x9gyn52jjg4jtn_wsryx_80000gp/T//cccDMQvQ.s 			page 43


 992 0100 2846     		mov	r0, r5
 993              	.LVL46:
 994              	.LBB470:
 995              	.LBB468:
 996              		.loc 7 343 55 view .LVU261
 997 0102 85F83030 		strb	r3, [r5, #48]
 998              	.LVL47:
 999              		.loc 7 343 55 view .LVU262
 1000              	.LBE468:
 1001              	.LBE470:
 122:../../../libDaisy/src/dev/mpr121.h ****         System::Delay(1);
 1002              		.loc 7 122 22 view .LVU263
 1003 0106 FFF7FEFF 		bl	_ZN5daisy6Mpr121INS_18Mpr121I2CTransportEE13WriteRegisterEhh
 1004              	.LVL48:
 123:../../../libDaisy/src/dev/mpr121.h **** 
 1005              		.loc 7 123 22 view .LVU264
 1006 010a 5046     		mov	r0, r10
 1007 010c FFF7FEFF 		bl	_ZN5daisy6System5DelayEm
 1008              	.LVL49:
 125:../../../libDaisy/src/dev/mpr121.h **** 
 1009              		.loc 7 125 22 view .LVU265
 1010 0110 4A46     		mov	r2, r9
 1011 0112 5E21     		movs	r1, #94
 1012 0114 2846     		mov	r0, r5
 1013 0116 FFF7FEFF 		bl	_ZN5daisy6Mpr121INS_18Mpr121I2CTransportEE13WriteRegisterEhh
 1014              	.LVL50:
 133:../../../libDaisy/src/dev/mpr121.h ****         WriteRegister(MPR121_MHDR, 0x01);
 1015              		.loc 7 133 22 view .LVU266
 1016 011a 95F814B0 		ldrb	fp, [r5, #20]	@ zero_extendqisi2
 1017 011e 95F815A0 		ldrb	r10, [r5, #21]	@ zero_extendqisi2
 1018              	.LVL51:
 1019              	.LBB471:
 1020              	.LBI471:
 177:../../../libDaisy/src/dev/mpr121.h ****     {
 1021              		.loc 7 177 10 is_stmt 1 view .LVU267
 1022              	.LBB472:
 180:../../../libDaisy/src/dev/mpr121.h ****         {
 1023              		.loc 7 180 30 view .LVU268
 1024              	.L25:
 1025              	.LBB473:
 1026              	.LBI473:
 257:../../../libDaisy/src/dev/mpr121.h ****     {
 1027              		.loc 7 257 10 view .LVU269
 1028              	.LBB474:
 1029              	.LBB475:
 1030              	.LBB476:
  66:../../../libDaisy/src/dev/mpr121.h ****     }
 1031              		.loc 7 66 40 is_stmt 0 view .LVU270
 1032 0122 0A24     		movs	r4, #10
 1033              	.LBE476:
 1034              	.LBE475:
 264:../../../libDaisy/src/dev/mpr121.h **** 
 1035              		.loc 7 264 17 view .LVU271
 1036 0124 4FF00009 		mov	r9, #0
 1037 0128 5E27     		movs	r7, #94
 1038              	.LBB479:
 1039              	.LBB477:
ARM GAS  /var/folders/yw/6_x9gyn52jjg4jtn_wsryx_80000gp/T//cccDMQvQ.s 			page 44


  66:../../../libDaisy/src/dev/mpr121.h ****     }
 1040              		.loc 7 66 40 view .LVU272
 1041 012a 0123     		movs	r3, #1
 1042 012c 07AA     		add	r2, sp, #28
 1043 012e 95F82C10 		ldrb	r1, [r5, #44]	@ zero_extendqisi2
 1044 0132 0094     		str	r4, [sp]
 1045 0134 8848     		ldr	r0, .L57+24
 1046              	.LBE477:
 1047              	.LBE479:
 264:../../../libDaisy/src/dev/mpr121.h **** 
 1048              		.loc 7 264 17 view .LVU273
 1049 0136 8DF81D90 		strb	r9, [sp, #29]
 1050 013a 8DF81C70 		strb	r7, [sp, #28]
 1051              	.LVL52:
 1052              	.LBB480:
 1053              	.LBI475:
  63:../../../libDaisy/src/dev/mpr121.h ****     {
 1054              		.loc 7 63 10 is_stmt 1 view .LVU274
 1055              	.LBB478:
  65:../../../libDaisy/src/dev/mpr121.h ****                != i2c_.TransmitBlocking(config_.dev_addr, data, size, 10);
 1056              		.loc 7 65 9 view .LVU275
  66:../../../libDaisy/src/dev/mpr121.h ****     }
 1057              		.loc 7 66 40 is_stmt 0 view .LVU276
 1058 013e FFF7FEFF 		bl	_ZN5daisy9I2CHandle16TransmitBlockingEtPhtm
 1059              	.LVL53:
  66:../../../libDaisy/src/dev/mpr121.h ****     }
 1060              		.loc 7 66 40 view .LVU277
 1061              	.LBE478:
 1062              	.LBE480:
 1063              	.LBB481:
 1064              	.LBI481:
 1065              		.loc 7 343 10 is_stmt 1 view .LVU278
 1066              	.LBB482:
 1067              		.loc 7 343 55 is_stmt 0 view .LVU279
 1068 0142 95F83020 		ldrb	r2, [r5, #48]	@ zero_extendqisi2
 1069              	.LBE482:
 1070              	.LBE481:
 1071              	.LBB485:
 1072              	.LBB486:
  73:../../../libDaisy/src/dev/mpr121.h ****     }
 1073              		.loc 7 73 39 view .LVU280
 1074 0146 0123     		movs	r3, #1
 1075 0148 95F82C10 		ldrb	r1, [r5, #44]	@ zero_extendqisi2
 1076              	.LBE486:
 1077              	.LBE485:
 1078              	.LBB489:
 1079              	.LBB483:
 1080              		.loc 7 343 55 view .LVU281
 1081 014c 4845     		cmp	r0, r9
 1082 014e 18BF     		it	ne
 1083 0150 42F00102 		orrne	r2, r2, #1
 1084              	.LBE483:
 1085              	.LBE489:
 1086              	.LBB490:
 1087              	.LBB487:
  73:../../../libDaisy/src/dev/mpr121.h ****     }
 1088              		.loc 7 73 39 view .LVU282
ARM GAS  /var/folders/yw/6_x9gyn52jjg4jtn_wsryx_80000gp/T//cccDMQvQ.s 			page 45


 1089 0154 0094     		str	r4, [sp]
 1090 0156 8048     		ldr	r0, .L57+24
 1091              	.LVL54:
  73:../../../libDaisy/src/dev/mpr121.h ****     }
 1092              		.loc 7 73 39 view .LVU283
 1093              	.LBE487:
 1094              	.LBE490:
 1095              	.LBB491:
 1096              	.LBB484:
 1097              		.loc 7 343 55 view .LVU284
 1098 0158 85F83020 		strb	r2, [r5, #48]
 1099              	.LVL55:
 1100              		.loc 7 343 55 view .LVU285
 1101              	.LBE484:
 1102              	.LBE491:
 1103              	.LBB492:
 1104              	.LBI485:
  70:../../../libDaisy/src/dev/mpr121.h ****     {
 1105              		.loc 7 70 10 is_stmt 1 view .LVU286
 1106              	.LBB488:
  72:../../../libDaisy/src/dev/mpr121.h ****                != i2c_.ReceiveBlocking(config_.dev_addr, data, size, 10);
 1107              		.loc 7 72 9 view .LVU287
  73:../../../libDaisy/src/dev/mpr121.h ****     }
 1108              		.loc 7 73 39 is_stmt 0 view .LVU288
 1109 015c 02AA     		add	r2, sp, #8
 1110              	.LVL56:
  73:../../../libDaisy/src/dev/mpr121.h ****     }
 1111              		.loc 7 73 39 view .LVU289
 1112 015e FFF7FEFF 		bl	_ZN5daisy9I2CHandle15ReceiveBlockingEtPhtm
 1113              	.LVL57:
  73:../../../libDaisy/src/dev/mpr121.h ****     }
 1114              		.loc 7 73 39 view .LVU290
 1115              	.LBE488:
 1116              	.LBE492:
 1117              	.LBB493:
 1118              	.LBI493:
 1119              		.loc 7 343 10 is_stmt 1 view .LVU291
 1120              	.LBB494:
 1121              		.loc 7 343 55 is_stmt 0 view .LVU292
 1122 0162 95F83020 		ldrb	r2, [r5, #48]	@ zero_extendqisi2
 1123              	.LBE494:
 1124              	.LBE493:
 1125              	.LBB497:
 1126              	.LBB498:
  66:../../../libDaisy/src/dev/mpr121.h ****     }
 1127              		.loc 7 66 40 view .LVU293
 1128 0166 0223     		movs	r3, #2
 1129 0168 95F82C10 		ldrb	r1, [r5, #44]	@ zero_extendqisi2
 1130              	.LBE498:
 1131              	.LBE497:
 1132              	.LBB501:
 1133              	.LBB495:
 1134              		.loc 7 343 55 view .LVU294
 1135 016c 4845     		cmp	r0, r9
 1136 016e 18BF     		it	ne
 1137 0170 42F00102 		orrne	r2, r2, #1
 1138              	.LBE495:
ARM GAS  /var/folders/yw/6_x9gyn52jjg4jtn_wsryx_80000gp/T//cccDMQvQ.s 			page 46


 1139              	.LBE501:
 1140              	.LBB502:
 1141              	.LBB499:
  66:../../../libDaisy/src/dev/mpr121.h ****     }
 1142              		.loc 7 66 40 view .LVU295
 1143 0174 0094     		str	r4, [sp]
 1144 0176 7848     		ldr	r0, .L57+24
 1145              	.LVL58:
  66:../../../libDaisy/src/dev/mpr121.h ****     }
 1146              		.loc 7 66 40 view .LVU296
 1147              	.LBE499:
 1148              	.LBE502:
 1149              	.LBB503:
 1150              	.LBB496:
 1151              		.loc 7 343 55 view .LVU297
 1152 0178 85F83020 		strb	r2, [r5, #48]
 1153              	.LVL59:
 1154              		.loc 7 343 55 view .LVU298
 1155              	.LBE496:
 1156              	.LBE503:
 1157              	.LBB504:
 1158              	.LBI497:
  63:../../../libDaisy/src/dev/mpr121.h ****     {
 1159              		.loc 7 63 10 is_stmt 1 view .LVU299
 1160              	.LBB500:
  65:../../../libDaisy/src/dev/mpr121.h ****                != i2c_.TransmitBlocking(config_.dev_addr, data, size, 10);
 1161              		.loc 7 65 9 view .LVU300
  66:../../../libDaisy/src/dev/mpr121.h ****     }
 1162              		.loc 7 66 40 is_stmt 0 view .LVU301
 1163 017c 07AA     		add	r2, sp, #28
 1164              	.LVL60:
  66:../../../libDaisy/src/dev/mpr121.h ****     }
 1165              		.loc 7 66 40 view .LVU302
 1166 017e FFF7FEFF 		bl	_ZN5daisy9I2CHandle16TransmitBlockingEtPhtm
 1167              	.LVL61:
  66:../../../libDaisy/src/dev/mpr121.h ****     }
 1168              		.loc 7 66 40 view .LVU303
 1169              	.LBE500:
 1170              	.LBE504:
 1171              	.LBB505:
 1172              	.LBI505:
 1173              		.loc 7 343 10 is_stmt 1 view .LVU304
 1174              	.LBB506:
 1175              		.loc 7 343 55 is_stmt 0 view .LVU305
 1176 0182 95F83020 		ldrb	r2, [r5, #48]	@ zero_extendqisi2
 1177              	.LBE506:
 1178              	.LBE505:
 1179              	.LBB509:
 1180              	.LBB510:
  66:../../../libDaisy/src/dev/mpr121.h ****     }
 1181              		.loc 7 66 40 view .LVU306
 1182 0186 0223     		movs	r3, #2
 1183 0188 95F82C10 		ldrb	r1, [r5, #44]	@ zero_extendqisi2
 1184              	.LBE510:
 1185              	.LBE509:
 1186              	.LBB514:
 1187              	.LBB507:
ARM GAS  /var/folders/yw/6_x9gyn52jjg4jtn_wsryx_80000gp/T//cccDMQvQ.s 			page 47


 1188              		.loc 7 343 55 view .LVU307
 1189 018c 4845     		cmp	r0, r9
 1190 018e 18BF     		it	ne
 1191 0190 42F00102 		orrne	r2, r2, #1
 1192              	.LBE507:
 1193              	.LBE514:
 1194              	.LBB515:
 1195              	.LBB511:
  66:../../../libDaisy/src/dev/mpr121.h ****     }
 1196              		.loc 7 66 40 view .LVU308
 1197 0194 0094     		str	r4, [sp]
 1198 0196 7048     		ldr	r0, .L57+24
 1199              	.LVL62:
  66:../../../libDaisy/src/dev/mpr121.h ****     }
 1200              		.loc 7 66 40 view .LVU309
 1201              	.LBE511:
 1202              	.LBE515:
 1203              	.LBB516:
 1204              	.LBB508:
 1205              		.loc 7 343 55 view .LVU310
 1206 0198 85F83020 		strb	r2, [r5, #48]
 1207              	.LVL63:
 1208              		.loc 7 343 55 view .LVU311
 1209              	.LBE508:
 1210              	.LBE516:
 1211              	.LBB517:
 1212              	.LBI509:
  63:../../../libDaisy/src/dev/mpr121.h ****     {
 1213              		.loc 7 63 10 is_stmt 1 view .LVU312
 1214              	.LBB512:
  65:../../../libDaisy/src/dev/mpr121.h ****                != i2c_.TransmitBlocking(config_.dev_addr, data, size, 10);
 1215              		.loc 7 65 9 view .LVU313
  66:../../../libDaisy/src/dev/mpr121.h ****     }
 1216              		.loc 7 66 40 is_stmt 0 view .LVU314
 1217 019c 07AA     		add	r2, sp, #28
 1218              	.LVL64:
  66:../../../libDaisy/src/dev/mpr121.h ****     }
 1219              		.loc 7 66 40 view .LVU315
 1220              	.LBE512:
 1221              	.LBE517:
 281:../../../libDaisy/src/dev/mpr121.h ****         buff[1] = value;
 1222              		.loc 7 281 17 view .LVU316
 1223 019e 8DF81C60 		strb	r6, [sp, #28]
 282:../../../libDaisy/src/dev/mpr121.h ****         SetTransportErr(transport_.Write(buff, 2));
 1224              		.loc 7 282 17 view .LVU317
 1225 01a2 8DF81DB0 		strb	fp, [sp, #29]
 1226              	.LBB518:
 1227              	.LBB513:
  66:../../../libDaisy/src/dev/mpr121.h ****     }
 1228              		.loc 7 66 40 view .LVU318
 1229 01a6 FFF7FEFF 		bl	_ZN5daisy9I2CHandle16TransmitBlockingEtPhtm
 1230              	.LVL65:
  66:../../../libDaisy/src/dev/mpr121.h ****     }
 1231              		.loc 7 66 40 view .LVU319
 1232              	.LBE513:
 1233              	.LBE518:
 1234              	.LBB519:
ARM GAS  /var/folders/yw/6_x9gyn52jjg4jtn_wsryx_80000gp/T//cccDMQvQ.s 			page 48


 1235              	.LBI519:
 1236              		.loc 7 343 10 is_stmt 1 view .LVU320
 1237              	.LBB520:
 1238              		.loc 7 343 55 is_stmt 0 view .LVU321
 1239 01aa 95F83010 		ldrb	r1, [r5, #48]	@ zero_extendqisi2
 1240              	.LBE520:
 1241              	.LBE519:
 1242              	.LBB523:
 1243              	.LBB524:
  66:../../../libDaisy/src/dev/mpr121.h ****     }
 1244              		.loc 7 66 40 view .LVU322
 1245 01ae 07AA     		add	r2, sp, #28
 1246              	.LBE524:
 1247              	.LBE523:
 289:../../../libDaisy/src/dev/mpr121.h ****             SetTransportErr(transport_.Write(buff, 2));
 1248              		.loc 7 289 21 view .LVU323
 1249 01b0 9DF80830 		ldrb	r3, [sp, #8]	@ zero_extendqisi2
 1250              	.LBB529:
 1251              	.LBB521:
 1252              		.loc 7 343 55 view .LVU324
 1253 01b4 4845     		cmp	r0, r9
 1254 01b6 18BF     		it	ne
 1255 01b8 41F00101 		orrne	r1, r1, #1
 1256              	.LBE521:
 1257              	.LBE529:
 1258              	.LBB530:
 1259              	.LBB525:
  66:../../../libDaisy/src/dev/mpr121.h ****     }
 1260              		.loc 7 66 40 view .LVU325
 1261 01bc 0094     		str	r4, [sp]
 1262              	.LBE525:
 1263              	.LBE530:
 289:../../../libDaisy/src/dev/mpr121.h ****             SetTransportErr(transport_.Write(buff, 2));
 1264              		.loc 7 289 21 view .LVU326
 1265 01be 8DF81D30 		strb	r3, [sp, #29]
 1266              	.LBB531:
 1267              	.LBB526:
  66:../../../libDaisy/src/dev/mpr121.h ****     }
 1268              		.loc 7 66 40 view .LVU327
 1269 01c2 0223     		movs	r3, #2
 1270              	.LBE526:
 1271              	.LBE531:
 1272              	.LBB532:
 1273              	.LBB522:
 1274              		.loc 7 343 55 view .LVU328
 1275 01c4 85F83010 		strb	r1, [r5, #48]
 1276              	.LVL66:
 1277              		.loc 7 343 55 view .LVU329
 1278              	.LBE522:
 1279              	.LBE532:
 1280              	.LBB533:
 1281              	.LBI523:
  63:../../../libDaisy/src/dev/mpr121.h ****     {
 1282              		.loc 7 63 10 is_stmt 1 view .LVU330
 1283              	.LBB527:
  65:../../../libDaisy/src/dev/mpr121.h ****                != i2c_.TransmitBlocking(config_.dev_addr, data, size, 10);
 1284              		.loc 7 65 9 view .LVU331
ARM GAS  /var/folders/yw/6_x9gyn52jjg4jtn_wsryx_80000gp/T//cccDMQvQ.s 			page 49


  66:../../../libDaisy/src/dev/mpr121.h ****     }
 1285              		.loc 7 66 40 is_stmt 0 view .LVU332
 1286 01c8 6348     		ldr	r0, .L57+24
 1287 01ca 95F82C10 		ldrb	r1, [r5, #44]	@ zero_extendqisi2
 1288              	.LBE527:
 1289              	.LBE533:
 288:../../../libDaisy/src/dev/mpr121.h ****             buff[1] = ecr_backup;
 1290              		.loc 7 288 21 view .LVU333
 1291 01ce 8DF81C70 		strb	r7, [sp, #28]
 1292              	.LBB534:
 1293              	.LBB528:
  66:../../../libDaisy/src/dev/mpr121.h ****     }
 1294              		.loc 7 66 40 view .LVU334
 1295 01d2 FFF7FEFF 		bl	_ZN5daisy9I2CHandle16TransmitBlockingEtPhtm
 1296              	.LVL67:
  66:../../../libDaisy/src/dev/mpr121.h ****     }
 1297              		.loc 7 66 40 view .LVU335
 1298              	.LBE528:
 1299              	.LBE534:
 1300              	.LBB535:
 1301              	.LBI535:
 1302              		.loc 7 343 10 is_stmt 1 view .LVU336
 1303              	.LBB536:
 1304              		.loc 7 343 55 is_stmt 0 view .LVU337
 1305 01d6 95F83020 		ldrb	r2, [r5, #48]	@ zero_extendqisi2
 1306              	.LBE536:
 1307              	.LBE535:
 1308              	.LBE474:
 1309              	.LBE473:
 1310              	.LBB543:
 1311              	.LBB544:
 1312              	.LBB545:
 1313              	.LBB546:
  66:../../../libDaisy/src/dev/mpr121.h ****     }
 1314              		.loc 7 66 40 view .LVU338
 1315 01da 0123     		movs	r3, #1
 1316 01dc 95F82C10 		ldrb	r1, [r5, #44]	@ zero_extendqisi2
 1317              	.LBE546:
 1318              	.LBE545:
 1319              	.LBE544:
 1320              	.LBE543:
 1321              	.LBB618:
 1322              	.LBB541:
 1323              	.LBB539:
 1324              	.LBB537:
 1325              		.loc 7 343 55 view .LVU339
 1326 01e0 4845     		cmp	r0, r9
 1327 01e2 18BF     		it	ne
 1328 01e4 42F00102 		orrne	r2, r2, #1
 1329              	.LBE537:
 1330              	.LBE539:
 1331              	.LBE541:
 1332              	.LBE618:
 1333              	.LBB619:
 1334              	.LBB613:
 1335              	.LBB550:
 1336              	.LBB547:
ARM GAS  /var/folders/yw/6_x9gyn52jjg4jtn_wsryx_80000gp/T//cccDMQvQ.s 			page 50


  66:../../../libDaisy/src/dev/mpr121.h ****     }
 1337              		.loc 7 66 40 view .LVU340
 1338 01e8 0094     		str	r4, [sp]
 1339 01ea 5B48     		ldr	r0, .L57+24
 1340              	.LVL68:
  66:../../../libDaisy/src/dev/mpr121.h ****     }
 1341              		.loc 7 66 40 view .LVU341
 1342              	.LBE547:
 1343              	.LBE550:
 1344              	.LBE613:
 1345              	.LBE619:
 1346              	.LBB620:
 1347              	.LBB542:
 1348              	.LBB540:
 1349              	.LBB538:
 1350              		.loc 7 343 55 view .LVU342
 1351 01ec 85F83020 		strb	r2, [r5, #48]
 1352              	.LVL69:
 1353              		.loc 7 343 55 view .LVU343
 1354              	.LBE538:
 1355              	.LBE540:
 1356              	.LBE542:
 1357              	.LBE620:
 1358              	.LBB621:
 1359              	.LBI543:
 257:../../../libDaisy/src/dev/mpr121.h ****     {
 1360              		.loc 7 257 10 is_stmt 1 view .LVU344
 1361              	.LBB614:
 1362              	.LBB551:
 1363              	.LBI545:
  63:../../../libDaisy/src/dev/mpr121.h ****     {
 1364              		.loc 7 63 10 view .LVU345
 1365              	.LBB548:
  65:../../../libDaisy/src/dev/mpr121.h ****                != i2c_.TransmitBlocking(config_.dev_addr, data, size, 10);
 1366              		.loc 7 65 9 view .LVU346
  66:../../../libDaisy/src/dev/mpr121.h ****     }
 1367              		.loc 7 66 40 is_stmt 0 view .LVU347
 1368 01f0 07AA     		add	r2, sp, #28
 1369              	.LVL70:
  66:../../../libDaisy/src/dev/mpr121.h ****     }
 1370              		.loc 7 66 40 view .LVU348
 1371              	.LBE548:
 1372              	.LBE551:
 264:../../../libDaisy/src/dev/mpr121.h **** 
 1373              		.loc 7 264 17 view .LVU349
 1374 01f2 8DF81D90 		strb	r9, [sp, #29]
 1375 01f6 8DF81C70 		strb	r7, [sp, #28]
 1376              	.LBB552:
 1377              	.LBB549:
  66:../../../libDaisy/src/dev/mpr121.h ****     }
 1378              		.loc 7 66 40 view .LVU350
 1379 01fa FFF7FEFF 		bl	_ZN5daisy9I2CHandle16TransmitBlockingEtPhtm
 1380              	.LVL71:
  66:../../../libDaisy/src/dev/mpr121.h ****     }
 1381              		.loc 7 66 40 view .LVU351
 1382              	.LBE549:
 1383              	.LBE552:
ARM GAS  /var/folders/yw/6_x9gyn52jjg4jtn_wsryx_80000gp/T//cccDMQvQ.s 			page 51


 1384              	.LBB553:
 1385              	.LBI553:
 1386              		.loc 7 343 10 is_stmt 1 view .LVU352
 1387              	.LBB554:
 1388              		.loc 7 343 55 is_stmt 0 view .LVU353
 1389 01fe 95F83020 		ldrb	r2, [r5, #48]	@ zero_extendqisi2
 1390              	.LBE554:
 1391              	.LBE553:
 1392              	.LBB557:
 1393              	.LBB558:
  73:../../../libDaisy/src/dev/mpr121.h ****     }
 1394              		.loc 7 73 39 view .LVU354
 1395 0202 0123     		movs	r3, #1
 1396 0204 95F82C10 		ldrb	r1, [r5, #44]	@ zero_extendqisi2
 1397              	.LBE558:
 1398              	.LBE557:
 1399              	.LBB561:
 1400              	.LBB555:
 1401              		.loc 7 343 55 view .LVU355
 1402 0208 4845     		cmp	r0, r9
 1403 020a 18BF     		it	ne
 1404 020c 42F00102 		orrne	r2, r2, #1
 1405              	.LBE555:
 1406              	.LBE561:
 1407              	.LBB562:
 1408              	.LBB559:
  73:../../../libDaisy/src/dev/mpr121.h ****     }
 1409              		.loc 7 73 39 view .LVU356
 1410 0210 0094     		str	r4, [sp]
 1411 0212 5148     		ldr	r0, .L57+24
 1412              	.LVL72:
  73:../../../libDaisy/src/dev/mpr121.h ****     }
 1413              		.loc 7 73 39 view .LVU357
 1414              	.LBE559:
 1415              	.LBE562:
 1416              	.LBB563:
 1417              	.LBB556:
 1418              		.loc 7 343 55 view .LVU358
 1419 0214 85F83020 		strb	r2, [r5, #48]
 1420              	.LVL73:
 1421              		.loc 7 343 55 view .LVU359
 1422              	.LBE556:
 1423              	.LBE563:
 1424              	.LBB564:
 1425              	.LBI557:
  70:../../../libDaisy/src/dev/mpr121.h ****     {
 1426              		.loc 7 70 10 is_stmt 1 view .LVU360
 1427              	.LBB560:
  72:../../../libDaisy/src/dev/mpr121.h ****                != i2c_.ReceiveBlocking(config_.dev_addr, data, size, 10);
 1428              		.loc 7 72 9 view .LVU361
  73:../../../libDaisy/src/dev/mpr121.h ****     }
 1429              		.loc 7 73 39 is_stmt 0 view .LVU362
 1430 0218 02AA     		add	r2, sp, #8
 1431              	.LVL74:
  73:../../../libDaisy/src/dev/mpr121.h ****     }
 1432              		.loc 7 73 39 view .LVU363
 1433 021a FFF7FEFF 		bl	_ZN5daisy9I2CHandle15ReceiveBlockingEtPhtm
ARM GAS  /var/folders/yw/6_x9gyn52jjg4jtn_wsryx_80000gp/T//cccDMQvQ.s 			page 52


 1434              	.LVL75:
  73:../../../libDaisy/src/dev/mpr121.h ****     }
 1435              		.loc 7 73 39 view .LVU364
 1436              	.LBE560:
 1437              	.LBE564:
 1438              	.LBB565:
 1439              	.LBI565:
 1440              		.loc 7 343 10 is_stmt 1 view .LVU365
 1441              	.LBB566:
 1442              		.loc 7 343 55 is_stmt 0 view .LVU366
 1443 021e 95F83020 		ldrb	r2, [r5, #48]	@ zero_extendqisi2
 1444              	.LBE566:
 1445              	.LBE565:
 1446              	.LBB569:
 1447              	.LBB570:
  66:../../../libDaisy/src/dev/mpr121.h ****     }
 1448              		.loc 7 66 40 view .LVU367
 1449 0222 0223     		movs	r3, #2
 1450 0224 95F82C10 		ldrb	r1, [r5, #44]	@ zero_extendqisi2
 1451              	.LBE570:
 1452              	.LBE569:
 1453              	.LBB573:
 1454              	.LBB567:
 1455              		.loc 7 343 55 view .LVU368
 1456 0228 4845     		cmp	r0, r9
 1457 022a 18BF     		it	ne
 1458 022c 42F00102 		orrne	r2, r2, #1
 1459              	.LBE567:
 1460              	.LBE573:
 1461              	.LBB574:
 1462              	.LBB571:
  66:../../../libDaisy/src/dev/mpr121.h ****     }
 1463              		.loc 7 66 40 view .LVU369
 1464 0230 0094     		str	r4, [sp]
 1465 0232 4948     		ldr	r0, .L57+24
 1466              	.LVL76:
  66:../../../libDaisy/src/dev/mpr121.h ****     }
 1467              		.loc 7 66 40 view .LVU370
 1468              	.LBE571:
 1469              	.LBE574:
 1470              	.LBB575:
 1471              	.LBB568:
 1472              		.loc 7 343 55 view .LVU371
 1473 0234 85F83020 		strb	r2, [r5, #48]
 1474              	.LVL77:
 1475              		.loc 7 343 55 view .LVU372
 1476              	.LBE568:
 1477              	.LBE575:
 1478              	.LBB576:
 1479              	.LBI569:
  63:../../../libDaisy/src/dev/mpr121.h ****     {
 1480              		.loc 7 63 10 is_stmt 1 view .LVU373
 1481              	.LBB572:
  65:../../../libDaisy/src/dev/mpr121.h ****                != i2c_.TransmitBlocking(config_.dev_addr, data, size, 10);
 1482              		.loc 7 65 9 view .LVU374
  66:../../../libDaisy/src/dev/mpr121.h ****     }
 1483              		.loc 7 66 40 is_stmt 0 view .LVU375
ARM GAS  /var/folders/yw/6_x9gyn52jjg4jtn_wsryx_80000gp/T//cccDMQvQ.s 			page 53


 1484 0238 07AA     		add	r2, sp, #28
 1485              	.LVL78:
  66:../../../libDaisy/src/dev/mpr121.h ****     }
 1486              		.loc 7 66 40 view .LVU376
 1487 023a FFF7FEFF 		bl	_ZN5daisy9I2CHandle16TransmitBlockingEtPhtm
 1488              	.LVL79:
  66:../../../libDaisy/src/dev/mpr121.h ****     }
 1489              		.loc 7 66 40 view .LVU377
 1490              	.LBE572:
 1491              	.LBE576:
 1492              	.LBB577:
 1493              	.LBI577:
 1494              		.loc 7 343 10 is_stmt 1 view .LVU378
 1495              	.LBB578:
 1496              		.loc 7 343 55 is_stmt 0 view .LVU379
 1497 023e 95F83010 		ldrb	r1, [r5, #48]	@ zero_extendqisi2
 1498              	.LBE578:
 1499              	.LBE577:
 281:../../../libDaisy/src/dev/mpr121.h ****         buff[1] = value;
 1500              		.loc 7 281 17 view .LVU380
 1501 0242 731C     		adds	r3, r6, #1
 1502              	.LBB581:
 1503              	.LBB582:
  66:../../../libDaisy/src/dev/mpr121.h ****     }
 1504              		.loc 7 66 40 view .LVU381
 1505 0244 07AA     		add	r2, sp, #28
 1506              	.LBE582:
 1507              	.LBE581:
 1508              	.LBB588:
 1509              	.LBB579:
 1510              		.loc 7 343 55 view .LVU382
 1511 0246 4845     		cmp	r0, r9
 1512 0248 18BF     		it	ne
 1513 024a 41F00101 		orrne	r1, r1, #1
 1514              	.LBE579:
 1515              	.LBE588:
 1516              	.LBB589:
 1517              	.LBB583:
  66:../../../libDaisy/src/dev/mpr121.h ****     }
 1518              		.loc 7 66 40 view .LVU383
 1519 024e 0094     		str	r4, [sp]
 1520              	.LBE583:
 1521              	.LBE589:
 281:../../../libDaisy/src/dev/mpr121.h ****         buff[1] = value;
 1522              		.loc 7 281 17 view .LVU384
 1523 0250 8DF81C30 		strb	r3, [sp, #28]
 1524              	.LBB590:
 1525              	.LBB584:
  66:../../../libDaisy/src/dev/mpr121.h ****     }
 1526              		.loc 7 66 40 view .LVU385
 1527 0254 0223     		movs	r3, #2
 1528              	.LBE584:
 1529              	.LBE590:
 1530              	.LBB591:
 1531              	.LBB580:
 1532              		.loc 7 343 55 view .LVU386
 1533 0256 85F83010 		strb	r1, [r5, #48]
ARM GAS  /var/folders/yw/6_x9gyn52jjg4jtn_wsryx_80000gp/T//cccDMQvQ.s 			page 54


 1534              	.LVL80:
 1535              		.loc 7 343 55 view .LVU387
 1536              	.LBE580:
 1537              	.LBE591:
 1538              	.LBB592:
 1539              	.LBI581:
  63:../../../libDaisy/src/dev/mpr121.h ****     {
 1540              		.loc 7 63 10 is_stmt 1 view .LVU388
 1541              	.LBB585:
  65:../../../libDaisy/src/dev/mpr121.h ****                != i2c_.TransmitBlocking(config_.dev_addr, data, size, 10);
 1542              		.loc 7 65 9 view .LVU389
 1543              	.LBE585:
 1544              	.LBE592:
 1545              	.LBE614:
 1546              	.LBE621:
 180:../../../libDaisy/src/dev/mpr121.h ****         {
 1547              		.loc 7 180 30 is_stmt 0 view .LVU390
 1548 025a 0236     		adds	r6, r6, #2
 1549              	.LVL81:
 1550              	.LBB622:
 1551              	.LBB615:
 1552              	.LBB593:
 1553              	.LBB586:
  66:../../../libDaisy/src/dev/mpr121.h ****     }
 1554              		.loc 7 66 40 view .LVU391
 1555 025c 95F82C10 		ldrb	r1, [r5, #44]	@ zero_extendqisi2
 1556 0260 3D48     		ldr	r0, .L57+24
 1557              	.LBE586:
 1558              	.LBE593:
 1559              	.LBE615:
 1560              	.LBE622:
 180:../../../libDaisy/src/dev/mpr121.h ****         {
 1561              		.loc 7 180 30 view .LVU392
 1562 0262 F6B2     		uxtb	r6, r6
 1563              	.LBB623:
 1564              	.LBB616:
 282:../../../libDaisy/src/dev/mpr121.h ****         SetTransportErr(transport_.Write(buff, 2));
 1565              		.loc 7 282 17 view .LVU393
 1566 0264 8DF81DA0 		strb	r10, [sp, #29]
 1567              	.LBB594:
 1568              	.LBB587:
  66:../../../libDaisy/src/dev/mpr121.h ****     }
 1569              		.loc 7 66 40 view .LVU394
 1570 0268 FFF7FEFF 		bl	_ZN5daisy9I2CHandle16TransmitBlockingEtPhtm
 1571              	.LVL82:
  66:../../../libDaisy/src/dev/mpr121.h ****     }
 1572              		.loc 7 66 40 view .LVU395
 1573              	.LBE587:
 1574              	.LBE594:
 1575              	.LBB595:
 1576              	.LBI595:
 1577              		.loc 7 343 10 is_stmt 1 view .LVU396
 1578              	.LBB596:
 1579              		.loc 7 343 55 is_stmt 0 view .LVU397
 1580 026c 95F83020 		ldrb	r2, [r5, #48]	@ zero_extendqisi2
 1581              	.LBE596:
 1582              	.LBE595:
ARM GAS  /var/folders/yw/6_x9gyn52jjg4jtn_wsryx_80000gp/T//cccDMQvQ.s 			page 55


 1583              	.LBB599:
 1584              	.LBB600:
  66:../../../libDaisy/src/dev/mpr121.h ****     }
 1585              		.loc 7 66 40 view .LVU398
 1586 0270 0223     		movs	r3, #2
 1587              	.LBE600:
 1588              	.LBE599:
 289:../../../libDaisy/src/dev/mpr121.h ****             SetTransportErr(transport_.Write(buff, 2));
 1589              		.loc 7 289 21 view .LVU399
 1590 0272 9DF80810 		ldrb	r1, [sp, #8]	@ zero_extendqisi2
 1591              	.LBB604:
 1592              	.LBB601:
  66:../../../libDaisy/src/dev/mpr121.h ****     }
 1593              		.loc 7 66 40 view .LVU400
 1594 0276 0094     		str	r4, [sp]
 1595              	.LBE601:
 1596              	.LBE604:
 1597              	.LBB605:
 1598              	.LBB597:
 1599              		.loc 7 343 55 view .LVU401
 1600 0278 4845     		cmp	r0, r9
 1601 027a 0CBF     		ite	eq
 1602 027c 1446     		moveq	r4, r2
 1603 027e 42F00104 		orrne	r4, r2, #1
 1604              	.LBE597:
 1605              	.LBE605:
 289:../../../libDaisy/src/dev/mpr121.h ****             SetTransportErr(transport_.Write(buff, 2));
 1606              		.loc 7 289 21 view .LVU402
 1607 0282 8DF81D10 		strb	r1, [sp, #29]
 1608              	.LBB606:
 1609              	.LBB602:
  66:../../../libDaisy/src/dev/mpr121.h ****     }
 1610              		.loc 7 66 40 view .LVU403
 1611 0286 07AA     		add	r2, sp, #28
 1612 0288 95F82C10 		ldrb	r1, [r5, #44]	@ zero_extendqisi2
 1613 028c 3248     		ldr	r0, .L57+24
 1614              	.LVL83:
  66:../../../libDaisy/src/dev/mpr121.h ****     }
 1615              		.loc 7 66 40 view .LVU404
 1616              	.LBE602:
 1617              	.LBE606:
 288:../../../libDaisy/src/dev/mpr121.h ****             buff[1] = ecr_backup;
 1618              		.loc 7 288 21 view .LVU405
 1619 028e 8DF81C70 		strb	r7, [sp, #28]
 1620              	.LBB607:
 1621              	.LBB598:
 1622              		.loc 7 343 55 view .LVU406
 1623 0292 85F83040 		strb	r4, [r5, #48]
 1624              	.LVL84:
 1625              		.loc 7 343 55 view .LVU407
 1626              	.LBE598:
 1627              	.LBE607:
 1628              	.LBB608:
 1629              	.LBI599:
  63:../../../libDaisy/src/dev/mpr121.h ****     {
 1630              		.loc 7 63 10 is_stmt 1 view .LVU408
 1631              	.LBB603:
ARM GAS  /var/folders/yw/6_x9gyn52jjg4jtn_wsryx_80000gp/T//cccDMQvQ.s 			page 56


  65:../../../libDaisy/src/dev/mpr121.h ****                != i2c_.TransmitBlocking(config_.dev_addr, data, size, 10);
 1632              		.loc 7 65 9 view .LVU409
  66:../../../libDaisy/src/dev/mpr121.h ****     }
 1633              		.loc 7 66 40 is_stmt 0 view .LVU410
 1634 0296 FFF7FEFF 		bl	_ZN5daisy9I2CHandle16TransmitBlockingEtPhtm
 1635              	.LVL85:
  66:../../../libDaisy/src/dev/mpr121.h ****     }
 1636              		.loc 7 66 40 view .LVU411
 1637              	.LBE603:
 1638              	.LBE608:
 1639              	.LBB609:
 1640              	.LBI609:
 1641              		.loc 7 343 10 is_stmt 1 view .LVU412
 1642              	.LBB610:
 1643              		.loc 7 343 55 is_stmt 0 view .LVU413
 1644 029a 95F83030 		ldrb	r3, [r5, #48]	@ zero_extendqisi2
 1645 029e 4845     		cmp	r0, r9
 1646 02a0 18BF     		it	ne
 1647 02a2 43F00103 		orrne	r3, r3, #1
 1648              	.LBE610:
 1649              	.LBE609:
 1650              	.LBE616:
 1651              	.LBE623:
 180:../../../libDaisy/src/dev/mpr121.h ****         {
 1652              		.loc 7 180 30 view .LVU414
 1653 02a6 592E     		cmp	r6, #89
 1654              	.LBB624:
 1655              	.LBB617:
 1656              	.LBB612:
 1657              	.LBB611:
 1658              		.loc 7 343 55 view .LVU415
 1659 02a8 85F83030 		strb	r3, [r5, #48]
 1660              	.LVL86:
 1661              		.loc 7 343 55 view .LVU416
 1662              	.LBE611:
 1663              	.LBE612:
 1664              	.LBE617:
 1665              	.LBE624:
 180:../../../libDaisy/src/dev/mpr121.h ****         {
 1666              		.loc 7 180 9 is_stmt 1 view .LVU417
 180:../../../libDaisy/src/dev/mpr121.h ****         {
 1667              		.loc 7 180 30 view .LVU418
 1668 02ac 7FF439AF 		bne	.L25
 1669              	.LVL87:
 180:../../../libDaisy/src/dev/mpr121.h ****         {
 1670              		.loc 7 180 30 is_stmt 0 view .LVU419
 1671              	.LBE472:
 1672              	.LBE471:
 134:../../../libDaisy/src/dev/mpr121.h ****         WriteRegister(MPR121_NHDR, 0x01);
 1673              		.loc 7 134 22 view .LVU420
 1674 02b0 0122     		movs	r2, #1
 1675 02b2 2B21     		movs	r1, #43
 1676 02b4 2348     		ldr	r0, .L57+4
 1677 02b6 FFF7FEFF 		bl	_ZN5daisy6Mpr121INS_18Mpr121I2CTransportEE13WriteRegisterEhh
 1678              	.LVL88:
 135:../../../libDaisy/src/dev/mpr121.h ****         WriteRegister(MPR121_NCLR, 0x0E);
 1679              		.loc 7 135 22 view .LVU421
ARM GAS  /var/folders/yw/6_x9gyn52jjg4jtn_wsryx_80000gp/T//cccDMQvQ.s 			page 57


 1680 02ba 0122     		movs	r2, #1
 1681 02bc 2C21     		movs	r1, #44
 1682 02be 2148     		ldr	r0, .L57+4
 1683 02c0 FFF7FEFF 		bl	_ZN5daisy6Mpr121INS_18Mpr121I2CTransportEE13WriteRegisterEhh
 1684              	.LVL89:
 136:../../../libDaisy/src/dev/mpr121.h ****         WriteRegister(MPR121_FDLR, 0x00);
 1685              		.loc 7 136 22 view .LVU422
 1686 02c4 2D21     		movs	r1, #45
 1687 02c6 1F48     		ldr	r0, .L57+4
 1688 02c8 0E22     		movs	r2, #14
 1689 02ca FFF7FEFF 		bl	_ZN5daisy6Mpr121INS_18Mpr121I2CTransportEE13WriteRegisterEhh
 1690              	.LVL90:
 137:../../../libDaisy/src/dev/mpr121.h **** 
 1691              		.loc 7 137 22 view .LVU423
 1692 02ce 4A46     		mov	r2, r9
 1693 02d0 2E21     		movs	r1, #46
 1694 02d2 1C48     		ldr	r0, .L57+4
 1695 02d4 FFF7FEFF 		bl	_ZN5daisy6Mpr121INS_18Mpr121I2CTransportEE13WriteRegisterEhh
 1696              	.LVL91:
 139:../../../libDaisy/src/dev/mpr121.h ****         WriteRegister(MPR121_NHDF, 0x05);
 1697              		.loc 7 139 22 view .LVU424
 1698 02d8 0122     		movs	r2, #1
 1699 02da 2F21     		movs	r1, #47
 1700 02dc 1948     		ldr	r0, .L57+4
 1701 02de FFF7FEFF 		bl	_ZN5daisy6Mpr121INS_18Mpr121I2CTransportEE13WriteRegisterEhh
 1702              	.LVL92:
 140:../../../libDaisy/src/dev/mpr121.h ****         WriteRegister(MPR121_NCLF, 0x01);
 1703              		.loc 7 140 22 view .LVU425
 1704 02e2 0522     		movs	r2, #5
 1705 02e4 3021     		movs	r1, #48
 1706 02e6 1748     		ldr	r0, .L57+4
 1707 02e8 FFF7FEFF 		bl	_ZN5daisy6Mpr121INS_18Mpr121I2CTransportEE13WriteRegisterEhh
 1708              	.LVL93:
 141:../../../libDaisy/src/dev/mpr121.h ****         WriteRegister(MPR121_FDLF, 0x00);
 1709              		.loc 7 141 22 view .LVU426
 1710 02ec 3121     		movs	r1, #49
 1711 02ee 1548     		ldr	r0, .L57+4
 1712 02f0 0122     		movs	r2, #1
 1713 02f2 FFF7FEFF 		bl	_ZN5daisy6Mpr121INS_18Mpr121I2CTransportEE13WriteRegisterEhh
 1714              	.LVL94:
 142:../../../libDaisy/src/dev/mpr121.h **** 
 1715              		.loc 7 142 22 view .LVU427
 1716 02f6 4A46     		mov	r2, r9
 1717 02f8 3221     		movs	r1, #50
 1718 02fa 1248     		ldr	r0, .L57+4
 1719 02fc FFF7FEFF 		bl	_ZN5daisy6Mpr121INS_18Mpr121I2CTransportEE13WriteRegisterEhh
 1720              	.LVL95:
 144:../../../libDaisy/src/dev/mpr121.h ****         WriteRegister(MPR121_NCLT, 0x00);
 1721              		.loc 7 144 22 view .LVU428
 1722 0300 4A46     		mov	r2, r9
 1723 0302 3321     		movs	r1, #51
 1724 0304 0F48     		ldr	r0, .L57+4
 1725 0306 FFF7FEFF 		bl	_ZN5daisy6Mpr121INS_18Mpr121I2CTransportEE13WriteRegisterEhh
 1726              	.LVL96:
 145:../../../libDaisy/src/dev/mpr121.h ****         WriteRegister(MPR121_FDLT, 0x00);
 1727              		.loc 7 145 22 view .LVU429
 1728 030a 4A46     		mov	r2, r9
ARM GAS  /var/folders/yw/6_x9gyn52jjg4jtn_wsryx_80000gp/T//cccDMQvQ.s 			page 58


 1729 030c 3421     		movs	r1, #52
 1730 030e 0D48     		ldr	r0, .L57+4
 1731 0310 FFF7FEFF 		bl	_ZN5daisy6Mpr121INS_18Mpr121I2CTransportEE13WriteRegisterEhh
 1732              	.LVL97:
 146:../../../libDaisy/src/dev/mpr121.h **** 
 1733              		.loc 7 146 22 view .LVU430
 1734 0314 4A46     		mov	r2, r9
 1735 0316 3521     		movs	r1, #53
 1736 0318 0A48     		ldr	r0, .L57+4
 1737 031a FFF7FEFF 		bl	_ZN5daisy6Mpr121INS_18Mpr121I2CTransportEE13WriteRegisterEhh
 1738              	.LVL98:
 148:../../../libDaisy/src/dev/mpr121.h ****         WriteRegister(MPR121_CONFIG1, 0x10); // default, 16uA charge current
 1739              		.loc 7 148 22 view .LVU431
 1740 031e 4A46     		mov	r2, r9
 1741 0320 5B21     		movs	r1, #91
 1742 0322 0848     		ldr	r0, .L57+4
 1743 0324 FFF7FEFF 		bl	_ZN5daisy6Mpr121INS_18Mpr121I2CTransportEE13WriteRegisterEhh
 1744              	.LVL99:
 149:../../../libDaisy/src/dev/mpr121.h ****         WriteRegister(MPR121_CONFIG2, 0x20); // 0.5uS encoding, 1ms period
 1745              		.loc 7 149 22 view .LVU432
 1746 0328 1022     		movs	r2, #16
 1747 032a 5C21     		movs	r1, #92
 1748 032c 0548     		ldr	r0, .L57+4
 1749 032e FFF7FEFF 		bl	_ZN5daisy6Mpr121INS_18Mpr121I2CTransportEE13WriteRegisterEhh
 1750              	.LVL100:
 150:../../../libDaisy/src/dev/mpr121.h **** 
 1751              		.loc 7 150 22 view .LVU433
 1752 0332 2022     		movs	r2, #32
 1753 0334 5D21     		movs	r1, #93
 1754 0336 0348     		ldr	r0, .L57+4
 1755 0338 FFF7FEFF 		bl	_ZN5daisy6Mpr121INS_18Mpr121I2CTransportEE13WriteRegisterEhh
 1756              	.LVL101:
 1757 033c 10E0     		b	.L58
 1758              	.L59:
 1759 033e 00BF     		.align	2
 1760              	.L57:
 1761 0340 00000000 		.word	.LANCHOR1
 1762 0344 00000000 		.word	.LANCHOR2
 1763 0348 00000000 		.word	_ZL13AudioCallbackPKfPfj
 1764 034c 0000C842 		.word	1120403456
 1765 0350 DB0F4940 		.word	1078530011
 1766 0354 01060107 		.word	117507585
 1767 0358 18000000 		.word	.LANCHOR2+24
 1768 035c 00000000 		.word	.LANCHOR0
 1769              	.L58:
 1770              	.LVL102:
 166:../../../libDaisy/src/dev/mpr121.h ****                       ECR_SETTING); // start with above ECR setting
 1771              		.loc 7 166 22 view .LVU434
 1772 0360 4048     		ldr	r0, .L60
 1773 0362 3946     		mov	r1, r7
 1774 0364 8C22     		movs	r2, #140
 1775 0366 FFF7FEFF 		bl	_ZN5daisy6Mpr121INS_18Mpr121I2CTransportEE13WriteRegisterEhh
 1776              	.LVL103:
 1777              	.LBB625:
 1778              	.LBI625:
 344:../../../libDaisy/src/dev/mpr121.h **** 
 345:../../../libDaisy/src/dev/mpr121.h ****     /** Get the global transport_error_ bool (as a Result), then reset it */
ARM GAS  /var/folders/yw/6_x9gyn52jjg4jtn_wsryx_80000gp/T//cccDMQvQ.s 			page 59


 346:../../../libDaisy/src/dev/mpr121.h ****     Result GetTransportErr()
 1779              		.loc 7 346 12 is_stmt 1 view .LVU435
 1780              	.LBB626:
 347:../../../libDaisy/src/dev/mpr121.h ****     {
 348:../../../libDaisy/src/dev/mpr121.h ****         Result ret       = transport_error_ ? ERR : OK;
 1781              		.loc 7 348 45 is_stmt 0 view .LVU436
 1782 036a 95F83000 		ldrb	r0, [r5, #48]	@ zero_extendqisi2
 1783 036e 0028     		cmp	r0, #0
 1784 0370 56D1     		bne	.L27
 1785              	.LVL104:
 1786              		.loc 7 348 45 view .LVU437
 1787              	.LBE626:
 1788              	.LBE625:
 1789              	.LBE632:
 1790              	.LBE659:
  72:mpr121Test.cpp ****     {
  73:mpr121Test.cpp ****         // Handle initialization error
  74:mpr121Test.cpp ****         while(1)
  75:mpr121Test.cpp ****         {
  76:mpr121Test.cpp ****             // Error handling code (blinking LED, etc.)
  77:mpr121Test.cpp ****         }
  78:mpr121Test.cpp ****     }
  79:mpr121Test.cpp **** 	// Setup to print 
  80:mpr121Test.cpp **** 	hw.StartLog();
 1791              		.loc 8 80 2 is_stmt 1 view .LVU438
 1792              	.LBB660:
 1793              	.LBI660:
 126:../../../libDaisy/src/daisy_seed.h ****     {
 1794              		.loc 1 126 17 view .LVU439
 1795              	.LBB661:
 1796              		.loc 1 128 9 view .LVU440
 1797 0372 3D4F     		ldr	r7, .L60+4
 1798              		.loc 1 128 22 is_stmt 0 view .LVU441
 1799 0374 FFF7FEFF 		bl	_ZN5daisy6LoggerILNS_17LoggerDestinationE1EE8StartLogEb
 1800              	.LVL105:
 1801 0378 3C4E     		ldr	r6, .L60+8
 1802 037a DFF80491 		ldr	r9, .L60+28
 1803              	.LVL106:
 1804              	.L29:
 1805              		.loc 1 128 22 view .LVU442
 1806              	.LBE661:
 1807              	.LBE660:
  81:mpr121Test.cpp **** 
  82:mpr121Test.cpp **** 	while(1) 
 1808              		.loc 8 82 2 is_stmt 1 view .LVU443
 1809              	.LBB662:
  83:mpr121Test.cpp **** 	{
  84:mpr121Test.cpp **** 		// Read touch status
  85:mpr121Test.cpp ****         currTouched = mpr121.Touched();
 1810              		.loc 8 85 9 view .LVU444
 1811              	.LBB663:
 1812              	.LBI663:
 221:../../../libDaisy/src/dev/mpr121.h ****     {
 1813              		.loc 7 221 14 view .LVU445
 1814              	.LBB664:
 1815              	.LBB665:
 1816              	.LBB666:
ARM GAS  /var/folders/yw/6_x9gyn52jjg4jtn_wsryx_80000gp/T//cccDMQvQ.s 			page 60


 1817              	.LBB667:
 1818              	.LBB668:
  66:../../../libDaisy/src/dev/mpr121.h ****     }
 1819              		.loc 7 66 40 is_stmt 0 view .LVU446
 1820 037e 4FF00A0A 		mov	r10, #10
 1821 0382 0024     		movs	r4, #0
 1822 0384 0123     		movs	r3, #1
 1823 0386 02AA     		add	r2, sp, #8
 1824 0388 95F82C10 		ldrb	r1, [r5, #44]	@ zero_extendqisi2
 1825 038c 3848     		ldr	r0, .L60+12
 1826 038e CDF800A0 		str	r10, [sp]
 1827 0392 8DF80840 		strb	r4, [sp, #8]
 1828              	.LVL107:
  66:../../../libDaisy/src/dev/mpr121.h ****     }
 1829              		.loc 7 66 40 view .LVU447
 1830              	.LBE668:
 1831              	.LBE667:
 1832              	.LBE666:
 1833              	.LBI665:
 244:../../../libDaisy/src/dev/mpr121.h ****     {
 1834              		.loc 7 244 14 is_stmt 1 view .LVU448
 1835              	.LBB689:
 1836              	.LBB670:
 1837              	.LBI667:
  63:../../../libDaisy/src/dev/mpr121.h ****     {
 1838              		.loc 7 63 10 view .LVU449
 1839              	.LBB669:
  65:../../../libDaisy/src/dev/mpr121.h ****                != i2c_.TransmitBlocking(config_.dev_addr, data, size, 10);
 1840              		.loc 7 65 9 view .LVU450
  66:../../../libDaisy/src/dev/mpr121.h ****     }
 1841              		.loc 7 66 40 is_stmt 0 view .LVU451
 1842 0396 FFF7FEFF 		bl	_ZN5daisy9I2CHandle16TransmitBlockingEtPhtm
 1843              	.LVL108:
  66:../../../libDaisy/src/dev/mpr121.h ****     }
 1844              		.loc 7 66 40 view .LVU452
 1845              	.LBE669:
 1846              	.LBE670:
 1847              	.LBB671:
 1848              	.LBI671:
 343:../../../libDaisy/src/dev/mpr121.h **** 
 1849              		.loc 7 343 10 is_stmt 1 view .LVU453
 1850              	.LBB672:
 343:../../../libDaisy/src/dev/mpr121.h **** 
 1851              		.loc 7 343 55 is_stmt 0 view .LVU454
 1852 039a 95F83010 		ldrb	r1, [r5, #48]	@ zero_extendqisi2
 1853              	.LBE672:
 1854              	.LBE671:
 1855              	.LBB675:
 1856              	.LBB676:
  73:../../../libDaisy/src/dev/mpr121.h ****     }
 1857              		.loc 7 73 39 view .LVU455
 1858 039e 0223     		movs	r3, #2
 1859 03a0 07AA     		add	r2, sp, #28
 1860 03a2 CDF800A0 		str	r10, [sp]
 1861              	.LBE676:
 1862              	.LBE675:
 1863              	.LBB679:
ARM GAS  /var/folders/yw/6_x9gyn52jjg4jtn_wsryx_80000gp/T//cccDMQvQ.s 			page 61


 1864              	.LBB673:
 343:../../../libDaisy/src/dev/mpr121.h **** 
 1865              		.loc 7 343 55 view .LVU456
 1866 03a6 A042     		cmp	r0, r4
 1867 03a8 18BF     		it	ne
 1868 03aa 41F00101 		orrne	r1, r1, #1
 1869              	.LBE673:
 1870              	.LBE679:
 1871              	.LBB680:
 1872              	.LBB677:
  73:../../../libDaisy/src/dev/mpr121.h ****     }
 1873              		.loc 7 73 39 view .LVU457
 1874 03ae 3048     		ldr	r0, .L60+12
 1875              	.LVL109:
  73:../../../libDaisy/src/dev/mpr121.h ****     }
 1876              		.loc 7 73 39 view .LVU458
 1877              	.LBE677:
 1878              	.LBE680:
 1879              	.LBB681:
 1880              	.LBB674:
 343:../../../libDaisy/src/dev/mpr121.h **** 
 1881              		.loc 7 343 55 view .LVU459
 1882 03b0 85F83010 		strb	r1, [r5, #48]
 1883              	.LVL110:
 343:../../../libDaisy/src/dev/mpr121.h **** 
 1884              		.loc 7 343 55 view .LVU460
 1885              	.LBE674:
 1886              	.LBE681:
 1887              	.LBB682:
 1888              	.LBI675:
  70:../../../libDaisy/src/dev/mpr121.h ****     {
 1889              		.loc 7 70 10 is_stmt 1 view .LVU461
 1890              	.LBB678:
  72:../../../libDaisy/src/dev/mpr121.h ****                != i2c_.ReceiveBlocking(config_.dev_addr, data, size, 10);
 1891              		.loc 7 72 9 view .LVU462
  73:../../../libDaisy/src/dev/mpr121.h ****     }
 1892              		.loc 7 73 39 is_stmt 0 view .LVU463
 1893 03b4 95F82C10 		ldrb	r1, [r5, #44]	@ zero_extendqisi2
 1894 03b8 FFF7FEFF 		bl	_ZN5daisy9I2CHandle15ReceiveBlockingEtPhtm
 1895              	.LVL111:
  73:../../../libDaisy/src/dev/mpr121.h ****     }
 1896              		.loc 7 73 39 view .LVU464
 1897              	.LBE678:
 1898              	.LBE682:
 1899              	.LBB683:
 1900              	.LBI683:
 343:../../../libDaisy/src/dev/mpr121.h **** 
 1901              		.loc 7 343 10 is_stmt 1 view .LVU465
 1902              	.LBB684:
 343:../../../libDaisy/src/dev/mpr121.h **** 
 1903              		.loc 7 343 55 is_stmt 0 view .LVU466
 1904 03bc 95F83020 		ldrb	r2, [r5, #48]	@ zero_extendqisi2
 1905              	.LBE684:
 1906              	.LBE683:
 250:../../../libDaisy/src/dev/mpr121.h ****     }
 1907              		.loc 7 250 16 view .LVU467
 1908 03c0 BDF81C30 		ldrh	r3, [sp, #28]
ARM GAS  /var/folders/yw/6_x9gyn52jjg4jtn_wsryx_80000gp/T//cccDMQvQ.s 			page 62


 1909              	.LBB687:
 1910              	.LBB685:
 343:../../../libDaisy/src/dev/mpr121.h **** 
 1911              		.loc 7 343 55 view .LVU468
 1912 03c4 A042     		cmp	r0, r4
 1913 03c6 18BF     		it	ne
 1914 03c8 42F00102 		orrne	r2, r2, #1
 1915              	.LBE685:
 1916              	.LBE687:
 1917              	.LBE689:
 1918              	.LBE665:
 224:../../../libDaisy/src/dev/mpr121.h ****     }
 1919              		.loc 7 224 20 view .LVU469
 1920 03cc C3F30B03 		ubfx	r3, r3, #0, #12
 1921              	.LBB691:
 1922              	.LBB690:
 1923              	.LBB688:
 1924              	.LBB686:
 343:../../../libDaisy/src/dev/mpr121.h **** 
 1925              		.loc 7 343 55 view .LVU470
 1926 03d0 85F83020 		strb	r2, [r5, #48]
 1927              	.LVL112:
 343:../../../libDaisy/src/dev/mpr121.h **** 
 1928              		.loc 7 343 55 view .LVU471
 1929              	.LBE686:
 1930              	.LBE688:
 1931              	.LBE690:
 1932              	.LBE691:
 1933              	.LBE664:
 1934              	.LBE663:
 1935              		.loc 8 85 21 view .LVU472
 1936 03d4 3B80     		strh	r3, [r7]	@ movhi
  86:mpr121Test.cpp **** 
  87:mpr121Test.cpp ****         // Process the touch status as needed
  88:mpr121Test.cpp ****         for(int i = 0; i < 12; i++)
 1937              		.loc 8 88 9 is_stmt 1 view .LVU473
 1938              	.LVL113:
 1939              	.LBB692:
 1940              		.loc 8 88 26 view .LVU474
 1941 03d6 07E0     		b	.L35
 1942              	.LVL114:
 1943              	.L34:
  89:mpr121Test.cpp ****         {
  90:mpr121Test.cpp ****             if((currTouched & (1 << i)) && !(lastTouched& (1 << i)))
  91:mpr121Test.cpp ****             {
  92:mpr121Test.cpp ****                 // Channel i is touched, print the channel number
  93:mpr121Test.cpp ****                 hw.PrintLine("Channel %d touched", i);
  94:mpr121Test.cpp ****             }
  95:mpr121Test.cpp ****             if(!(currTouched & (1 << i)) && (lastTouched& (1 << i)))
 1944              		.loc 8 95 46 is_stmt 0 view .LVU475
 1945 03d8 3388     		ldrh	r3, [r6]
 1946              		.loc 8 95 57 view .LVU476
 1947 03da 2341     		asrs	r3, r3, r4
 1948              		.loc 8 95 42 view .LVU477
 1949 03dc D807     		lsls	r0, r3, #31
 1950 03de 20D4     		bmi	.L55
 1951              	.L53:
ARM GAS  /var/folders/yw/6_x9gyn52jjg4jtn_wsryx_80000gp/T//cccDMQvQ.s 			page 63


 1952              		.loc 8 95 42 view .LVU478
 1953              	.LBE692:
  96:mpr121Test.cpp ****             {
  97:mpr121Test.cpp ****                 // Channel i is released, print the channel number
  98:mpr121Test.cpp ****                 hw.PrintLine("Channel %d released", i);
  99:mpr121Test.cpp ****             }
 100:mpr121Test.cpp ****         }
 101:mpr121Test.cpp ****         lastTouched = currTouched;
 1954              		.loc 8 101 21 view .LVU479
 1955 03e0 3B88     		ldrh	r3, [r7]
 1956              	.L33:
 1957              	.LBB697:
  88:mpr121Test.cpp ****         {
 1958              		.loc 8 88 9 is_stmt 1 discriminator 2 view .LVU480
 1959 03e2 0134     		adds	r4, r4, #1
 1960              	.LVL115:
  88:mpr121Test.cpp ****         {
 1961              		.loc 8 88 26 discriminator 2 view .LVU481
 1962 03e4 0C2C     		cmp	r4, #12
 1963 03e6 13D0     		beq	.L56
 1964              	.LVL116:
 1965              	.L35:
  90:mpr121Test.cpp ****             {
 1966              		.loc 8 90 13 view .LVU482
  90:mpr121Test.cpp ****             {
 1967              		.loc 8 90 29 is_stmt 0 view .LVU483
 1968 03e8 43FA04F2 		asr	r2, r3, r4
  90:mpr121Test.cpp ****             {
 1969              		.loc 8 90 13 view .LVU484
 1970 03ec D207     		lsls	r2, r2, #31
 1971 03ee F3D5     		bpl	.L34
  90:mpr121Test.cpp ****             {
 1972              		.loc 8 90 46 discriminator 1 view .LVU485
 1973 03f0 3288     		ldrh	r2, [r6]
  90:mpr121Test.cpp ****             {
 1974              		.loc 8 90 44 discriminator 1 view .LVU486
 1975 03f2 2241     		asrs	r2, r2, r4
  90:mpr121Test.cpp ****             {
 1976              		.loc 8 90 41 discriminator 1 view .LVU487
 1977 03f4 D107     		lsls	r1, r2, #31
 1978 03f6 F4D4     		bmi	.L33
  93:mpr121Test.cpp ****             }
 1979              		.loc 8 93 17 is_stmt 1 view .LVU488
 1980              	.LVL117:
 1981              	.LBB693:
 1982              	.LBI693:
 119:../../../libDaisy/src/daisy_seed.h ****     {
 1983              		.loc 1 119 17 view .LVU489
 1984              	.LBB694:
 121:../../../libDaisy/src/daisy_seed.h ****     }
 1985              		.loc 1 121 23 is_stmt 0 view .LVU490
 1986 03f8 2146     		mov	r1, r4
 1987 03fa 1E48     		ldr	r0, .L60+16
 1988 03fc FFF7FEFF 		bl	_ZN5daisy6LoggerILNS_17LoggerDestinationE1EE9PrintLineEPKcz
 1989              	.LVL118:
 121:../../../libDaisy/src/daisy_seed.h ****     }
 1990              		.loc 1 121 23 view .LVU491
ARM GAS  /var/folders/yw/6_x9gyn52jjg4jtn_wsryx_80000gp/T//cccDMQvQ.s 			page 64


 1991              	.LBE694:
 1992              	.LBE693:
  95:mpr121Test.cpp ****             {
 1993              		.loc 8 95 13 is_stmt 1 view .LVU492
  95:mpr121Test.cpp ****             {
 1994              		.loc 8 95 18 is_stmt 0 view .LVU493
 1995 0400 3B88     		ldrh	r3, [r7]
  95:mpr121Test.cpp ****             {
 1996              		.loc 8 95 16 view .LVU494
 1997 0402 43FA04F2 		asr	r2, r3, r4
  95:mpr121Test.cpp ****             {
 1998              		.loc 8 95 13 view .LVU495
 1999 0406 D207     		lsls	r2, r2, #31
 2000 0408 E6D5     		bpl	.L34
  88:mpr121Test.cpp ****         {
 2001              		.loc 8 88 9 is_stmt 1 view .LVU496
 2002 040a 0134     		adds	r4, r4, #1
 2003              	.LVL119:
  88:mpr121Test.cpp ****         {
 2004              		.loc 8 88 26 view .LVU497
 2005 040c 0C2C     		cmp	r4, #12
 2006 040e EBD1     		bne	.L35
 2007              	.L56:
  88:mpr121Test.cpp ****         {
 2008              		.loc 8 88 26 is_stmt 0 view .LVU498
 2009              	.LBE697:
 2010              		.loc 8 101 9 is_stmt 1 view .LVU499
 2011              		.loc 8 101 21 is_stmt 0 view .LVU500
 2012 0410 3380     		strh	r3, [r6]	@ movhi
 102:mpr121Test.cpp **** 
 103:mpr121Test.cpp ****         switch (currTouched)
 2013              		.loc 8 103 9 is_stmt 1 view .LVU501
 2014 0412 052B     		cmp	r3, #5
 2015 0414 B3D8     		bhi	.L29
 2016 0416 DFE803F0 		tbb	[pc, r3]
 2017              	.L37:
 2018 041a 21       		.byte	(.L42-.L37)/2
 2019 041b 1E       		.byte	(.L41-.L37)/2
 2020 041c 1B       		.byte	(.L40-.L37)/2
 2021 041d 18       		.byte	(.L39-.L37)/2
 2022 041e 15       		.byte	(.L38-.L37)/2
 2023 041f 09       		.byte	(.L36-.L37)/2
 2024              	.LVL120:
 2025              		.p2align 1
 2026              	.L27:
 2027              		.loc 8 103 9 is_stmt 0 view .LVU502
 2028              	.LBE662:
  74:mpr121Test.cpp ****         {
 2029              		.loc 8 74 9 is_stmt 1 discriminator 1 view .LVU503
  74:mpr121Test.cpp ****         {
 2030              		.loc 8 74 9 discriminator 1 view .LVU504
  74:mpr121Test.cpp ****         {
 2031              		.loc 8 74 9 discriminator 1 view .LVU505
  74:mpr121Test.cpp ****         {
 2032              		.loc 8 74 9 discriminator 1 view .LVU506
 2033 0420 FEE7     		b	.L27
 2034              	.LVL121:
ARM GAS  /var/folders/yw/6_x9gyn52jjg4jtn_wsryx_80000gp/T//cccDMQvQ.s 			page 65


 2035              	.L55:
 2036              	.LBB701:
 2037              	.LBB698:
  98:mpr121Test.cpp ****             }
 2038              		.loc 8 98 17 view .LVU507
 2039              	.LBB695:
 2040              	.LBI695:
 119:../../../libDaisy/src/daisy_seed.h ****     {
 2041              		.loc 1 119 17 view .LVU508
 2042              	.LBB696:
 121:../../../libDaisy/src/daisy_seed.h ****     }
 2043              		.loc 1 121 23 is_stmt 0 view .LVU509
 2044 0422 2146     		mov	r1, r4
 2045 0424 1448     		ldr	r0, .L60+20
 2046 0426 FFF7FEFF 		bl	_ZN5daisy6LoggerILNS_17LoggerDestinationE1EE9PrintLineEPKcz
 2047              	.LVL122:
 2048 042a D9E7     		b	.L53
 2049              	.LVL123:
 2050              	.L36:
 121:../../../libDaisy/src/daisy_seed.h ****     }
 2051              		.loc 1 121 23 view .LVU510
 2052              	.LBE696:
 2053              	.LBE695:
 2054              	.LBE698:
 104:mpr121Test.cpp ****         {
 105:mpr121Test.cpp ****         case 0:
 106:mpr121Test.cpp ****             osc.SetFreq(scale[0][0]);
 107:mpr121Test.cpp ****             break;
 108:mpr121Test.cpp ****         
 109:mpr121Test.cpp ****         case 1:
 110:mpr121Test.cpp ****             osc.SetFreq(scale[0][1]);
 111:mpr121Test.cpp ****             break;
 112:mpr121Test.cpp ****         case 2:
 113:mpr121Test.cpp ****             osc.SetFreq(scale[0][2]);
 114:mpr121Test.cpp ****             break;
 115:mpr121Test.cpp ****         case 3:
 116:mpr121Test.cpp ****             osc.SetFreq(scale[0][3]);
 117:mpr121Test.cpp ****             break;
 118:mpr121Test.cpp ****         case 4:
 119:mpr121Test.cpp ****             osc.SetFreq(scale[0][5]);
 120:mpr121Test.cpp ****             break;
 121:mpr121Test.cpp ****         case 5:
 2055              		.loc 8 121 9 is_stmt 1 view .LVU511
 122:mpr121Test.cpp ****             osc.SetFreq(scale[0][7]);
 2056              		.loc 8 122 13 view .LVU512
 2057              		.loc 8 122 24 is_stmt 0 view .LVU513
 2058 042c 99ED0E0B 		vldr.64	d0, [r9, #56]
 2059              	.L52:
 2060 0430 B7EEC00B 		vcvt.f32.f64	s0, d0
 2061              	.LVL124:
 2062              	.LBB699:
 2063              	.LBI699:
  60:../../../DaisySP/Source/Synthesis/oscillator.h ****     {
 2064              		.loc 6 60 17 is_stmt 1 view .LVU514
 2065              	.LBB700:
  62:../../../DaisySP/Source/Synthesis/oscillator.h ****         phase_inc_ = CalcPhaseInc(f);
 2066              		.loc 6 62 9 view .LVU515
ARM GAS  /var/folders/yw/6_x9gyn52jjg4jtn_wsryx_80000gp/T//cccDMQvQ.s 			page 66


  63:../../../DaisySP/Source/Synthesis/oscillator.h ****     }
 2067              		.loc 6 63 34 is_stmt 0 view .LVU516
 2068 0434 1148     		ldr	r0, .L60+24
  62:../../../DaisySP/Source/Synthesis/oscillator.h ****         phase_inc_ = CalcPhaseInc(f);
 2069              		.loc 6 62 20 view .LVU517
 2070 0436 88ED020A 		vstr.32	s0, [r8, #8]
  63:../../../DaisySP/Source/Synthesis/oscillator.h ****     }
 2071              		.loc 6 63 9 is_stmt 1 view .LVU518
  63:../../../DaisySP/Source/Synthesis/oscillator.h ****     }
 2072              		.loc 6 63 34 is_stmt 0 view .LVU519
 2073 043a FFF7FEFF 		bl	_ZN7daisysp10Oscillator12CalcPhaseIncEf
 2074              	.LVL125:
  63:../../../DaisySP/Source/Synthesis/oscillator.h ****     }
 2075              		.loc 6 63 20 view .LVU520
 2076 043e 88ED080A 		vstr.32	s0, [r8, #32]
  64:../../../DaisySP/Source/Synthesis/oscillator.h **** 
 2077              		.loc 6 64 5 view .LVU521
 2078 0442 9CE7     		b	.L29
 2079              	.LVL126:
 2080              	.L38:
  64:../../../DaisySP/Source/Synthesis/oscillator.h **** 
 2081              		.loc 6 64 5 view .LVU522
 2082              	.LBE700:
 2083              	.LBE699:
 118:mpr121Test.cpp ****             osc.SetFreq(scale[0][5]);
 2084              		.loc 8 118 9 is_stmt 1 view .LVU523
 119:mpr121Test.cpp ****             break;
 2085              		.loc 8 119 13 view .LVU524
 119:mpr121Test.cpp ****             break;
 2086              		.loc 8 119 24 is_stmt 0 view .LVU525
 2087 0444 99ED0A0B 		vldr.64	d0, [r9, #40]
 2088 0448 F2E7     		b	.L52
 2089              	.L39:
 115:mpr121Test.cpp ****             osc.SetFreq(scale[0][3]);
 2090              		.loc 8 115 9 is_stmt 1 view .LVU526
 116:mpr121Test.cpp ****             break;
 2091              		.loc 8 116 13 view .LVU527
 116:mpr121Test.cpp ****             break;
 2092              		.loc 8 116 24 is_stmt 0 view .LVU528
 2093 044a 99ED060B 		vldr.64	d0, [r9, #24]
 2094 044e EFE7     		b	.L52
 2095              	.L40:
 112:mpr121Test.cpp ****             osc.SetFreq(scale[0][2]);
 2096              		.loc 8 112 9 is_stmt 1 view .LVU529
 113:mpr121Test.cpp ****             break;
 2097              		.loc 8 113 13 view .LVU530
 113:mpr121Test.cpp ****             break;
 2098              		.loc 8 113 24 is_stmt 0 view .LVU531
 2099 0450 99ED040B 		vldr.64	d0, [r9, #16]
 2100 0454 ECE7     		b	.L52
 2101              	.L41:
 109:mpr121Test.cpp ****             osc.SetFreq(scale[0][1]);
 2102              		.loc 8 109 9 is_stmt 1 view .LVU532
 110:mpr121Test.cpp ****             break;
 2103              		.loc 8 110 13 view .LVU533
 110:mpr121Test.cpp ****             break;
 2104              		.loc 8 110 24 is_stmt 0 view .LVU534
ARM GAS  /var/folders/yw/6_x9gyn52jjg4jtn_wsryx_80000gp/T//cccDMQvQ.s 			page 67


 2105 0456 99ED020B 		vldr.64	d0, [r9, #8]
 2106 045a E9E7     		b	.L52
 2107              	.L42:
 105:mpr121Test.cpp ****             osc.SetFreq(scale[0][0]);
 2108              		.loc 8 105 9 is_stmt 1 view .LVU535
 106:mpr121Test.cpp ****             break;
 2109              		.loc 8 106 13 view .LVU536
 106:mpr121Test.cpp ****             break;
 2110              		.loc 8 106 24 is_stmt 0 view .LVU537
 2111 045c 99ED000B 		vldr.64	d0, [r9]
 2112 0460 E6E7     		b	.L52
 2113              	.L61:
 2114 0462 00BF     		.align	2
 2115              	.L60:
 2116 0464 00000000 		.word	.LANCHOR2
 2117 0468 00000000 		.word	.LANCHOR3
 2118 046c 00000000 		.word	.LANCHOR4
 2119 0470 18000000 		.word	.LANCHOR2+24
 2120 0474 00000000 		.word	.LC0
 2121 0478 14000000 		.word	.LC1
 2122 047c 00000000 		.word	.LANCHOR0
 2123 0480 00000000 		.word	.LANCHOR5
 2124              	.LBE701:
 2125              		.cfi_endproc
 2126              	.LFE4790:
 2128              		.section	.text.startup._GLOBAL__sub_I_currTouched,"ax",%progbits
 2129              		.align	1
 2130              		.p2align 2,,3
 2131              		.syntax unified
 2132              		.thumb
 2133              		.thumb_func
 2135              	_GLOBAL__sub_I_currTouched:
 2136              	.LFB5367:
 123:mpr121Test.cpp ****             break;
 124:mpr121Test.cpp ****         default:
 125:mpr121Test.cpp ****             break;
 126:mpr121Test.cpp ****         }
 127:mpr121Test.cpp ****         // Add necessary delay or other code here...
 128:mpr121Test.cpp ****     }
 129:mpr121Test.cpp **** }
 2137              		.loc 8 129 1 is_stmt 1 view -0
 2138              		.cfi_startproc
 2139              		@ args = 0, pretend = 0, frame = 0
 2140              		@ frame_needed = 0, uses_anonymous_args = 0
 2141              	.LBB750:
 2142              	.LBI750:
 2143              		.loc 8 129 1 view .LVU539
 2144              	.LVL127:
 2145              	.LBB751:
 2146              	.LBB752:
 2147              	.LBI752:
  21:../../../libDaisy/src/daisy_seed.h ****     ~DaisySeed() {}
 2148              		.loc 1 21 5 view .LVU540
 2149              	.LBB753:
 2150              	.LBB754:
 2151              	.LBI754:
 2152              		.file 11 "../../../libDaisy/src/per/qspi.h"
ARM GAS  /var/folders/yw/6_x9gyn52jjg4jtn_wsryx_80000gp/T//cccDMQvQ.s 			page 68


   1:../../../libDaisy/src/per/qspi.h **** #ifndef DSY_QSPI
   2:../../../libDaisy/src/per/qspi.h **** #define DSY_QSPI /**< Macro */
   3:../../../libDaisy/src/per/qspi.h **** 
   4:../../../libDaisy/src/per/qspi.h **** #ifndef UNIT_TEST // for unit tests, a dummy implementation
   5:../../../libDaisy/src/per/qspi.h **** 
   6:../../../libDaisy/src/per/qspi.h **** #include <cstdint>
   7:../../../libDaisy/src/per/qspi.h **** #include "daisy_core.h" // Added for dsy_gpio_pin typedef
   8:../../../libDaisy/src/per/qspi.h **** 
   9:../../../libDaisy/src/per/qspi.h **** #define DSY_QSPI_TEXT       \
  10:../../../libDaisy/src/per/qspi.h ****     __attribute__((section( \
  11:../../../libDaisy/src/per/qspi.h ****         ".qspiflash_text"))) /**< used for reading memory in memory_mapped mode. */
  12:../../../libDaisy/src/per/qspi.h **** #define DSY_QSPI_DATA       \
  13:../../../libDaisy/src/per/qspi.h ****     __attribute__((section( \
  14:../../../libDaisy/src/per/qspi.h ****         ".qspiflash_data"))) /**< used for reading memory in memory_mapped mode. */
  15:../../../libDaisy/src/per/qspi.h **** #define DSY_QSPI_BSS        \
  16:../../../libDaisy/src/per/qspi.h ****     __attribute__((section( \
  17:../../../libDaisy/src/per/qspi.h ****         ".qspiflash_bss"))) /**< used for reading memory in memory_mapped mode. */
  18:../../../libDaisy/src/per/qspi.h **** 
  19:../../../libDaisy/src/per/qspi.h **** namespace daisy
  20:../../../libDaisy/src/per/qspi.h **** {
  21:../../../libDaisy/src/per/qspi.h **** /** @addtogroup serial
  22:../../../libDaisy/src/per/qspi.h **** @{
  23:../../../libDaisy/src/per/qspi.h **** */
  24:../../../libDaisy/src/per/qspi.h **** 
  25:../../../libDaisy/src/per/qspi.h **** /** 
  26:../../../libDaisy/src/per/qspi.h ****  Driver for QSPI peripheral to interface with external flash memory. \n 
  27:../../../libDaisy/src/per/qspi.h ****     Currently supported QSPI Devices: \n 
  28:../../../libDaisy/src/per/qspi.h ****     * IS25LP080D
  29:../../../libDaisy/src/per/qspi.h **** */
  30:../../../libDaisy/src/per/qspi.h **** class QSPIHandle
  31:../../../libDaisy/src/per/qspi.h **** {
  32:../../../libDaisy/src/per/qspi.h ****   public:
  33:../../../libDaisy/src/per/qspi.h ****     enum Result
  34:../../../libDaisy/src/per/qspi.h ****     {
  35:../../../libDaisy/src/per/qspi.h ****         OK = 0,
  36:../../../libDaisy/src/per/qspi.h ****         ERR
  37:../../../libDaisy/src/per/qspi.h ****     };
  38:../../../libDaisy/src/per/qspi.h **** 
  39:../../../libDaisy/src/per/qspi.h ****     /** Indicates the current status of the module. 
  40:../../../libDaisy/src/per/qspi.h ****          *  Warnings are indicated by a leading W.
  41:../../../libDaisy/src/per/qspi.h ****          *  Errors are indicated by a leading E and cause an immediate exit.
  42:../../../libDaisy/src/per/qspi.h ****          * 
  43:../../../libDaisy/src/per/qspi.h ****          *  \param GOOD - No errors have been reported.
  44:../../../libDaisy/src/per/qspi.h ****          *  \param E_HAL_ERROR - HAL code did not return HAL_OK.
  45:../../../libDaisy/src/per/qspi.h ****          *  \param E_SWITCHING_MODES - An error was encountered while switching QSPI peripheral mod
  46:../../../libDaisy/src/per/qspi.h ****          *  \param E_INVALID_MODE - QSPI should not be written to while the program is executing fr
  47:../../../libDaisy/src/per/qspi.h ****          */
  48:../../../libDaisy/src/per/qspi.h ****     enum Status
  49:../../../libDaisy/src/per/qspi.h ****     {
  50:../../../libDaisy/src/per/qspi.h ****         GOOD = 0,
  51:../../../libDaisy/src/per/qspi.h ****         E_HAL_ERROR,
  52:../../../libDaisy/src/per/qspi.h ****         E_SWITCHING_MODES,
  53:../../../libDaisy/src/per/qspi.h ****         E_INVALID_MODE,
  54:../../../libDaisy/src/per/qspi.h ****     };
  55:../../../libDaisy/src/per/qspi.h **** 
  56:../../../libDaisy/src/per/qspi.h ****     /** Configuration structure for interfacing with QSPI Driver */
  57:../../../libDaisy/src/per/qspi.h ****     struct Config
ARM GAS  /var/folders/yw/6_x9gyn52jjg4jtn_wsryx_80000gp/T//cccDMQvQ.s 			page 69


  58:../../../libDaisy/src/per/qspi.h ****     {
  59:../../../libDaisy/src/per/qspi.h ****         /** Flash Devices supported. (Both of these are more-or-less the same, just different sizes
  60:../../../libDaisy/src/per/qspi.h ****         enum Device
  61:../../../libDaisy/src/per/qspi.h ****         {
  62:../../../libDaisy/src/per/qspi.h ****             IS25LP080D,  /**< & */
  63:../../../libDaisy/src/per/qspi.h ****             IS25LP064A,  /**< & */
  64:../../../libDaisy/src/per/qspi.h ****             DEVICE_LAST, /**< & */
  65:../../../libDaisy/src/per/qspi.h ****         };
  66:../../../libDaisy/src/per/qspi.h **** 
  67:../../../libDaisy/src/per/qspi.h ****         /** 
  68:../../../libDaisy/src/per/qspi.h ****         Modes of operation.
  69:../../../libDaisy/src/per/qspi.h ****         Memory Mapped mode: QSPI configured so that the QSPI can be
  70:../../../libDaisy/src/per/qspi.h ****         read from starting address 0x90000000. Writing is not
  71:../../../libDaisy/src/per/qspi.h ****         possible in this mode. \n 
  72:../../../libDaisy/src/per/qspi.h ****         Indirect Polling mode: Device driver enabled. 
  73:../../../libDaisy/src/per/qspi.h ****         */
  74:../../../libDaisy/src/per/qspi.h ****         enum Mode
  75:../../../libDaisy/src/per/qspi.h ****         {
  76:../../../libDaisy/src/per/qspi.h ****             MEMORY_MAPPED,    /**< & */
  77:../../../libDaisy/src/per/qspi.h ****             INDIRECT_POLLING, /**< & */
  78:../../../libDaisy/src/per/qspi.h ****             MODE_LAST,
  79:../../../libDaisy/src/per/qspi.h ****         };
  80:../../../libDaisy/src/per/qspi.h **** 
  81:../../../libDaisy/src/per/qspi.h ****         //SCK,  CE# (active low)
  82:../../../libDaisy/src/per/qspi.h ****         struct
  83:../../../libDaisy/src/per/qspi.h ****         {
  84:../../../libDaisy/src/per/qspi.h ****             dsy_gpio_pin io0; /**< & */
  85:../../../libDaisy/src/per/qspi.h ****             dsy_gpio_pin io1; /**< & */
  86:../../../libDaisy/src/per/qspi.h ****             dsy_gpio_pin io2; /**< & */
  87:../../../libDaisy/src/per/qspi.h ****             dsy_gpio_pin io3; /**< & */
  88:../../../libDaisy/src/per/qspi.h ****             dsy_gpio_pin clk; /**< & */
  89:../../../libDaisy/src/per/qspi.h ****             dsy_gpio_pin ncs; /**< & */
  90:../../../libDaisy/src/per/qspi.h ****         } pin_config;
  91:../../../libDaisy/src/per/qspi.h **** 
  92:../../../libDaisy/src/per/qspi.h ****         Device device;
  93:../../../libDaisy/src/per/qspi.h ****         Mode   mode;
  94:../../../libDaisy/src/per/qspi.h ****     };
  95:../../../libDaisy/src/per/qspi.h **** 
  96:../../../libDaisy/src/per/qspi.h ****     /** 
  97:../../../libDaisy/src/per/qspi.h ****         Initializes QSPI peripheral, and Resets, and prepares memory for access.
  98:../../../libDaisy/src/per/qspi.h ****         \param config should be populated with the mode, device and pin_config before calling this 
  99:../../../libDaisy/src/per/qspi.h ****         \return Result::OK or Result::ERR
 100:../../../libDaisy/src/per/qspi.h ****         */
 101:../../../libDaisy/src/per/qspi.h ****     Result Init(const Config& config);
 102:../../../libDaisy/src/per/qspi.h **** 
 103:../../../libDaisy/src/per/qspi.h ****     /** Returns the current config. */
 104:../../../libDaisy/src/per/qspi.h ****     const Config& GetConfig() const;
 105:../../../libDaisy/src/per/qspi.h **** 
 106:../../../libDaisy/src/per/qspi.h ****     // Couldn't this just be called before anything else in init? That
 107:../../../libDaisy/src/per/qspi.h ****     // would make manually calling it unnecessary.
 108:../../../libDaisy/src/per/qspi.h ****     /** 
 109:../../../libDaisy/src/per/qspi.h ****         Deinitializes the peripheral
 110:../../../libDaisy/src/per/qspi.h ****         This should be called before reinitializing QSPI in a different mode.
 111:../../../libDaisy/src/per/qspi.h ****         \return Result::OK or Result::ERR
 112:../../../libDaisy/src/per/qspi.h ****         */
 113:../../../libDaisy/src/per/qspi.h ****     Result DeInit();
 114:../../../libDaisy/src/per/qspi.h **** 
ARM GAS  /var/folders/yw/6_x9gyn52jjg4jtn_wsryx_80000gp/T//cccDMQvQ.s 			page 70


 115:../../../libDaisy/src/per/qspi.h ****     /** 
 116:../../../libDaisy/src/per/qspi.h ****         Writes a single page to to the specified address on the QSPI chip.
 117:../../../libDaisy/src/per/qspi.h ****         For IS25LP*, page size is 256 bytes.
 118:../../../libDaisy/src/per/qspi.h ****         \param address Address to write to
 119:../../../libDaisy/src/per/qspi.h ****         \param size Buffer size
 120:../../../libDaisy/src/per/qspi.h ****         \param buffer Buffer to write
 121:../../../libDaisy/src/per/qspi.h ****         \return Result::OK or Result::ERR
 122:../../../libDaisy/src/per/qspi.h ****         */
 123:../../../libDaisy/src/per/qspi.h ****     Result WritePage(uint32_t address, uint32_t size, uint8_t* buffer);
 124:../../../libDaisy/src/per/qspi.h **** 
 125:../../../libDaisy/src/per/qspi.h ****     /** 
 126:../../../libDaisy/src/per/qspi.h ****         Writes data in buffer to to the QSPI. Starting at address to address+size 
 127:../../../libDaisy/src/per/qspi.h ****         \param address Address to write to
 128:../../../libDaisy/src/per/qspi.h ****         \param size Buffer size
 129:../../../libDaisy/src/per/qspi.h ****         \param buffer Buffer to write
 130:../../../libDaisy/src/per/qspi.h ****         \return Result::OK or Result::ERR
 131:../../../libDaisy/src/per/qspi.h ****         */
 132:../../../libDaisy/src/per/qspi.h ****     Result Write(uint32_t address, uint32_t size, uint8_t* buffer);
 133:../../../libDaisy/src/per/qspi.h **** 
 134:../../../libDaisy/src/per/qspi.h ****     /** 
 135:../../../libDaisy/src/per/qspi.h ****         Erases the area specified on the chip.
 136:../../../libDaisy/src/per/qspi.h ****         Erasures will happen by 4K, 32K or 64K increments.
 137:../../../libDaisy/src/per/qspi.h ****         Smallest erase possible is 4kB at a time. (on IS25LP*)
 138:../../../libDaisy/src/per/qspi.h ****         \param start_addr Address to begin erasing from
 139:../../../libDaisy/src/per/qspi.h ****         \param end_addr  Address to stop erasing at
 140:../../../libDaisy/src/per/qspi.h ****         \return Result::OK or Result::ERR
 141:../../../libDaisy/src/per/qspi.h ****         */
 142:../../../libDaisy/src/per/qspi.h ****     Result Erase(uint32_t start_addr, uint32_t end_addr);
 143:../../../libDaisy/src/per/qspi.h **** 
 144:../../../libDaisy/src/per/qspi.h ****     /**  
 145:../../../libDaisy/src/per/qspi.h ****          Erases a single sector of the chip.  
 146:../../../libDaisy/src/per/qspi.h ****         TODO: Document the size of this function. 
 147:../../../libDaisy/src/per/qspi.h ****         \param address Address of sector to erase
 148:../../../libDaisy/src/per/qspi.h ****         \return Result::OK or Result::ERR
 149:../../../libDaisy/src/per/qspi.h ****         */
 150:../../../libDaisy/src/per/qspi.h ****     Result EraseSector(uint32_t address);
 151:../../../libDaisy/src/per/qspi.h **** 
 152:../../../libDaisy/src/per/qspi.h ****     /** Returns the current class status. Useful for debugging.
 153:../../../libDaisy/src/per/qspi.h ****      *  \returns Status
 154:../../../libDaisy/src/per/qspi.h ****      */
 155:../../../libDaisy/src/per/qspi.h ****     Status GetStatus();
 156:../../../libDaisy/src/per/qspi.h **** 
 157:../../../libDaisy/src/per/qspi.h ****     /** Returns a pointer to the actual memory used 
 158:../../../libDaisy/src/per/qspi.h ****      *  The memory at this address is read-only
 159:../../../libDaisy/src/per/qspi.h ****      *  to write to it use the Write function.
 160:../../../libDaisy/src/per/qspi.h ****      * 
 161:../../../libDaisy/src/per/qspi.h ****      *  \param offset returns the pointer starting this 
 162:../../../libDaisy/src/per/qspi.h ****      *                many bytes into the memory
 163:../../../libDaisy/src/per/qspi.h ****     */
 164:../../../libDaisy/src/per/qspi.h ****     void* GetData(uint32_t offset = 0);
 165:../../../libDaisy/src/per/qspi.h **** 
 166:../../../libDaisy/src/per/qspi.h ****     QSPIHandle() : pimpl_(nullptr) {}
 2153              		.loc 11 166 5 view .LVU541
 2154              	.LBE754:
 2155              	.LBE753:
 2156              	.LBE752:
 2157              	.LBE751:
ARM GAS  /var/folders/yw/6_x9gyn52jjg4jtn_wsryx_80000gp/T//cccDMQvQ.s 			page 71


 2158              	.LBE750:
 2159              		.loc 8 129 1 is_stmt 0 view .LVU542
 2160 0000 10B5     		push	{r4, lr}
 2161              		.cfi_def_cfa_offset 8
 2162              		.cfi_offset 4, -8
 2163              		.cfi_offset 14, -4
 2164              	.LBB817:
 2165              	.LBB815:
 2166              	.LBB772:
 2167              	.LBB770:
 2168              	.LBB759:
 2169              	.LBB755:
 2170              	.LBB756:
 2171              		.loc 11 166 34 view .LVU543
 2172 0002 1248     		ldr	r0, .L64
 2173 0004 0024     		movs	r4, #0
 2174              	.LBE756:
 2175              	.LBE755:
 2176              	.LBE759:
 2177              	.LBE770:
 2178              	.LBE772:
  20:mpr121Test.cpp **** Mpr121I2C mpr121;
 2179              		.loc 8 20 11 view .LVU544
 2180 0006 124A     		ldr	r2, .L64+4
 2181 0008 1249     		ldr	r1, .L64+8
 2182              	.LBB773:
 2183              	.LBB771:
 2184              	.LBB760:
 2185              	.LBB758:
 2186              	.LBB757:
 2187              		.loc 11 166 34 view .LVU545
 2188 000a 0460     		str	r4, [r0]
 2189              	.LVL128:
 2190              		.loc 11 166 34 view .LVU546
 2191              	.LBE757:
 2192              	.LBE758:
 2193              	.LBE760:
 2194              	.LBB761:
 2195              	.LBI761:
  95:../../../libDaisy/src/hid/audio.h ****     ~AudioHandle() {}
 2196              		.loc 5 95 5 is_stmt 1 view .LVU547
 2197              	.LBB762:
 2198              	.LBB763:
  95:../../../libDaisy/src/hid/audio.h ****     ~AudioHandle() {}
 2199              		.loc 5 95 35 is_stmt 0 view .LVU548
 2200 000c 4461     		str	r4, [r0, #20]
 2201              	.LVL129:
  95:../../../libDaisy/src/hid/audio.h ****     ~AudioHandle() {}
 2202              		.loc 5 95 35 view .LVU549
 2203              	.LBE763:
 2204              	.LBE762:
 2205              	.LBE761:
 2206              	.LBB764:
 2207              	.LBI764:
  92:../../../libDaisy/src/per/adc.h ****     ~AdcHandle() {}
 2208              		.loc 4 92 5 is_stmt 1 view .LVU550
  92:../../../libDaisy/src/per/adc.h ****     ~AdcHandle() {}
ARM GAS  /var/folders/yw/6_x9gyn52jjg4jtn_wsryx_80000gp/T//cccDMQvQ.s 			page 72


 2209              		.loc 4 92 5 is_stmt 0 view .LVU551
 2210              	.LBE764:
 2211              	.LBB765:
 2212              	.LBI765:
 2213              		.file 12 "../../../libDaisy/src/per/dac.h"
   1:../../../libDaisy/src/per/dac.h **** #pragma once
   2:../../../libDaisy/src/per/dac.h **** #ifndef DSY_DAC_H
   3:../../../libDaisy/src/per/dac.h **** #define DSY_DAC_H
   4:../../../libDaisy/src/per/dac.h **** 
   5:../../../libDaisy/src/per/dac.h **** #include "daisy_core.h"
   6:../../../libDaisy/src/per/dac.h **** 
   7:../../../libDaisy/src/per/dac.h **** namespace daisy
   8:../../../libDaisy/src/per/dac.h **** {
   9:../../../libDaisy/src/per/dac.h **** /** @brief DAC handle for Built-in DAC Peripheral 
  10:../../../libDaisy/src/per/dac.h ****  *  @ingroup per_analog
  11:../../../libDaisy/src/per/dac.h ****  ** 
  12:../../../libDaisy/src/per/dac.h ****  ** For now only Normal Mode is supported,
  13:../../../libDaisy/src/per/dac.h ****  ** Sample and hold mode provides reduced power consumption, but requires a bit more setup.
  14:../../../libDaisy/src/per/dac.h ****  **
  15:../../../libDaisy/src/per/dac.h ****  ** For now connecting the DAC through other internal peripherals is also not supported.
  16:../../../libDaisy/src/per/dac.h ****  **
  17:../../../libDaisy/src/per/dac.h ****  ** Since the DAC channels have dedicated pins we don't need to pass in a pin config like with
  18:../../../libDaisy/src/per/dac.h ****  ** other modules. However, it is still important to not try to use the DAC pins for anything else.
  19:../../../libDaisy/src/per/dac.h ****  ** DAC Channel 1 is on PA4, and DAC Channel 2 is on PA5
  20:../../../libDaisy/src/per/dac.h ****  ***/
  21:../../../libDaisy/src/per/dac.h **** class DacHandle
  22:../../../libDaisy/src/per/dac.h **** {
  23:../../../libDaisy/src/per/dac.h ****   public:
  24:../../../libDaisy/src/per/dac.h ****     /** Return Values for the DacHandle class */
  25:../../../libDaisy/src/per/dac.h ****     enum class Result
  26:../../../libDaisy/src/per/dac.h ****     {
  27:../../../libDaisy/src/per/dac.h ****         OK,
  28:../../../libDaisy/src/per/dac.h ****         ERR,
  29:../../../libDaisy/src/per/dac.h ****     };
  30:../../../libDaisy/src/per/dac.h **** 
  31:../../../libDaisy/src/per/dac.h ****     /** Selects which channel(s) will be configured for use. */
  32:../../../libDaisy/src/per/dac.h ****     enum class Channel
  33:../../../libDaisy/src/per/dac.h ****     {
  34:../../../libDaisy/src/per/dac.h ****         ONE,
  35:../../../libDaisy/src/per/dac.h ****         TWO,
  36:../../../libDaisy/src/per/dac.h ****         BOTH,
  37:../../../libDaisy/src/per/dac.h ****     };
  38:../../../libDaisy/src/per/dac.h **** 
  39:../../../libDaisy/src/per/dac.h ****     /** Sets the Mode for the DAC channels.
  40:../../../libDaisy/src/per/dac.h ****      **
  41:../../../libDaisy/src/per/dac.h ****      ** Polling mode uses the blocking mode to transmit a single value at a time.
  42:../../../libDaisy/src/per/dac.h ****      **
  43:../../../libDaisy/src/per/dac.h ****      ** DMA mode uses a buffer, and periodically transmits it triggering a 
  44:../../../libDaisy/src/per/dac.h ****      ** callback to fill the buffer when it is ready for more samples.
  45:../../../libDaisy/src/per/dac.h ****      ***/
  46:../../../libDaisy/src/per/dac.h ****     enum class Mode
  47:../../../libDaisy/src/per/dac.h ****     {
  48:../../../libDaisy/src/per/dac.h ****         POLLING,
  49:../../../libDaisy/src/per/dac.h ****         DMA,
  50:../../../libDaisy/src/per/dac.h ****     };
  51:../../../libDaisy/src/per/dac.h **** 
  52:../../../libDaisy/src/per/dac.h ****     /** Sets the number of bits per sample transmitted out of the DAC.
ARM GAS  /var/folders/yw/6_x9gyn52jjg4jtn_wsryx_80000gp/T//cccDMQvQ.s 			page 73


  53:../../../libDaisy/src/per/dac.h ****      ** The output range will be: 0V - VDDA
  54:../../../libDaisy/src/per/dac.h ****      ** The resolution will be roughly: bitdepth / (VDDA - 0V) 
  55:../../../libDaisy/src/per/dac.h ****      ***/
  56:../../../libDaisy/src/per/dac.h ****     enum class BitDepth
  57:../../../libDaisy/src/per/dac.h ****     {
  58:../../../libDaisy/src/per/dac.h ****         BITS_8,
  59:../../../libDaisy/src/per/dac.h ****         BITS_12
  60:../../../libDaisy/src/per/dac.h ****     };
  61:../../../libDaisy/src/per/dac.h **** 
  62:../../../libDaisy/src/per/dac.h ****     /** Sets whether the DAC output is buffered for higher drive ability. */
  63:../../../libDaisy/src/per/dac.h ****     enum class BufferState
  64:../../../libDaisy/src/per/dac.h ****     {
  65:../../../libDaisy/src/per/dac.h ****         ENABLED,
  66:../../../libDaisy/src/per/dac.h ****         DISABLED,
  67:../../../libDaisy/src/per/dac.h ****     };
  68:../../../libDaisy/src/per/dac.h **** 
  69:../../../libDaisy/src/per/dac.h ****     /** Configuration structure for initializing the DAC structure. */
  70:../../../libDaisy/src/per/dac.h ****     struct Config
  71:../../../libDaisy/src/per/dac.h ****     {
  72:../../../libDaisy/src/per/dac.h ****         /** Target Samplerate in Hz used to configure the internal 
  73:../../../libDaisy/src/per/dac.h ****          ** timebase for DMA mode. Does nothing in POLLING mode.
  74:../../../libDaisy/src/per/dac.h ****          ** If the value is 0 at Init time this will default to 48000Hz 
  75:../../../libDaisy/src/per/dac.h ****          ** otherwise the driver will attempt meet the target.*/
  76:../../../libDaisy/src/per/dac.h ****         uint32_t target_samplerate;
  77:../../../libDaisy/src/per/dac.h **** 
  78:../../../libDaisy/src/per/dac.h ****         Channel     chn;
  79:../../../libDaisy/src/per/dac.h ****         Mode        mode;
  80:../../../libDaisy/src/per/dac.h ****         BitDepth    bitdepth;
  81:../../../libDaisy/src/per/dac.h ****         BufferState buff_state;
  82:../../../libDaisy/src/per/dac.h ****     };
  83:../../../libDaisy/src/per/dac.h **** 
  84:../../../libDaisy/src/per/dac.h ****     DacHandle() : pimpl_(nullptr) {}
 2214              		.loc 12 84 5 is_stmt 1 view .LVU552
 2215              	.LBB766:
 2216              	.LBB767:
 2217              		.loc 12 84 33 is_stmt 0 view .LVU553
 2218 000e 0462     		str	r4, [r0, #32]
 2219              	.LVL130:
 2220              		.loc 12 84 33 view .LVU554
 2221              	.LBE767:
 2222              	.LBE766:
 2223              	.LBE765:
 2224              	.LBB768:
 2225              	.LBI768:
  40:../../../libDaisy/src/hid/usb.h **** 
 2226              		.loc 3 40 5 is_stmt 1 view .LVU555
  40:../../../libDaisy/src/hid/usb.h **** 
 2227              		.loc 3 40 5 is_stmt 0 view .LVU556
 2228              	.LBE768:
 2229              	.LBB769:
 2230              	.LBI769:
  77:../../../libDaisy/src/sys/system.h ****     ~System() {}
 2231              		.loc 2 77 5 is_stmt 1 view .LVU557
  77:../../../libDaisy/src/sys/system.h ****     ~System() {}
 2232              		.loc 2 77 5 is_stmt 0 view .LVU558
 2233              	.LBE769:
 2234              	.LBE771:
ARM GAS  /var/folders/yw/6_x9gyn52jjg4jtn_wsryx_80000gp/T//cccDMQvQ.s 			page 74


 2235              	.LBE773:
  20:mpr121Test.cpp **** Mpr121I2C mpr121;
 2236              		.loc 8 20 11 view .LVU559
 2237 0010 FFF7FEFF 		bl	__aeabi_atexit
 2238              	.LVL131:
 2239              	.LBB774:
 2240              	.LBI774:
  90:../../../libDaisy/src/dev/mpr121.h ****     ~Mpr121() {}
 2241              		.loc 7 90 5 is_stmt 1 view .LVU560
 2242              	.LBB775:
 2243              	.LBB776:
 2244              	.LBI776:
  99:../../../libDaisy/src/dev/mpr121.h ****         {
 2245              		.loc 7 99 9 view .LVU561
 2246              	.LBB777:
 2247              	.LBB778:
 2248              	.LBI778:
  34:../../../libDaisy/src/dev/mpr121.h ****         {
 2249              		.loc 7 34 9 view .LVU562
 2250              	.LBB779:
 2251              	.LBB780:
 2252              	.LBB781:
 2253              	.LBI781:
 272:../../../libDaisy/src/daisy_core.h **** 
 2254              		.loc 10 272 15 view .LVU563
 272:../../../libDaisy/src/daisy_core.h **** 
 2255              		.loc 10 272 15 is_stmt 0 view .LVU564
 2256              	.LBE781:
 2257              	.LBB782:
 2258              	.LBI782:
 272:../../../libDaisy/src/daisy_core.h **** 
 2259              		.loc 10 272 15 is_stmt 1 view .LVU565
 272:../../../libDaisy/src/daisy_core.h **** 
 2260              		.loc 10 272 15 is_stmt 0 view .LVU566
 2261              	.LBE782:
  36:../../../libDaisy/src/dev/mpr121.h ****             speed  = I2CHandle::Config::Speed::I2C_400KHZ;
 2262              		.loc 7 36 13 is_stmt 1 view .LVU567
  37:../../../libDaisy/src/dev/mpr121.h **** 
 2263              		.loc 7 37 13 view .LVU568
  39:../../../libDaisy/src/dev/mpr121.h ****             sda = Pin(PORTB, 9);
 2264              		.loc 7 39 13 view .LVU569
 2265              	.LBB783:
 2266              	.LBI783:
 269:../../../libDaisy/src/daisy_core.h **** 
 2267              		.loc 10 269 15 view .LVU570
 269:../../../libDaisy/src/daisy_core.h **** 
 2268              		.loc 10 269 15 is_stmt 0 view .LVU571
 2269              	.LBE783:
  40:../../../libDaisy/src/dev/mpr121.h **** 
 2270              		.loc 7 40 13 is_stmt 1 view .LVU572
 2271              	.LBB784:
 2272              	.LBI784:
 269:../../../libDaisy/src/daisy_core.h **** 
 2273              		.loc 10 269 15 view .LVU573
 269:../../../libDaisy/src/daisy_core.h **** 
 2274              		.loc 10 269 15 is_stmt 0 view .LVU574
 2275              	.LBE784:
ARM GAS  /var/folders/yw/6_x9gyn52jjg4jtn_wsryx_80000gp/T//cccDMQvQ.s 			page 75


  42:../../../libDaisy/src/dev/mpr121.h ****         }
 2276              		.loc 7 42 13 is_stmt 1 view .LVU575
  42:../../../libDaisy/src/dev/mpr121.h ****         }
 2277              		.loc 7 42 13 is_stmt 0 view .LVU576
 2278              	.LBE780:
 2279              	.LBE779:
 2280              	.LBE778:
 2281              	.LBE777:
 2282              	.LBE776:
 2283              	.LBB793:
 2284              	.LBI793:
  20:../../../libDaisy/src/dev/mpr121.h ****     ~Mpr121I2CTransport() {}
 2285              		.loc 7 20 5 is_stmt 1 view .LVU577
 2286              	.LBB794:
 2287              	.LBB795:
 2288              	.LBI795:
  29:../../../libDaisy/src/per/i2c.h ****     {
  30:../../../libDaisy/src/per/i2c.h ****         /** Specifies whether the interface will operate in master or slave mode. */
  31:../../../libDaisy/src/per/i2c.h ****         enum class Mode
  32:../../../libDaisy/src/per/i2c.h ****         {
  33:../../../libDaisy/src/per/i2c.h ****             I2C_MASTER,
  34:../../../libDaisy/src/per/i2c.h ****             I2C_SLAVE,
  35:../../../libDaisy/src/per/i2c.h ****         };
  36:../../../libDaisy/src/per/i2c.h **** 
  37:../../../libDaisy/src/per/i2c.h ****         /** Specifices the internal peripheral to use (these are mapped to different pins on the ha
  38:../../../libDaisy/src/per/i2c.h ****         enum class Peripheral
  39:../../../libDaisy/src/per/i2c.h ****         {
  40:../../../libDaisy/src/per/i2c.h ****             I2C_1 = 0, /**< & */
  41:../../../libDaisy/src/per/i2c.h ****             I2C_2,     /**< & */
  42:../../../libDaisy/src/per/i2c.h ****             I2C_3,     /**< & */
  43:../../../libDaisy/src/per/i2c.h ****             I2C_4,     /**< & */
  44:../../../libDaisy/src/per/i2c.h ****         };
  45:../../../libDaisy/src/per/i2c.h **** 
  46:../../../libDaisy/src/per/i2c.h ****         /** Rate at which the clock/data will be sent/received. The device being used will have max
  47:../../../libDaisy/src/per/i2c.h ****          *  1MHZ Mode is currently 886kHz
  48:../../../libDaisy/src/per/i2c.h ****          */
  49:../../../libDaisy/src/per/i2c.h ****         enum class Speed
  50:../../../libDaisy/src/per/i2c.h ****         {
  51:../../../libDaisy/src/per/i2c.h ****             I2C_100KHZ, /**< & */
  52:../../../libDaisy/src/per/i2c.h ****             I2C_400KHZ, /**< & */
  53:../../../libDaisy/src/per/i2c.h ****             I2C_1MHZ,   /**< & */
  54:../../../libDaisy/src/per/i2c.h ****         };
  55:../../../libDaisy/src/per/i2c.h **** 
  56:../../../libDaisy/src/per/i2c.h ****         Peripheral periph; /**< & */
  57:../../../libDaisy/src/per/i2c.h ****         struct
  58:../../../libDaisy/src/per/i2c.h ****         {
  59:../../../libDaisy/src/per/i2c.h ****             dsy_gpio_pin scl; /**< & */
  60:../../../libDaisy/src/per/i2c.h ****             dsy_gpio_pin sda; /**< & */
  61:../../../libDaisy/src/per/i2c.h ****         } pin_config;         /**< & */
  62:../../../libDaisy/src/per/i2c.h **** 
  63:../../../libDaisy/src/per/i2c.h ****         Speed speed; /**< & */
  64:../../../libDaisy/src/per/i2c.h ****         Mode  mode;  /**< & */
  65:../../../libDaisy/src/per/i2c.h ****         // 0x10 is chosen as a default to avoid conflicts with reserved addresses
  66:../../../libDaisy/src/per/i2c.h ****         uint8_t address = 0x10; /**< & */
  67:../../../libDaisy/src/per/i2c.h ****     };
  68:../../../libDaisy/src/per/i2c.h **** 
  69:../../../libDaisy/src/per/i2c.h ****     /** Return values for I2C functions. */
ARM GAS  /var/folders/yw/6_x9gyn52jjg4jtn_wsryx_80000gp/T//cccDMQvQ.s 			page 76


  70:../../../libDaisy/src/per/i2c.h ****     enum class Result
  71:../../../libDaisy/src/per/i2c.h ****     {
  72:../../../libDaisy/src/per/i2c.h ****         OK, /**< & */
  73:../../../libDaisy/src/per/i2c.h ****         ERR /**< & */
  74:../../../libDaisy/src/per/i2c.h ****     };
  75:../../../libDaisy/src/per/i2c.h **** 
  76:../../../libDaisy/src/per/i2c.h ****     enum class Direction
  77:../../../libDaisy/src/per/i2c.h ****     {
  78:../../../libDaisy/src/per/i2c.h ****         TRANSMIT, /**< & */
  79:../../../libDaisy/src/per/i2c.h ****         RECEIVE,  /**< & */
  80:../../../libDaisy/src/per/i2c.h ****     };
  81:../../../libDaisy/src/per/i2c.h **** 
  82:../../../libDaisy/src/per/i2c.h ****     I2CHandle() : pimpl_(nullptr) {}
 2289              		.loc 9 82 5 view .LVU578
 2290              		.loc 9 82 5 is_stmt 0 view .LVU579
 2291              	.LBE795:
 2292              	.LBB796:
 2293              	.LBI796:
  34:../../../libDaisy/src/dev/mpr121.h ****         {
 2294              		.loc 7 34 9 is_stmt 1 view .LVU580
 2295              	.LBB797:
 2296              	.LBB798:
 2297              	.LBB799:
 2298              	.LBI799:
 272:../../../libDaisy/src/daisy_core.h **** 
 2299              		.loc 10 272 15 view .LVU581
 272:../../../libDaisy/src/daisy_core.h **** 
 2300              		.loc 10 272 15 is_stmt 0 view .LVU582
 2301              	.LBE799:
 2302              	.LBB800:
 2303              	.LBI800:
 272:../../../libDaisy/src/daisy_core.h **** 
 2304              		.loc 10 272 15 is_stmt 1 view .LVU583
 272:../../../libDaisy/src/daisy_core.h **** 
 2305              		.loc 10 272 15 is_stmt 0 view .LVU584
 2306              	.LBE800:
  36:../../../libDaisy/src/dev/mpr121.h ****             speed  = I2CHandle::Config::Speed::I2C_400KHZ;
 2307              		.loc 7 36 13 is_stmt 1 view .LVU585
  37:../../../libDaisy/src/dev/mpr121.h **** 
 2308              		.loc 7 37 13 view .LVU586
  39:../../../libDaisy/src/dev/mpr121.h ****             sda = Pin(PORTB, 9);
 2309              		.loc 7 39 13 view .LVU587
 2310              	.LBB801:
 2311              	.LBI801:
 269:../../../libDaisy/src/daisy_core.h **** 
 2312              		.loc 10 269 15 view .LVU588
 269:../../../libDaisy/src/daisy_core.h **** 
 2313              		.loc 10 269 15 is_stmt 0 view .LVU589
 2314              	.LBE801:
  40:../../../libDaisy/src/dev/mpr121.h **** 
 2315              		.loc 7 40 13 is_stmt 1 view .LVU590
 2316              	.LBB802:
 2317              	.LBI802:
 269:../../../libDaisy/src/daisy_core.h **** 
 2318              		.loc 10 269 15 view .LVU591
 269:../../../libDaisy/src/daisy_core.h **** 
 2319              		.loc 10 269 15 is_stmt 0 view .LVU592
ARM GAS  /var/folders/yw/6_x9gyn52jjg4jtn_wsryx_80000gp/T//cccDMQvQ.s 			page 77


 2320              	.LBE802:
  42:../../../libDaisy/src/dev/mpr121.h ****         }
 2321              		.loc 7 42 13 is_stmt 1 view .LVU593
 2322              	.LBE798:
 2323              	.LBE797:
 2324              	.LBE796:
 2325              	.LBE794:
 2326              	.LBE793:
 2327              	.LBB807:
 2328              	.LBB791:
 2329              	.LBB789:
 2330              	.LBB787:
 2331              	.LBB785:
  36:../../../libDaisy/src/dev/mpr121.h ****             speed  = I2CHandle::Config::Speed::I2C_400KHZ;
 2332              		.loc 7 36 20 is_stmt 0 view .LVU594
 2333 0014 1048     		ldr	r0, .L64+12
  37:../../../libDaisy/src/dev/mpr121.h **** 
 2334              		.loc 7 37 20 view .LVU595
 2335 0016 0121     		movs	r1, #1
 2336              	.LBE785:
 2337              	.LBE787:
 2338              	.LBE789:
 2339              	.LBE791:
 2340              	.LBE807:
  90:../../../libDaisy/src/dev/mpr121.h ****     ~Mpr121() {}
 2341              		.loc 7 90 5 view .LVU596
 2342 0018 104B     		ldr	r3, .L64+16
 2343              	.LBE775:
 2344              	.LBE774:
  21:mpr121Test.cpp **** Oscillator osc;
 2345              		.loc 8 21 11 view .LVU597
 2346 001a 0D4A     		ldr	r2, .L64+4
 2347              	.LBB812:
 2348              	.LBB810:
 2349              	.LBB808:
 2350              	.LBB792:
 2351              	.LBB790:
 2352              	.LBB788:
 2353              	.LBB786:
  36:../../../libDaisy/src/dev/mpr121.h ****             speed  = I2CHandle::Config::Speed::I2C_400KHZ;
 2354              		.loc 7 36 20 view .LVU598
 2355 001c 0460     		str	r4, [r0]
 2356              	.LBE786:
 2357              	.LBE788:
 2358              	.LBE790:
 2359              	.LBE792:
 2360              	.LBE808:
  90:../../../libDaisy/src/dev/mpr121.h ****     ~Mpr121() {}
 2361              		.loc 7 90 5 view .LVU599
 2362 001e C0E90113 		strd	r1, r3, [r0, #4]
 2363 0022 C0E90813 		strd	r1, r3, [r0, #32]
 2364 0026 5A23     		movs	r3, #90
 2365              	.LBE810:
 2366              	.LBE812:
  21:mpr121Test.cpp **** Oscillator osc;
 2367              		.loc 8 21 11 view .LVU600
 2368 0028 0D49     		ldr	r1, .L64+20
ARM GAS  /var/folders/yw/6_x9gyn52jjg4jtn_wsryx_80000gp/T//cccDMQvQ.s 			page 78


 2369              	.LBB813:
 2370              	.LBB811:
  90:../../../libDaisy/src/dev/mpr121.h ****     ~Mpr121() {}
 2371              		.loc 7 90 5 view .LVU601
 2372 002a 0361     		str	r3, [r0, #16]
 2373 002c C362     		str	r3, [r0, #44]
 2374              	.LVL132:
  90:../../../libDaisy/src/dev/mpr121.h ****     ~Mpr121() {}
 2375              		.loc 7 90 5 view .LVU602
 2376 002e 40F20C63 		movw	r3, #1548
 2377              	.LBB809:
 2378              	.LBB806:
 2379              	.LBB805:
 2380              	.LBB804:
 2381              	.LBB803:
  36:../../../libDaisy/src/dev/mpr121.h ****             speed  = I2CHandle::Config::Speed::I2C_400KHZ;
 2382              		.loc 7 36 20 view .LVU603
 2383 0032 C0E90644 		strd	r4, r4, [r0, #24]
 2384              	.LBE803:
 2385              	.LBE804:
 2386              	.LBE805:
 2387              	.LBE806:
 2388              	.LBE809:
  90:../../../libDaisy/src/dev/mpr121.h ****     ~Mpr121() {}
 2389              		.loc 7 90 5 view .LVU604
 2390 0036 4361     		str	r3, [r0, #20]
 2391              	.LBE811:
 2392              	.LBE813:
  21:mpr121Test.cpp **** Oscillator osc;
 2393              		.loc 8 21 11 view .LVU605
 2394 0038 FFF7FEFF 		bl	__aeabi_atexit
 2395              	.LVL133:
 2396              	.LBB814:
 2397              	.LBI814:
  15:../../../DaisySP/Source/Synthesis/oscillator.h ****     ~Oscillator() {}
 2398              		.loc 6 15 5 is_stmt 1 view .LVU606
  15:../../../DaisySP/Source/Synthesis/oscillator.h ****     ~Oscillator() {}
 2399              		.loc 6 15 5 is_stmt 0 view .LVU607
 2400              	.LBE814:
  22:mpr121Test.cpp **** 
 2401              		.loc 8 22 12 view .LVU608
 2402 003c 044A     		ldr	r2, .L64+4
 2403 003e 0949     		ldr	r1, .L64+24
 2404 0040 0948     		ldr	r0, .L64+28
 2405              	.LBE815:
 2406              	.LBE817:
 2407              		.loc 8 129 1 view .LVU609
 2408 0042 BDE81040 		pop	{r4, lr}
 2409              		.cfi_restore 14
 2410              		.cfi_restore 4
 2411              		.cfi_def_cfa_offset 0
 2412              	.LBB818:
 2413              	.LBB816:
  22:mpr121Test.cpp **** 
 2414              		.loc 8 22 12 view .LVU610
 2415 0046 FFF7FEBF 		b	__aeabi_atexit
 2416              	.LVL134:
ARM GAS  /var/folders/yw/6_x9gyn52jjg4jtn_wsryx_80000gp/T//cccDMQvQ.s 			page 79


 2417              	.L65:
 2418 004a 00BF     		.align	2
 2419              	.L64:
 2420 004c 00000000 		.word	.LANCHOR1
 2421 0050 00000000 		.word	__dso_handle
 2422 0054 00000000 		.word	_ZN5daisy9DaisySeedD1Ev
 2423 0058 00000000 		.word	.LANCHOR2
 2424 005c 01080109 		.word	151062529
 2425 0060 00000000 		.word	_ZN5daisy6Mpr121INS_18Mpr121I2CTransportEED1Ev
 2426 0064 00000000 		.word	_ZN7daisysp10OscillatorD1Ev
 2427 0068 00000000 		.word	.LANCHOR0
 2428              	.LBE816:
 2429              	.LBE818:
 2430              		.cfi_endproc
 2431              	.LFE5367:
 2433              		.section	.init_array,"aw",%init_array
 2434              		.align	2
 2435 0000 00000000 		.word	_GLOBAL__sub_I_currTouched(target1)
 2436              		.global	osc
 2437              		.global	mpr121
 2438              		.global	hw
 2439              		.global	scale
 2440              		.global	lastTouched
 2441              		.global	currTouched
 2442              		.section	.bss.currTouched,"aw",%nobits
 2443              		.align	1
 2444              		.set	.LANCHOR3,. + 0
 2447              	currTouched:
 2448 0000 0000     		.space	2
 2449              		.section	.bss.hw,"aw",%nobits
 2450              		.align	2
 2451              		.set	.LANCHOR1,. + 0
 2454              	hw:
 2455 0000 00000000 		.space	60
 2455      00000000 
 2455      00000000 
 2455      00000000 
 2455      00000000 
 2456              		.section	.bss.lastTouched,"aw",%nobits
 2457              		.align	1
 2458              		.set	.LANCHOR4,. + 0
 2461              	lastTouched:
 2462 0000 0000     		.space	2
 2463              		.section	.bss.mpr121,"aw",%nobits
 2464              		.align	2
 2465              		.set	.LANCHOR2,. + 0
 2468              	mpr121:
 2469 0000 00000000 		.space	52
 2469      00000000 
 2469      00000000 
 2469      00000000 
 2469      00000000 
 2470              		.section	.bss.osc,"aw",%nobits
 2471              		.align	2
 2472              		.set	.LANCHOR0,. + 0
 2475              	osc:
 2476 0000 00000000 		.space	48
ARM GAS  /var/folders/yw/6_x9gyn52jjg4jtn_wsryx_80000gp/T//cccDMQvQ.s 			page 80


 2476      00000000 
 2476      00000000 
 2476      00000000 
 2476      00000000 
 2477              		.section	.data.scale,"aw"
 2478              		.align	3
 2479              		.set	.LANCHOR5,. + 0
 2482              	scale:
 2483 0000 52B81E85 		.word	-2061584302
 2484 0004 EB596040 		.word	1080056299
 2485 0008 7B14AE47 		.word	1202590843
 2486 000c E1526140 		.word	1080120033
 2487 0010 C3F5285C 		.word	1546188227
 2488 0014 8F5A6240 		.word	1080187535
 2489 0018 52B81E85 		.word	-2061584302
 2490 001c EB716340 		.word	1080259051
 2491 0020 52B81E85 		.word	-2061584302
 2492 0024 EB996440 		.word	1080334827
 2493 0028 EC51B81E 		.word	515396076
 2494 002c 85D36540 		.word	1080415109
 2495 0030 00000000 		.word	0
 2496 0034 00206740 		.word	1080500224
 2497 0038 00000000 		.word	0
 2498 003c 00806840 		.word	1080590336
 2499 0040 CDCCCCCC 		.word	-858993459
 2500 0044 CCF46940 		.word	1080685772
 2501 0048 00000000 		.word	0
 2502 004c 00806B40 		.word	1080786944
 2503 0050 C3F5285C 		.word	1546188227
 2504 0054 8F226D40 		.word	1080894095
 2505 0058 AE47E17A 		.word	2061584302
 2506 005c 14DE6E40 		.word	1081007636
 2507 0060 AE47E17A 		.word	2061584302
 2508 0064 145A7040 		.word	1081104916
 2509 0068 7B14AE47 		.word	1202590843
 2510 006c E1527140 		.word	1081168609
 2511 0070 C3F5285C 		.word	1546188227
 2512 0074 8F5A7240 		.word	1081236111
 2513 0078 AE47E17A 		.word	2061584302
 2514 007c 14727340 		.word	1081307668
 2515 0080 AE47E17A 		.word	2061584302
 2516 0084 149A7440 		.word	1081383444
 2517 0088 48E17A14 		.word	343597384
 2518 008c AED37540 		.word	1081463726
 2519 0090 A4703D0A 		.word	171798692
 2520 0094 D71F7740 		.word	1081548759
 2521 0098 00000000 		.word	0
 2522 009c 00807840 		.word	1081638912
 2523 00a0 CDCCCCCC 		.word	-858993459
 2524 00a4 CCF47940 		.word	1081734348
 2525 00a8 00000000 		.word	0
 2526 00ac 00807B40 		.word	1081835520
 2527 00b0 C3F5285C 		.word	1546188227
 2528 00b4 8F227D40 		.word	1081942671
 2529 00b8 AE47E17A 		.word	2061584302
 2530 00bc 14DE7E40 		.word	1082056212
 2531 00c0 00000000 		.word	0
ARM GAS  /var/folders/yw/6_x9gyn52jjg4jtn_wsryx_80000gp/T//cccDMQvQ.s 			page 81


 2532 00c4 005A8040 		.word	1082153472
 2533 00c8 295C8FC2 		.word	-1030792151
 2534 00cc F5528140 		.word	1082217205
 2535 00d0 713D0AD7 		.word	-687194767
 2536 00d4 A35A8240 		.word	1082284707
 2537 00d8 00000000 		.word	0
 2538 00dc 00728340 		.word	1082356224
 2539 00e0 AE47E17A 		.word	2061584302
 2540 00e4 149A8440 		.word	1082432020
 2541 00e8 48E17A14 		.word	343597384
 2542 00ec AED38540 		.word	1082512302
 2543 00f0 52B81E85 		.word	-2061584302
 2544 00f4 EB1F8740 		.word	1082597355
 2545 00f8 52B81E85 		.word	-2061584302
 2546 00fc EB7F8840 		.word	1082687467
 2547 0100 7B14AE47 		.word	1202590843
 2548 0104 E1F48940 		.word	1082782945
 2549 0108 00000000 		.word	0
 2550 010c 00808B40 		.word	1082884096
 2551 0110 713D0AD7 		.word	-687194767
 2552 0114 A3228D40 		.word	1082991267
 2553 0118 5C8FC2F5 		.word	-171798692
 2554 011c 28DE8E40 		.word	1083104808
 2555              		.text
 2556              	.Letext0:
 2557              		.file 13 "/Library/DaisyToolchain/0.2.0/arm/arm-none-eabi/include/machine/_default_types.h"
 2558              		.file 14 "/Library/DaisyToolchain/0.2.0/arm/arm-none-eabi/include/sys/_stdint.h"
 2559              		.file 15 "/Library/DaisyToolchain/0.2.0/arm/arm-none-eabi/include/stdint.h"
 2560              		.file 16 "/Library/DaisyToolchain/0.2.0/arm/lib/gcc/arm-none-eabi/10.3.1/include/stddef.h"
 2561              		.file 17 "/Library/DaisyToolchain/0.2.0/arm/arm-none-eabi/include/c++/10.3.1/cmath"
 2562              		.file 18 "/Library/DaisyToolchain/0.2.0/arm/arm-none-eabi/include/c++/10.3.1/bits/std_abs.h"
 2563              		.file 19 "/Library/DaisyToolchain/0.2.0/arm/arm-none-eabi/include/c++/10.3.1/cstdlib"
 2564              		.file 20 "/Library/DaisyToolchain/0.2.0/arm/arm-none-eabi/include/c++/10.3.1/cstdint"
 2565              		.file 21 "/Library/DaisyToolchain/0.2.0/arm/arm-none-eabi/include/c++/10.3.1/type_traits"
 2566              		.file 22 "/Library/DaisyToolchain/0.2.0/arm/arm-none-eabi/include/c++/10.3.1/debug/debug.h"
 2567              		.file 23 "/Library/DaisyToolchain/0.2.0/arm/arm-none-eabi/include/c++/10.3.1/arm-none-eabi/thumb/v
 2568              		.file 24 "/Library/DaisyToolchain/0.2.0/arm/arm-none-eabi/include/c++/10.3.1/bits/algorithmfwd.h"
 2569              		.file 25 "/Library/DaisyToolchain/0.2.0/arm/arm-none-eabi/include/c++/10.3.1/bits/stl_pair.h"
 2570              		.file 26 "/Library/DaisyToolchain/0.2.0/arm/arm-none-eabi/include/c++/10.3.1/bits/exception_ptr.h"
 2571              		.file 27 "/Library/DaisyToolchain/0.2.0/arm/arm-none-eabi/include/c++/10.3.1/cstdarg"
 2572              		.file 28 "/Library/DaisyToolchain/0.2.0/arm/arm-none-eabi/include/c++/10.3.1/cstdio"
 2573              		.file 29 "/Library/DaisyToolchain/0.2.0/arm/arm-none-eabi/include/c++/10.3.1/cstring"
 2574              		.file 30 "/Library/DaisyToolchain/0.2.0/arm/arm-none-eabi/include/c++/10.3.1/cwchar"
 2575              		.file 31 "/Library/DaisyToolchain/0.2.0/arm/arm-none-eabi/include/c++/10.3.1/clocale"
 2576              		.file 32 "/Library/DaisyToolchain/0.2.0/arm/arm-none-eabi/include/c++/10.3.1/bits/basic_string.h"
 2577              		.file 33 "/Library/DaisyToolchain/0.2.0/arm/arm-none-eabi/include/c++/10.3.1/bits/stl_iterator.h"
 2578              		.file 34 "/Library/DaisyToolchain/0.2.0/arm/arm-none-eabi/include/c++/10.3.1/bits/predefined_ops.h
 2579              		.file 35 "/Library/DaisyToolchain/0.2.0/arm/arm-none-eabi/include/sys/_types.h"
 2580              		.file 36 "/Library/DaisyToolchain/0.2.0/arm/arm-none-eabi/include/sys/reent.h"
 2581              		.file 37 "/Library/DaisyToolchain/0.2.0/arm/arm-none-eabi/include/sys/lock.h"
 2582              		.file 38 "/Library/DaisyToolchain/0.2.0/arm/arm-none-eabi/include/math.h"
 2583              		.file 39 "/Library/DaisyToolchain/0.2.0/arm/arm-none-eabi/include/stdlib.h"
 2584              		.file 40 "/Library/DaisyToolchain/0.2.0/arm/arm-none-eabi/include/c++/10.3.1/math.h"
 2585              		.file 41 "/Library/DaisyToolchain/0.2.0/arm/arm-none-eabi/include/c++/10.3.1/stdlib.h"
 2586              		.file 42 "../../../libDaisy/src/per/tim.h"
 2587              		.file 43 "../../../libDaisy/src/per/sai.h"
 2588              		.file 44 "../../../libDaisy/src/hid/logger_impl.h"
ARM GAS  /var/folders/yw/6_x9gyn52jjg4jtn_wsryx_80000gp/T//cccDMQvQ.s 			page 82


 2589              		.file 45 "../../../libDaisy/src/util/wav_format.h"
 2590              		.file 46 "../../../libDaisy/src/dev/max11300.h"
 2591              		.file 47 "../../../libDaisy/src/hid/logger.h"
 2592              		.file 48 "../../../libDaisy/src/per/gpio.h"
 2593              		.file 49 "../../../libDaisy/src/dev/sdram.h"
 2594              		.file 50 "/Library/DaisyToolchain/0.2.0/arm/lib/gcc/arm-none-eabi/10.3.1/include/stdarg.h"
 2595              		.file 51 "/Library/DaisyToolchain/0.2.0/arm/arm-none-eabi/include/stdio.h"
 2596              		.file 52 "/Library/DaisyToolchain/0.2.0/arm/arm-none-eabi/include/string.h"
 2597              		.file 53 "../../../DaisySP/Source/Control/adenv.h"
 2598              		.file 54 "../../../DaisySP/Source/Utility/dsp.h"
 2599              		.file 55 "/Library/DaisyToolchain/0.2.0/arm/arm-none-eabi/include/wchar.h"
 2600              		.file 56 "/Library/DaisyToolchain/0.2.0/arm/arm-none-eabi/include/locale.h"
 2601              		.file 57 "<built-in>"
 2602              		.file 58 "../../../libDaisy/src/dev/sr_595.h"
ARM GAS  /var/folders/yw/6_x9gyn52jjg4jtn_wsryx_80000gp/T//cccDMQvQ.s 			page 83


DEFINED SYMBOLS
                            *ABS*:0000000000000000 mpr121Test.cpp
/var/folders/yw/6_x9gyn52jjg4jtn_wsryx_80000gp/T//cccDMQvQ.s:19     .text._ZN5daisy9DaisySeedD2Ev:0000000000000000 $t
/var/folders/yw/6_x9gyn52jjg4jtn_wsryx_80000gp/T//cccDMQvQ.s:26     .text._ZN5daisy9DaisySeedD2Ev:0000000000000000 _ZN5daisy9DaisySeedD2Ev
/var/folders/yw/6_x9gyn52jjg4jtn_wsryx_80000gp/T//cccDMQvQ.s:26     .text._ZN5daisy9DaisySeedD2Ev:0000000000000000 _ZN5daisy9DaisySeedD1Ev
/var/folders/yw/6_x9gyn52jjg4jtn_wsryx_80000gp/T//cccDMQvQ.s:67     .text._ZN7daisysp10OscillatorD2Ev:0000000000000000 $t
/var/folders/yw/6_x9gyn52jjg4jtn_wsryx_80000gp/T//cccDMQvQ.s:74     .text._ZN7daisysp10OscillatorD2Ev:0000000000000000 _ZN7daisysp10OscillatorD2Ev
/var/folders/yw/6_x9gyn52jjg4jtn_wsryx_80000gp/T//cccDMQvQ.s:74     .text._ZN7daisysp10OscillatorD2Ev:0000000000000000 _ZN7daisysp10OscillatorD1Ev
/var/folders/yw/6_x9gyn52jjg4jtn_wsryx_80000gp/T//cccDMQvQ.s:91     .text._ZN5daisy6Mpr121INS_18Mpr121I2CTransportEED2Ev:0000000000000000 $t
/var/folders/yw/6_x9gyn52jjg4jtn_wsryx_80000gp/T//cccDMQvQ.s:98     .text._ZN5daisy6Mpr121INS_18Mpr121I2CTransportEED2Ev:0000000000000000 _ZN5daisy6Mpr121INS_18Mpr121I2CTransportEED2Ev
/var/folders/yw/6_x9gyn52jjg4jtn_wsryx_80000gp/T//cccDMQvQ.s:98     .text._ZN5daisy6Mpr121INS_18Mpr121I2CTransportEED2Ev:0000000000000000 _ZN5daisy6Mpr121INS_18Mpr121I2CTransportEED1Ev
/var/folders/yw/6_x9gyn52jjg4jtn_wsryx_80000gp/T//cccDMQvQ.s:120    .text._ZL13AudioCallbackPKfPfj:0000000000000000 $t
/var/folders/yw/6_x9gyn52jjg4jtn_wsryx_80000gp/T//cccDMQvQ.s:126    .text._ZL13AudioCallbackPKfPfj:0000000000000000 _ZL13AudioCallbackPKfPfj
/var/folders/yw/6_x9gyn52jjg4jtn_wsryx_80000gp/T//cccDMQvQ.s:195    .text._ZL13AudioCallbackPKfPfj:0000000000000028 $d
/var/folders/yw/6_x9gyn52jjg4jtn_wsryx_80000gp/T//cccDMQvQ.s:200    .text._ZN5daisy6Mpr121INS_18Mpr121I2CTransportEE13WriteRegisterEhh:0000000000000000 $t
/var/folders/yw/6_x9gyn52jjg4jtn_wsryx_80000gp/T//cccDMQvQ.s:207    .text._ZN5daisy6Mpr121INS_18Mpr121I2CTransportEE13WriteRegisterEhh:0000000000000000 _ZN5daisy6Mpr121INS_18Mpr121I2CTransportEE13WriteRegisterEhh
/var/folders/yw/6_x9gyn52jjg4jtn_wsryx_80000gp/T//cccDMQvQ.s:577    .rodata.main.str1.4:0000000000000000 $d
/var/folders/yw/6_x9gyn52jjg4jtn_wsryx_80000gp/T//cccDMQvQ.s:584    .text.startup.main:0000000000000000 $t
/var/folders/yw/6_x9gyn52jjg4jtn_wsryx_80000gp/T//cccDMQvQ.s:591    .text.startup.main:0000000000000000 main
/var/folders/yw/6_x9gyn52jjg4jtn_wsryx_80000gp/T//cccDMQvQ.s:1761   .text.startup.main:0000000000000340 $d
/var/folders/yw/6_x9gyn52jjg4jtn_wsryx_80000gp/T//cccDMQvQ.s:1772   .text.startup.main:0000000000000360 $t
/var/folders/yw/6_x9gyn52jjg4jtn_wsryx_80000gp/T//cccDMQvQ.s:2018   .text.startup.main:000000000000041a $d
/var/folders/yw/6_x9gyn52jjg4jtn_wsryx_80000gp/T//cccDMQvQ.s:2025   .text.startup.main:0000000000000420 $t
/var/folders/yw/6_x9gyn52jjg4jtn_wsryx_80000gp/T//cccDMQvQ.s:2116   .text.startup.main:0000000000000464 $d
/var/folders/yw/6_x9gyn52jjg4jtn_wsryx_80000gp/T//cccDMQvQ.s:2129   .text.startup._GLOBAL__sub_I_currTouched:0000000000000000 $t
/var/folders/yw/6_x9gyn52jjg4jtn_wsryx_80000gp/T//cccDMQvQ.s:2135   .text.startup._GLOBAL__sub_I_currTouched:0000000000000000 _GLOBAL__sub_I_currTouched
/var/folders/yw/6_x9gyn52jjg4jtn_wsryx_80000gp/T//cccDMQvQ.s:2420   .text.startup._GLOBAL__sub_I_currTouched:000000000000004c $d
/var/folders/yw/6_x9gyn52jjg4jtn_wsryx_80000gp/T//cccDMQvQ.s:2434   .init_array:0000000000000000 $d
/var/folders/yw/6_x9gyn52jjg4jtn_wsryx_80000gp/T//cccDMQvQ.s:2475   .bss.osc:0000000000000000 osc
/var/folders/yw/6_x9gyn52jjg4jtn_wsryx_80000gp/T//cccDMQvQ.s:2468   .bss.mpr121:0000000000000000 mpr121
/var/folders/yw/6_x9gyn52jjg4jtn_wsryx_80000gp/T//cccDMQvQ.s:2454   .bss.hw:0000000000000000 hw
/var/folders/yw/6_x9gyn52jjg4jtn_wsryx_80000gp/T//cccDMQvQ.s:2482   .data.scale:0000000000000000 scale
/var/folders/yw/6_x9gyn52jjg4jtn_wsryx_80000gp/T//cccDMQvQ.s:2461   .bss.lastTouched:0000000000000000 lastTouched
/var/folders/yw/6_x9gyn52jjg4jtn_wsryx_80000gp/T//cccDMQvQ.s:2447   .bss.currTouched:0000000000000000 currTouched
/var/folders/yw/6_x9gyn52jjg4jtn_wsryx_80000gp/T//cccDMQvQ.s:2443   .bss.currTouched:0000000000000000 $d
/var/folders/yw/6_x9gyn52jjg4jtn_wsryx_80000gp/T//cccDMQvQ.s:2450   .bss.hw:0000000000000000 $d
/var/folders/yw/6_x9gyn52jjg4jtn_wsryx_80000gp/T//cccDMQvQ.s:2457   .bss.lastTouched:0000000000000000 $d
/var/folders/yw/6_x9gyn52jjg4jtn_wsryx_80000gp/T//cccDMQvQ.s:2464   .bss.mpr121:0000000000000000 $d
/var/folders/yw/6_x9gyn52jjg4jtn_wsryx_80000gp/T//cccDMQvQ.s:2471   .bss.osc:0000000000000000 $d
/var/folders/yw/6_x9gyn52jjg4jtn_wsryx_80000gp/T//cccDMQvQ.s:2478   .data.scale:0000000000000000 $d
                           .group:0000000000000000 _ZN5daisy9DaisySeedD5Ev
                           .group:0000000000000000 _ZN7daisysp10OscillatorD5Ev
                           .group:0000000000000000 _ZN5daisy6Mpr121INS_18Mpr121I2CTransportEED5Ev

UNDEFINED SYMBOLS
_ZN7daisysp10Oscillator7ProcessEv
_ZN5daisy9I2CHandle16TransmitBlockingEtPhtm
_ZN5daisy9I2CHandle15ReceiveBlockingEtPhtm
_ZN5daisy9DaisySeed4InitEb
_ZN5daisy6LoggerILNS_17LoggerDestinationE1EE8StartLogEb
_ZN5daisy9DaisySeed17SetAudioBlockSizeEj
_ZN5daisy9DaisySeed18SetAudioSampleRateENS_9SaiHandle6Config10SampleRateE
_ZN5daisy9DaisySeed10StartAudioEPFvPKfPfjE
_ZN5daisy9DaisySeed15AudioSampleRateEv
_ZN7daisysp10Oscillator12CalcPhaseIncEf
_ZN5daisy9I2CHandle4InitERKNS0_6ConfigE
_ZN5daisy6System5DelayEm
ARM GAS  /var/folders/yw/6_x9gyn52jjg4jtn_wsryx_80000gp/T//cccDMQvQ.s 			page 84


_ZN5daisy6LoggerILNS_17LoggerDestinationE1EE9PrintLineEPKcz
__aeabi_atexit
__dso_handle
