ARM GAS  /var/folders/yw/6_x9gyn52jjg4jtn_wsryx_80000gp/T//cc8YnlWV.s 			page 1


   1              		.cpu cortex-m7
   2              		.arch armv7e-m
   3              		.fpu fpv5-d16
   4              		.eabi_attribute 28, 1
   5              		.eabi_attribute 20, 1
   6              		.eabi_attribute 21, 1
   7              		.eabi_attribute 23, 3
   8              		.eabi_attribute 24, 1
   9              		.eabi_attribute 25, 1
  10              		.eabi_attribute 26, 1
  11              		.eabi_attribute 30, 2
  12              		.eabi_attribute 34, 1
  13              		.eabi_attribute 18, 4
  14              		.file	"mpr121Test.cpp"
  15              		.text
  16              	.Ltext0:
  17              		.cfi_sections	.debug_frame
  18              		.section	.text._ZN5daisy9DaisySeedD2Ev,"axG",%progbits,_ZN5daisy9DaisySeedD5Ev,comdat
  19              		.align	1
  20              		.p2align 2,,3
  21              		.weak	_ZN5daisy9DaisySeedD2Ev
  22              		.syntax unified
  23              		.thumb
  24              		.thumb_func
  26              	_ZN5daisy9DaisySeedD2Ev:
  27              	.LVL0:
  28              	.LFB2529:
  29              		.file 1 "../../../libDaisy/src/daisy_seed.h"
   1:../../../libDaisy/src/daisy_seed.h **** #pragma once
   2:../../../libDaisy/src/daisy_seed.h **** #ifndef DSY_SEED_H
   3:../../../libDaisy/src/daisy_seed.h **** #define DSY_SEED_H
   4:../../../libDaisy/src/daisy_seed.h **** 
   5:../../../libDaisy/src/daisy_seed.h **** #include "daisy.h"
   6:../../../libDaisy/src/daisy_seed.h **** 
   7:../../../libDaisy/src/daisy_seed.h **** //Uncomment this out if you're still using the rev2 hardware
   8:../../../libDaisy/src/daisy_seed.h **** //#define SEED_REV2
   9:../../../libDaisy/src/daisy_seed.h **** 
  10:../../../libDaisy/src/daisy_seed.h **** namespace daisy
  11:../../../libDaisy/src/daisy_seed.h **** {
  12:../../../libDaisy/src/daisy_seed.h **** /**
  13:../../../libDaisy/src/daisy_seed.h ****    @brief This is the higher-level interface for the Daisy board. \n 
  14:../../../libDaisy/src/daisy_seed.h ****     All basic peripheral configuration/initialization is setup here. \n
  15:../../../libDaisy/src/daisy_seed.h **** 
  16:../../../libDaisy/src/daisy_seed.h ****    @ingroup boards
  17:../../../libDaisy/src/daisy_seed.h **** */
  18:../../../libDaisy/src/daisy_seed.h **** class DaisySeed
  19:../../../libDaisy/src/daisy_seed.h **** {
  20:../../../libDaisy/src/daisy_seed.h ****   public:
  21:../../../libDaisy/src/daisy_seed.h ****     DaisySeed() {}
  22:../../../libDaisy/src/daisy_seed.h ****     ~DaisySeed() {}
  30              		.loc 1 22 5 view -0
  31              		.cfi_startproc
  32              		@ args = 0, pretend = 0, frame = 0
  33              		@ frame_needed = 0, uses_anonymous_args = 0
  34              		@ link register save eliminated.
  35              	.LBB210:
  36              	.LBI210:
ARM GAS  /var/folders/yw/6_x9gyn52jjg4jtn_wsryx_80000gp/T//cc8YnlWV.s 			page 2


  37              		.file 2 "../../../libDaisy/src/sys/system.h"
   1:../../../libDaisy/src/sys/system.h **** #ifndef DSY_SYSTEM_H
   2:../../../libDaisy/src/sys/system.h **** #define DSY_SYSTEM_H
   3:../../../libDaisy/src/sys/system.h **** 
   4:../../../libDaisy/src/sys/system.h **** #ifndef UNIT_TEST // for unit tests, a dummy implementation is provided below
   5:../../../libDaisy/src/sys/system.h **** 
   6:../../../libDaisy/src/sys/system.h **** #include <cstdint>
   7:../../../libDaisy/src/sys/system.h **** #include "per/tim.h"
   8:../../../libDaisy/src/sys/system.h **** 
   9:../../../libDaisy/src/sys/system.h **** namespace daisy
  10:../../../libDaisy/src/sys/system.h **** {
  11:../../../libDaisy/src/sys/system.h **** /** A handle for interacting with the Core System. 
  12:../../../libDaisy/src/sys/system.h ****  ** This includes the Clock tree, MPU, global DMA initialization,
  13:../../../libDaisy/src/sys/system.h ****  ** cache handling, and any other necessary global initiailzation
  14:../../../libDaisy/src/sys/system.h ****  **
  15:../../../libDaisy/src/sys/system.h ****  ** @author shensley
  16:../../../libDaisy/src/sys/system.h ****  ** @ingroup system
  17:../../../libDaisy/src/sys/system.h ****  */
  18:../../../libDaisy/src/sys/system.h **** class System
  19:../../../libDaisy/src/sys/system.h **** {
  20:../../../libDaisy/src/sys/system.h ****   public:
  21:../../../libDaisy/src/sys/system.h ****     /** Contains settings for initializing the System */
  22:../../../libDaisy/src/sys/system.h ****     struct Config
  23:../../../libDaisy/src/sys/system.h ****     {
  24:../../../libDaisy/src/sys/system.h ****         /** Specifies the system clock frequency that feeds APB/AHB clocks, etc. */
  25:../../../libDaisy/src/sys/system.h ****         enum class SysClkFreq
  26:../../../libDaisy/src/sys/system.h ****         {
  27:../../../libDaisy/src/sys/system.h ****             FREQ_400MHZ,
  28:../../../libDaisy/src/sys/system.h ****             FREQ_480MHZ,
  29:../../../libDaisy/src/sys/system.h ****         };
  30:../../../libDaisy/src/sys/system.h **** 
  31:../../../libDaisy/src/sys/system.h ****         /** Method to call on the struct to set to defaults
  32:../../../libDaisy/src/sys/system.h ****          ** CPU Freq set to 400MHz
  33:../../../libDaisy/src/sys/system.h ****          ** Cache Enabled 
  34:../../../libDaisy/src/sys/system.h ****          ** */
  35:../../../libDaisy/src/sys/system.h ****         void Defaults()
  36:../../../libDaisy/src/sys/system.h ****         {
  37:../../../libDaisy/src/sys/system.h ****             cpu_freq    = SysClkFreq::FREQ_400MHZ;
  38:../../../libDaisy/src/sys/system.h ****             use_dcache  = true;
  39:../../../libDaisy/src/sys/system.h ****             use_icache  = true;
  40:../../../libDaisy/src/sys/system.h ****             skip_clocks = false;
  41:../../../libDaisy/src/sys/system.h ****         }
  42:../../../libDaisy/src/sys/system.h **** 
  43:../../../libDaisy/src/sys/system.h ****         /** Method to call on the struct to set to boost mode:
  44:../../../libDaisy/src/sys/system.h ****          ** CPU Freq set to 480MHz
  45:../../../libDaisy/src/sys/system.h ****          ** Cache Enabled 
  46:../../../libDaisy/src/sys/system.h ****          ** */
  47:../../../libDaisy/src/sys/system.h ****         void Boost()
  48:../../../libDaisy/src/sys/system.h ****         {
  49:../../../libDaisy/src/sys/system.h ****             cpu_freq    = SysClkFreq::FREQ_480MHZ;
  50:../../../libDaisy/src/sys/system.h ****             use_dcache  = true;
  51:../../../libDaisy/src/sys/system.h ****             use_icache  = true;
  52:../../../libDaisy/src/sys/system.h ****             skip_clocks = false;
  53:../../../libDaisy/src/sys/system.h ****         }
  54:../../../libDaisy/src/sys/system.h **** 
  55:../../../libDaisy/src/sys/system.h ****         SysClkFreq cpu_freq;
  56:../../../libDaisy/src/sys/system.h ****         bool       use_dcache;
ARM GAS  /var/folders/yw/6_x9gyn52jjg4jtn_wsryx_80000gp/T//cc8YnlWV.s 			page 3


  57:../../../libDaisy/src/sys/system.h ****         bool       use_icache;
  58:../../../libDaisy/src/sys/system.h ****         bool       skip_clocks;
  59:../../../libDaisy/src/sys/system.h ****     };
  60:../../../libDaisy/src/sys/system.h **** 
  61:../../../libDaisy/src/sys/system.h ****     /** Describes the different regions of memory available to the Daisy
  62:../../../libDaisy/src/sys/system.h ****      * 
  63:../../../libDaisy/src/sys/system.h ****      */
  64:../../../libDaisy/src/sys/system.h ****     enum MemoryRegion
  65:../../../libDaisy/src/sys/system.h ****     {
  66:../../../libDaisy/src/sys/system.h ****         INTERNAL_FLASH = 0,
  67:../../../libDaisy/src/sys/system.h ****         ITCMRAM,
  68:../../../libDaisy/src/sys/system.h ****         DTCMRAM,
  69:../../../libDaisy/src/sys/system.h ****         SRAM_D1,
  70:../../../libDaisy/src/sys/system.h ****         SRAM_D2,
  71:../../../libDaisy/src/sys/system.h ****         SRAM_D3,
  72:../../../libDaisy/src/sys/system.h ****         SDRAM,
  73:../../../libDaisy/src/sys/system.h ****         QSPI,
  74:../../../libDaisy/src/sys/system.h ****         INVALID_ADDRESS,
  75:../../../libDaisy/src/sys/system.h ****     };
  76:../../../libDaisy/src/sys/system.h **** 
  77:../../../libDaisy/src/sys/system.h ****     System() {}
  78:../../../libDaisy/src/sys/system.h ****     ~System() {}
  38              		.loc 2 78 5 view .LVU1
  39              		.loc 2 78 5 is_stmt 0 view .LVU2
  40              	.LBE210:
  41              	.LBB211:
  42              	.LBI211:
  43              		.file 3 "../../../libDaisy/src/hid/usb.h"
   1:../../../libDaisy/src/hid/usb.h **** #pragma once
   2:../../../libDaisy/src/hid/usb.h **** #ifndef DSY_HID_USB_H
   3:../../../libDaisy/src/hid/usb.h **** #define DSY_HID_USB_H
   4:../../../libDaisy/src/hid/usb.h **** #include <stdint.h>
   5:../../../libDaisy/src/hid/usb.h **** #include <stdlib.h>
   6:../../../libDaisy/src/hid/usb.h **** 
   7:../../../libDaisy/src/hid/usb.h **** namespace daisy
   8:../../../libDaisy/src/hid/usb.h **** /** @addtogroup human_interface
   9:../../../libDaisy/src/hid/usb.h ****     @{
  10:../../../libDaisy/src/hid/usb.h **** */
  11:../../../libDaisy/src/hid/usb.h **** 
  12:../../../libDaisy/src/hid/usb.h **** {
  13:../../../libDaisy/src/hid/usb.h **** /** 
  14:../../../libDaisy/src/hid/usb.h ****     @brief Interface for initializing and using the USB Peripherals on the daisy
  15:../../../libDaisy/src/hid/usb.h ****     @author Stephen Hensley
  16:../../../libDaisy/src/hid/usb.h ****     @date December 2019
  17:../../../libDaisy/src/hid/usb.h **** */
  18:../../../libDaisy/src/hid/usb.h **** class UsbHandle
  19:../../../libDaisy/src/hid/usb.h **** {
  20:../../../libDaisy/src/hid/usb.h ****   public:
  21:../../../libDaisy/src/hid/usb.h ****     /** Return values for USBHandle Functions */
  22:../../../libDaisy/src/hid/usb.h ****     enum class Result
  23:../../../libDaisy/src/hid/usb.h ****     {
  24:../../../libDaisy/src/hid/usb.h ****         OK,
  25:../../../libDaisy/src/hid/usb.h ****         ERR,
  26:../../../libDaisy/src/hid/usb.h ****     };
  27:../../../libDaisy/src/hid/usb.h **** 
  28:../../../libDaisy/src/hid/usb.h ****     /** Specified which of the two USB Peripherals to initialize. */
  29:../../../libDaisy/src/hid/usb.h ****     enum UsbPeriph
ARM GAS  /var/folders/yw/6_x9gyn52jjg4jtn_wsryx_80000gp/T//cc8YnlWV.s 			page 4


  30:../../../libDaisy/src/hid/usb.h ****     {
  31:../../../libDaisy/src/hid/usb.h ****         FS_INTERNAL, /**< Internal pin */
  32:../../../libDaisy/src/hid/usb.h ****         FS_EXTERNAL, /**< FS External D+ pin is Pin 38 (GPIO32). FS External D- pin is Pin 37 (GPIO
  33:../../../libDaisy/src/hid/usb.h ****         FS_BOTH,     /**< Both */
  34:../../../libDaisy/src/hid/usb.h ****     };
  35:../../../libDaisy/src/hid/usb.h **** 
  36:../../../libDaisy/src/hid/usb.h **** 
  37:../../../libDaisy/src/hid/usb.h ****     /** Function called upon reception of a buffer */
  38:../../../libDaisy/src/hid/usb.h ****     typedef void (*ReceiveCallback)(uint8_t* buff, uint32_t* len);
  39:../../../libDaisy/src/hid/usb.h **** 
  40:../../../libDaisy/src/hid/usb.h ****     UsbHandle() {}
  41:../../../libDaisy/src/hid/usb.h **** 
  42:../../../libDaisy/src/hid/usb.h ****     ~UsbHandle() {}
  44              		.loc 3 42 5 is_stmt 1 view .LVU3
  45              		.loc 3 42 5 is_stmt 0 view .LVU4
  46              	.LBE211:
  47              	.LBB212:
  48              	.LBI212:
  49              		.file 4 "../../../libDaisy/src/per/adc.h"
   1:../../../libDaisy/src/per/adc.h **** #pragma once
   2:../../../libDaisy/src/per/adc.h **** #ifndef DSY_ADC_H
   3:../../../libDaisy/src/per/adc.h **** #define DSY_ADC_H /**< Macro */
   4:../../../libDaisy/src/per/adc.h **** #include <stdint.h>
   5:../../../libDaisy/src/per/adc.h **** #include <stdlib.h>
   6:../../../libDaisy/src/per/adc.h **** #include "daisy_core.h"
   7:../../../libDaisy/src/per/adc.h **** #include "per/gpio.h"
   8:../../../libDaisy/src/per/adc.h **** 
   9:../../../libDaisy/src/per/adc.h **** #define DSY_ADC_MAX_CHANNELS 16 /**< Maximum number of ADC channels */
  10:../../../libDaisy/src/per/adc.h **** 
  11:../../../libDaisy/src/per/adc.h **** namespace daisy
  12:../../../libDaisy/src/per/adc.h **** {
  13:../../../libDaisy/src/per/adc.h **** /** @addtogroup per_analog
  14:../../../libDaisy/src/per/adc.h ****     @{
  15:../../../libDaisy/src/per/adc.h **** */
  16:../../../libDaisy/src/per/adc.h **** 
  17:../../../libDaisy/src/per/adc.h **** /* While there may not be many configuration options here,
  18:../../../libDaisy/src/per/adc.h **** using a struct like this allows us to add more configuration
  19:../../../libDaisy/src/per/adc.h **** later without breaking existing functionality.
  20:../../../libDaisy/src/per/adc.h **** */
  21:../../../libDaisy/src/per/adc.h **** 
  22:../../../libDaisy/src/per/adc.h **** /** @brief   Configuration Structure for an ADC Channel 
  23:../../../libDaisy/src/per/adc.h ****  *  @details This can be used to configure a a single input, 
  24:../../../libDaisy/src/per/adc.h ****  *           or a multiplexed input, allowing up to 8 inputs on 
  25:../../../libDaisy/src/per/adc.h ****  *           one channel.
  26:../../../libDaisy/src/per/adc.h ****  *  @note    Sharing data lines to multiple muxes _is_ possible, but
  27:../../../libDaisy/src/per/adc.h ****  *           each channel sharing data lines must be set to the maximum
  28:../../../libDaisy/src/per/adc.h ****  *           number of channels, even if some multiplexers have fewer
  29:../../../libDaisy/src/per/adc.h ****  *           inputs connected.
  30:../../../libDaisy/src/per/adc.h **** */
  31:../../../libDaisy/src/per/adc.h **** struct AdcChannelConfig
  32:../../../libDaisy/src/per/adc.h **** {
  33:../../../libDaisy/src/per/adc.h ****     /** Which pin to use for multiplexing */
  34:../../../libDaisy/src/per/adc.h ****     enum MuxPin
  35:../../../libDaisy/src/per/adc.h ****     {
  36:../../../libDaisy/src/per/adc.h ****         MUX_SEL_0,    /**< & */
  37:../../../libDaisy/src/per/adc.h ****         MUX_SEL_1,    /**< & */
  38:../../../libDaisy/src/per/adc.h ****         MUX_SEL_2,    /**< & */
ARM GAS  /var/folders/yw/6_x9gyn52jjg4jtn_wsryx_80000gp/T//cc8YnlWV.s 			page 5


  39:../../../libDaisy/src/per/adc.h ****         MUX_SEL_LAST, /**< & */
  40:../../../libDaisy/src/per/adc.h ****     };
  41:../../../libDaisy/src/per/adc.h **** 
  42:../../../libDaisy/src/per/adc.h ****     /** Initializes a single ADC pin as an ADC. 
  43:../../../libDaisy/src/per/adc.h ****     \param pin Pin to init.
  44:../../../libDaisy/src/per/adc.h ****      */
  45:../../../libDaisy/src/per/adc.h ****     void InitSingle(dsy_gpio_pin pin);
  46:../../../libDaisy/src/per/adc.h **** 
  47:../../../libDaisy/src/per/adc.h ****     /** 
  48:../../../libDaisy/src/per/adc.h ****     Initializes a single ADC pin as a Multiplexed ADC.
  49:../../../libDaisy/src/per/adc.h ****     Requires a CD405X Multiplexer connected to the pin.
  50:../../../libDaisy/src/per/adc.h ****     You only need to supply the mux pins that are required,
  51:../../../libDaisy/src/per/adc.h ****     e.g. a 4052 mux would only require mux_0 and mux_1.
  52:../../../libDaisy/src/per/adc.h ****     Internal Callbacks handle the pin addressing.
  53:../../../libDaisy/src/per/adc.h ****     \param mux_channels must be 1-8
  54:../../../libDaisy/src/per/adc.h ****     \param mux_0 First mux pin
  55:../../../libDaisy/src/per/adc.h ****     \param mux_1 Second mux pin
  56:../../../libDaisy/src/per/adc.h ****     \param mux_2 Third mux pin
  57:../../../libDaisy/src/per/adc.h ****     \param adc_pin &
  58:../../../libDaisy/src/per/adc.h ****     */
  59:../../../libDaisy/src/per/adc.h ****     void InitMux(dsy_gpio_pin adc_pin,
  60:../../../libDaisy/src/per/adc.h ****                  size_t       mux_channels,
  61:../../../libDaisy/src/per/adc.h ****                  dsy_gpio_pin mux_0,
  62:../../../libDaisy/src/per/adc.h ****                  dsy_gpio_pin mux_1 = {DSY_GPIOX, 0},
  63:../../../libDaisy/src/per/adc.h ****                  dsy_gpio_pin mux_2 = {DSY_GPIOX, 0});
  64:../../../libDaisy/src/per/adc.h **** 
  65:../../../libDaisy/src/per/adc.h ****     dsy_gpio pin_;                   /**< & */
  66:../../../libDaisy/src/per/adc.h ****     dsy_gpio mux_pin_[MUX_SEL_LAST]; /**< & */
  67:../../../libDaisy/src/per/adc.h ****     uint8_t  mux_channels_;          /**< & */
  68:../../../libDaisy/src/per/adc.h **** };
  69:../../../libDaisy/src/per/adc.h **** 
  70:../../../libDaisy/src/per/adc.h **** /**
  71:../../../libDaisy/src/per/adc.h ****    @brief Handler for analog to digital conversion
  72:../../../libDaisy/src/per/adc.h **** */
  73:../../../libDaisy/src/per/adc.h **** class AdcHandle
  74:../../../libDaisy/src/per/adc.h **** {
  75:../../../libDaisy/src/per/adc.h ****   public:
  76:../../../libDaisy/src/per/adc.h ****     /** Supported oversampling amounts */
  77:../../../libDaisy/src/per/adc.h ****     enum OverSampling
  78:../../../libDaisy/src/per/adc.h ****     {
  79:../../../libDaisy/src/per/adc.h ****         OVS_NONE, /**< & */
  80:../../../libDaisy/src/per/adc.h ****         OVS_4,    /**< & */
  81:../../../libDaisy/src/per/adc.h ****         OVS_8,    /**< & */
  82:../../../libDaisy/src/per/adc.h ****         OVS_16,   /**< & */
  83:../../../libDaisy/src/per/adc.h ****         OVS_32,   /**< & */
  84:../../../libDaisy/src/per/adc.h ****         OVS_64,   /**< & */
  85:../../../libDaisy/src/per/adc.h ****         OVS_128,  /**< & */
  86:../../../libDaisy/src/per/adc.h ****         OVS_256,  /**< & */
  87:../../../libDaisy/src/per/adc.h ****         OVS_512,  /**< & */
  88:../../../libDaisy/src/per/adc.h ****         OVS_1024, /**< & */
  89:../../../libDaisy/src/per/adc.h ****         OVS_LAST, /**< & */
  90:../../../libDaisy/src/per/adc.h ****     };
  91:../../../libDaisy/src/per/adc.h **** 
  92:../../../libDaisy/src/per/adc.h ****     AdcHandle() {}
  93:../../../libDaisy/src/per/adc.h ****     ~AdcHandle() {}
  50              		.loc 4 93 5 is_stmt 1 view .LVU5
  51              		.loc 4 93 5 is_stmt 0 view .LVU6
ARM GAS  /var/folders/yw/6_x9gyn52jjg4jtn_wsryx_80000gp/T//cc8YnlWV.s 			page 6


  52              	.LBE212:
  53              	.LBB213:
  54              	.LBI213:
  55              		.file 5 "../../../libDaisy/src/hid/audio.h"
   1:../../../libDaisy/src/hid/audio.h **** #ifndef DSY_AUDIO_H
   2:../../../libDaisy/src/hid/audio.h **** #define DSY_AUDIO_H /**< & */
   3:../../../libDaisy/src/hid/audio.h **** 
   4:../../../libDaisy/src/hid/audio.h **** #include "per/sai.h"
   5:../../../libDaisy/src/hid/audio.h **** 
   6:../../../libDaisy/src/hid/audio.h **** namespace daisy
   7:../../../libDaisy/src/hid/audio.h **** {
   8:../../../libDaisy/src/hid/audio.h **** /** @brief Audio Engine Handle
   9:../../../libDaisy/src/hid/audio.h ****  *  @ingroup audio 
  10:../../../libDaisy/src/hid/audio.h ****  *  @details This class allows for higher level access to an audio engine.
  11:../../../libDaisy/src/hid/audio.h ****  *           If you're using a SOM like the DaisySeed or DaisyPatchSM (or any 
  12:../../../libDaisy/src/hid/audio.h ****  *            board that includes one of those objects) then the intialization
  13:../../../libDaisy/src/hid/audio.h ****  *            is already taken  care of.
  14:../../../libDaisy/src/hid/audio.h ****  *           If you're setting up your own custom hardware, or need to make changes
  15:../../../libDaisy/src/hid/audio.h ****  *           you will have to take the following steps:
  16:../../../libDaisy/src/hid/audio.h ****  *             1. Create and Initialize an SaiHandle or two depending on your requirements
  17:../../../libDaisy/src/hid/audio.h ****  *             2. Initialize the Audio Handle with the desired settings and the Initialized SaiHand
  18:../../../libDaisy/src/hid/audio.h ****  *             3. If the connected codec requires special configuration or initialization, do so
  19:../../../libDaisy/src/hid/audio.h ****  *             4. Write a callback method using either the AudioCallback or the InterleavingAudioCa
  20:../../../libDaisy/src/hid/audio.h ****  *             5. Start the Audio using one of the StartAudio function
  21:../../../libDaisy/src/hid/audio.h ****  */
  22:../../../libDaisy/src/hid/audio.h **** class AudioHandle
  23:../../../libDaisy/src/hid/audio.h **** {
  24:../../../libDaisy/src/hid/audio.h ****   public:
  25:../../../libDaisy/src/hid/audio.h ****     /** Manually configurable details about the Audio Engine */
  26:../../../libDaisy/src/hid/audio.h ****     /** TODO: Figure out how to get samplerate in here. */
  27:../../../libDaisy/src/hid/audio.h ****     struct Config
  28:../../../libDaisy/src/hid/audio.h ****     {
  29:../../../libDaisy/src/hid/audio.h ****         /** number of samples to process per callback */
  30:../../../libDaisy/src/hid/audio.h ****         size_t blocksize;
  31:../../../libDaisy/src/hid/audio.h **** 
  32:../../../libDaisy/src/hid/audio.h ****         /**< Sample rate of audio */
  33:../../../libDaisy/src/hid/audio.h ****         SaiHandle::Config::SampleRate samplerate;
  34:../../../libDaisy/src/hid/audio.h **** 
  35:../../../libDaisy/src/hid/audio.h ****         /** factor for adjustment before and after callback for hardware that may have extra headro
  36:../../../libDaisy/src/hid/audio.h ****         float postgain;
  37:../../../libDaisy/src/hid/audio.h **** 
  38:../../../libDaisy/src/hid/audio.h ****         /** factor for additional one-sided compensation to audio path for hardware that may
  39:../../../libDaisy/src/hid/audio.h ****          *  have unequal input/output ranges
  40:../../../libDaisy/src/hid/audio.h ****          */
  41:../../../libDaisy/src/hid/audio.h ****         float output_compensation;
  42:../../../libDaisy/src/hid/audio.h **** 
  43:../../../libDaisy/src/hid/audio.h ****         /** Sets default values for config struct */
  44:../../../libDaisy/src/hid/audio.h ****         Config()
  45:../../../libDaisy/src/hid/audio.h ****         : blocksize(48),
  46:../../../libDaisy/src/hid/audio.h ****           samplerate(SaiHandle::Config::SampleRate::SAI_48KHZ),
  47:../../../libDaisy/src/hid/audio.h ****           postgain(1.f),
  48:../../../libDaisy/src/hid/audio.h ****           output_compensation(1.f)
  49:../../../libDaisy/src/hid/audio.h ****         {
  50:../../../libDaisy/src/hid/audio.h ****         }
  51:../../../libDaisy/src/hid/audio.h ****     };
  52:../../../libDaisy/src/hid/audio.h **** 
  53:../../../libDaisy/src/hid/audio.h ****     enum class Result
ARM GAS  /var/folders/yw/6_x9gyn52jjg4jtn_wsryx_80000gp/T//cc8YnlWV.s 			page 7


  54:../../../libDaisy/src/hid/audio.h ****     {
  55:../../../libDaisy/src/hid/audio.h ****         OK,
  56:../../../libDaisy/src/hid/audio.h ****         ERR,
  57:../../../libDaisy/src/hid/audio.h ****     };
  58:../../../libDaisy/src/hid/audio.h **** 
  59:../../../libDaisy/src/hid/audio.h ****     /** Non-Interleaving input buffer
  60:../../../libDaisy/src/hid/audio.h ****      * Buffer arranged by float[chn][sample] 
  61:../../../libDaisy/src/hid/audio.h ****      * const so that the user can't modify the input
  62:../../../libDaisy/src/hid/audio.h ****      */
  63:../../../libDaisy/src/hid/audio.h ****     typedef const float* const* InputBuffer;
  64:../../../libDaisy/src/hid/audio.h **** 
  65:../../../libDaisy/src/hid/audio.h ****     /** Non-Interleaving output buffer
  66:../../../libDaisy/src/hid/audio.h ****      * Arranged by float[chn][sample] 
  67:../../../libDaisy/src/hid/audio.h ****      */
  68:../../../libDaisy/src/hid/audio.h ****     typedef float** OutputBuffer;
  69:../../../libDaisy/src/hid/audio.h **** 
  70:../../../libDaisy/src/hid/audio.h ****     /** Type for a Non-Interleaving audio callback 
  71:../../../libDaisy/src/hid/audio.h ****      * Non-Interleaving audio callbacks in daisy will be of this type
  72:../../../libDaisy/src/hid/audio.h ****      */
  73:../../../libDaisy/src/hid/audio.h ****     typedef void (*AudioCallback)(InputBuffer  in,
  74:../../../libDaisy/src/hid/audio.h ****                                   OutputBuffer out,
  75:../../../libDaisy/src/hid/audio.h ****                                   size_t       size);
  76:../../../libDaisy/src/hid/audio.h **** 
  77:../../../libDaisy/src/hid/audio.h ****     /** Interleaving Input buffer
  78:../../../libDaisy/src/hid/audio.h ****      ** audio is prepared as { L0, R0, L1, R1, . . . LN, RN }]
  79:../../../libDaisy/src/hid/audio.h ****      ** this is const, as the user shouldn't modify it
  80:../../../libDaisy/src/hid/audio.h ****     */
  81:../../../libDaisy/src/hid/audio.h ****     typedef const float* InterleavingInputBuffer;
  82:../../../libDaisy/src/hid/audio.h **** 
  83:../../../libDaisy/src/hid/audio.h ****     /** Interleaving Output buffer 
  84:../../../libDaisy/src/hid/audio.h ****      ** audio is prepared as { L0, R0, L1, R1, . . . LN, RN }
  85:../../../libDaisy/src/hid/audio.h ****     */
  86:../../../libDaisy/src/hid/audio.h ****     typedef float* InterleavingOutputBuffer;
  87:../../../libDaisy/src/hid/audio.h **** 
  88:../../../libDaisy/src/hid/audio.h ****     /** Interleaving Audio Callback 
  89:../../../libDaisy/src/hid/audio.h ****      * Interleaving audio callbacks in daisy must be of this type
  90:../../../libDaisy/src/hid/audio.h ****      */
  91:../../../libDaisy/src/hid/audio.h ****     typedef void (*InterleavingAudioCallback)(InterleavingInputBuffer  in,
  92:../../../libDaisy/src/hid/audio.h ****                                               InterleavingOutputBuffer out,
  93:../../../libDaisy/src/hid/audio.h ****                                               size_t                   size);
  94:../../../libDaisy/src/hid/audio.h **** 
  95:../../../libDaisy/src/hid/audio.h ****     AudioHandle() : pimpl_(nullptr) {}
  96:../../../libDaisy/src/hid/audio.h ****     ~AudioHandle() {}
  56              		.loc 5 96 5 is_stmt 1 view .LVU7
  57              		.loc 5 96 5 is_stmt 0 view .LVU8
  58              	.LBE213:
  59              		.loc 1 22 19 view .LVU9
  60 0000 7047     		bx	lr
  61              		.cfi_endproc
  62              	.LFE2529:
  64              		.weak	_ZN5daisy9DaisySeedD1Ev
  65              		.thumb_set _ZN5daisy9DaisySeedD1Ev,_ZN5daisy9DaisySeedD2Ev
  66 0002 00BF     		.section	.text._ZN7daisysp10OscillatorD2Ev,"axG",%progbits,_ZN7daisysp10OscillatorD5Ev,comdat
  67              		.align	1
  68              		.p2align 2,,3
  69              		.weak	_ZN7daisysp10OscillatorD2Ev
  70              		.syntax unified
ARM GAS  /var/folders/yw/6_x9gyn52jjg4jtn_wsryx_80000gp/T//cc8YnlWV.s 			page 8


  71              		.thumb
  72              		.thumb_func
  74              	_ZN7daisysp10OscillatorD2Ev:
  75              	.LVL1:
  76              	.LFB4219:
  77              		.file 6 "../../../DaisySP/Source/Synthesis/oscillator.h"
   1:../../../DaisySP/Source/Synthesis/oscillator.h **** #pragma once
   2:../../../DaisySP/Source/Synthesis/oscillator.h **** #ifndef DSY_OSCILLATOR_H
   3:../../../DaisySP/Source/Synthesis/oscillator.h **** #define DSY_OSCILLATOR_H
   4:../../../DaisySP/Source/Synthesis/oscillator.h **** #include <stdint.h>
   5:../../../DaisySP/Source/Synthesis/oscillator.h **** #include "Utility/dsp.h"
   6:../../../DaisySP/Source/Synthesis/oscillator.h **** #ifdef __cplusplus
   7:../../../DaisySP/Source/Synthesis/oscillator.h **** 
   8:../../../DaisySP/Source/Synthesis/oscillator.h **** namespace daisysp
   9:../../../DaisySP/Source/Synthesis/oscillator.h **** {
  10:../../../DaisySP/Source/Synthesis/oscillator.h **** /** Synthesis of several waveforms, including polyBLEP bandlimited waveforms.
  11:../../../DaisySP/Source/Synthesis/oscillator.h **** */
  12:../../../DaisySP/Source/Synthesis/oscillator.h **** class Oscillator
  13:../../../DaisySP/Source/Synthesis/oscillator.h **** {
  14:../../../DaisySP/Source/Synthesis/oscillator.h ****   public:
  15:../../../DaisySP/Source/Synthesis/oscillator.h ****     Oscillator() {}
  16:../../../DaisySP/Source/Synthesis/oscillator.h ****     ~Oscillator() {}
  78              		.loc 6 16 5 is_stmt 1 view -0
  79              		.cfi_startproc
  80              		@ args = 0, pretend = 0, frame = 0
  81              		@ frame_needed = 0, uses_anonymous_args = 0
  82              		@ link register save eliminated.
  83              		.loc 6 16 20 is_stmt 0 view .LVU11
  84 0000 7047     		bx	lr
  85              		.cfi_endproc
  86              	.LFE4219:
  88              		.weak	_ZN7daisysp10OscillatorD1Ev
  89              		.thumb_set _ZN7daisysp10OscillatorD1Ev,_ZN7daisysp10OscillatorD2Ev
  90 0002 00BF     		.section	.text._ZN5daisy6Mpr121INS_18Mpr121I2CTransportEED2Ev,"axG",%progbits,_ZN5daisy6Mpr121INS_
  91              		.align	1
  92              		.p2align 2,,3
  93              		.weak	_ZN5daisy6Mpr121INS_18Mpr121I2CTransportEED2Ev
  94              		.syntax unified
  95              		.thumb
  96              		.thumb_func
  98              	_ZN5daisy6Mpr121INS_18Mpr121I2CTransportEED2Ev:
  99              	.LVL2:
 100              	.LFB5365:
 101              		.file 7 "../../../libDaisy/src/dev/mpr121.h"
   1:../../../libDaisy/src/dev/mpr121.h **** #pragma once
   2:../../../libDaisy/src/dev/mpr121.h **** #ifndef DSY_MPR121_H
   3:../../../libDaisy/src/dev/mpr121.h **** #define DSY_MPR121_H
   4:../../../libDaisy/src/dev/mpr121.h **** 
   5:../../../libDaisy/src/dev/mpr121.h **** // The default I2C address
   6:../../../libDaisy/src/dev/mpr121.h **** #define MPR121_I2CADDR_DEFAULT 0x5A        ///< default I2C address
   7:../../../libDaisy/src/dev/mpr121.h **** #define MPR121_TOUCH_THRESHOLD_DEFAULT 12  ///< default touch threshold value
   8:../../../libDaisy/src/dev/mpr121.h **** #define MPR121_RELEASE_THRESHOLD_DEFAULT 6 ///< default relese threshold value
   9:../../../libDaisy/src/dev/mpr121.h **** 
  10:../../../libDaisy/src/dev/mpr121.h **** namespace daisy
  11:../../../libDaisy/src/dev/mpr121.h **** {
  12:../../../libDaisy/src/dev/mpr121.h **** /** @addtogroup external 
  13:../../../libDaisy/src/dev/mpr121.h ****     @{ 
ARM GAS  /var/folders/yw/6_x9gyn52jjg4jtn_wsryx_80000gp/T//cc8YnlWV.s 			page 9


  14:../../../libDaisy/src/dev/mpr121.h **** */
  15:../../../libDaisy/src/dev/mpr121.h **** 
  16:../../../libDaisy/src/dev/mpr121.h **** /** I2C Transport for MPR121 */
  17:../../../libDaisy/src/dev/mpr121.h **** class Mpr121I2CTransport
  18:../../../libDaisy/src/dev/mpr121.h **** {
  19:../../../libDaisy/src/dev/mpr121.h ****   public:
  20:../../../libDaisy/src/dev/mpr121.h ****     Mpr121I2CTransport() {}
  21:../../../libDaisy/src/dev/mpr121.h ****     ~Mpr121I2CTransport() {}
  22:../../../libDaisy/src/dev/mpr121.h **** 
  23:../../../libDaisy/src/dev/mpr121.h ****     struct Config
  24:../../../libDaisy/src/dev/mpr121.h ****     {
  25:../../../libDaisy/src/dev/mpr121.h ****         I2CHandle::Config::Peripheral periph;
  26:../../../libDaisy/src/dev/mpr121.h ****         I2CHandle::Config::Speed      speed;
  27:../../../libDaisy/src/dev/mpr121.h ****         Pin                           scl;
  28:../../../libDaisy/src/dev/mpr121.h ****         Pin                           sda;
  29:../../../libDaisy/src/dev/mpr121.h **** 
  30:../../../libDaisy/src/dev/mpr121.h ****         I2CHandle::Config::Mode mode;
  31:../../../libDaisy/src/dev/mpr121.h **** 
  32:../../../libDaisy/src/dev/mpr121.h ****         uint8_t dev_addr;
  33:../../../libDaisy/src/dev/mpr121.h **** 
  34:../../../libDaisy/src/dev/mpr121.h ****         Config()
  35:../../../libDaisy/src/dev/mpr121.h ****         {
  36:../../../libDaisy/src/dev/mpr121.h ****             periph = I2CHandle::Config::Peripheral::I2C_1;
  37:../../../libDaisy/src/dev/mpr121.h ****             speed  = I2CHandle::Config::Speed::I2C_400KHZ;
  38:../../../libDaisy/src/dev/mpr121.h **** 
  39:../../../libDaisy/src/dev/mpr121.h ****             scl = Pin(PORTB, 8);
  40:../../../libDaisy/src/dev/mpr121.h ****             sda = Pin(PORTB, 9);
  41:../../../libDaisy/src/dev/mpr121.h **** 
  42:../../../libDaisy/src/dev/mpr121.h ****             dev_addr = MPR121_I2CADDR_DEFAULT;
  43:../../../libDaisy/src/dev/mpr121.h ****         }
  44:../../../libDaisy/src/dev/mpr121.h ****     };
  45:../../../libDaisy/src/dev/mpr121.h **** 
  46:../../../libDaisy/src/dev/mpr121.h ****     /** \return Did the transaction error? i.e. Return true if error, false if ok */
  47:../../../libDaisy/src/dev/mpr121.h ****     inline bool Init(Config config)
  48:../../../libDaisy/src/dev/mpr121.h ****     {
  49:../../../libDaisy/src/dev/mpr121.h ****         config_ = config;
  50:../../../libDaisy/src/dev/mpr121.h **** 
  51:../../../libDaisy/src/dev/mpr121.h ****         I2CHandle::Config i2c_conf;
  52:../../../libDaisy/src/dev/mpr121.h ****         i2c_conf.mode   = I2CHandle::Config::Mode::I2C_MASTER;
  53:../../../libDaisy/src/dev/mpr121.h ****         i2c_conf.periph = config.periph;
  54:../../../libDaisy/src/dev/mpr121.h ****         i2c_conf.speed  = config.speed;
  55:../../../libDaisy/src/dev/mpr121.h **** 
  56:../../../libDaisy/src/dev/mpr121.h ****         i2c_conf.pin_config.scl = config.scl;
  57:../../../libDaisy/src/dev/mpr121.h ****         i2c_conf.pin_config.sda = config.sda;
  58:../../../libDaisy/src/dev/mpr121.h **** 
  59:../../../libDaisy/src/dev/mpr121.h ****         return I2CHandle::Result::OK != i2c_.Init(i2c_conf);
  60:../../../libDaisy/src/dev/mpr121.h ****     }
  61:../../../libDaisy/src/dev/mpr121.h **** 
  62:../../../libDaisy/src/dev/mpr121.h ****     /** \return Did the transaction error? i.e. Return true if error, false if ok */
  63:../../../libDaisy/src/dev/mpr121.h ****     bool Write(uint8_t *data, uint16_t size)
  64:../../../libDaisy/src/dev/mpr121.h ****     {
  65:../../../libDaisy/src/dev/mpr121.h ****         return I2CHandle::Result::OK
  66:../../../libDaisy/src/dev/mpr121.h ****                != i2c_.TransmitBlocking(config_.dev_addr, data, size, 10);
  67:../../../libDaisy/src/dev/mpr121.h ****     }
  68:../../../libDaisy/src/dev/mpr121.h **** 
  69:../../../libDaisy/src/dev/mpr121.h ****     /** \return Did the transaction error? i.e. Return true if error, false if ok */
  70:../../../libDaisy/src/dev/mpr121.h ****     bool Read(uint8_t *data, uint16_t size)
ARM GAS  /var/folders/yw/6_x9gyn52jjg4jtn_wsryx_80000gp/T//cc8YnlWV.s 			page 10


  71:../../../libDaisy/src/dev/mpr121.h ****     {
  72:../../../libDaisy/src/dev/mpr121.h ****         return I2CHandle::Result::OK
  73:../../../libDaisy/src/dev/mpr121.h ****                != i2c_.ReceiveBlocking(config_.dev_addr, data, size, 10);
  74:../../../libDaisy/src/dev/mpr121.h ****     }
  75:../../../libDaisy/src/dev/mpr121.h **** 
  76:../../../libDaisy/src/dev/mpr121.h ****   private:
  77:../../../libDaisy/src/dev/mpr121.h ****     I2CHandle i2c_;
  78:../../../libDaisy/src/dev/mpr121.h ****     Config    config_;
  79:../../../libDaisy/src/dev/mpr121.h **** };
  80:../../../libDaisy/src/dev/mpr121.h **** 
  81:../../../libDaisy/src/dev/mpr121.h **** 
  82:../../../libDaisy/src/dev/mpr121.h **** /** @brief Device support for MPR121 12x Capacitive Touch Sensor
  83:../../../libDaisy/src/dev/mpr121.h ****     @author beserge
  84:../../../libDaisy/src/dev/mpr121.h ****     @date December 2021
  85:../../../libDaisy/src/dev/mpr121.h **** */
  86:../../../libDaisy/src/dev/mpr121.h **** template <typename Transport>
  87:../../../libDaisy/src/dev/mpr121.h **** class Mpr121
  88:../../../libDaisy/src/dev/mpr121.h **** {
  89:../../../libDaisy/src/dev/mpr121.h ****   public:
  90:../../../libDaisy/src/dev/mpr121.h ****     Mpr121() {}
  91:../../../libDaisy/src/dev/mpr121.h ****     ~Mpr121() {}
 102              		.loc 7 91 5 is_stmt 1 view -0
 103              		.cfi_startproc
 104              		@ args = 0, pretend = 0, frame = 0
 105              		@ frame_needed = 0, uses_anonymous_args = 0
 106              		@ link register save eliminated.
 107              	.LBB214:
 108              	.LBI214:
  21:../../../libDaisy/src/dev/mpr121.h **** 
 109              		.loc 7 21 5 view .LVU13
  21:../../../libDaisy/src/dev/mpr121.h **** 
 110              		.loc 7 21 5 is_stmt 0 view .LVU14
 111              	.LBE214:
 112              		.loc 7 91 16 view .LVU15
 113 0000 7047     		bx	lr
 114              		.cfi_endproc
 115              	.LFE5365:
 117              		.weak	_ZN5daisy6Mpr121INS_18Mpr121I2CTransportEED1Ev
 118              		.thumb_set _ZN5daisy6Mpr121INS_18Mpr121I2CTransportEED1Ev,_ZN5daisy6Mpr121INS_18Mpr121I2CTransport
 119 0002 00BF     		.section	.text._ZL13AudioCallbackPKfPfj,"ax",%progbits
 120              		.align	1
 121              		.p2align 2,,3
 122              		.syntax unified
 123              		.thumb
 124              		.thumb_func
 126              	_ZL13AudioCallbackPKfPfj:
 127              	.LVL3:
 128              	.LFB4789:
 129              		.file 8 "mpr121Test.cpp"
   1:mpr121Test.cpp **** #include "daisy_seed.h"
   2:mpr121Test.cpp **** #include "daisysp.h"
   3:mpr121Test.cpp **** #include "mpr121.h"
   4:mpr121Test.cpp **** 
   5:mpr121Test.cpp **** using namespace daisy;
   6:mpr121Test.cpp **** using namespace daisysp;
   7:mpr121Test.cpp **** 
   8:mpr121Test.cpp **** // Define the frequencies for the two octaves surrounding middle C
ARM GAS  /var/folders/yw/6_x9gyn52jjg4jtn_wsryx_80000gp/T//cc8YnlWV.s 			page 11


   9:mpr121Test.cpp **** double scale[][12] = {
  10:mpr121Test.cpp ****     // Octave below middle C
  11:mpr121Test.cpp ****     {130.81, 138.59, 146.83, 155.56, 164.81, 174.61, 185.00, 196.00, 207.65, 220.00, 233.08, 246.94
  12:mpr121Test.cpp ****     // Middle C and the octave above
  13:mpr121Test.cpp ****     {261.63, 277.18, 293.66, 311.13, 329.63, 349.23, 369.99, 392.00, 415.30, 440.00, 466.16, 493.88
  14:mpr121Test.cpp ****     // Octave above middle C
  15:mpr121Test.cpp ****     {523.25, 554.37, 587.33, 622.25, 659.26, 698.46, 739.99, 783.99, 830.61, 880.00, 932.33, 987.77
  16:mpr121Test.cpp **** 
  17:mpr121Test.cpp **** DaisySeed hw;
  18:mpr121Test.cpp **** Mpr121I2C mpr121;
  19:mpr121Test.cpp **** Oscillator osc;
  20:mpr121Test.cpp **** 
  21:mpr121Test.cpp **** 
  22:mpr121Test.cpp **** static void AudioCallback(AudioHandle::InterleavingInputBuffer  in,
  23:mpr121Test.cpp ****                           AudioHandle::InterleavingOutputBuffer out,
  24:mpr121Test.cpp ****                           size_t                                size)
  25:mpr121Test.cpp **** {
 130              		.loc 8 25 1 is_stmt 1 view -0
 131              		.cfi_startproc
 132              		@ args = 0, pretend = 0, frame = 0
 133              		@ frame_needed = 0, uses_anonymous_args = 0
  26:mpr121Test.cpp ****     float sig;
 134              		.loc 8 26 5 view .LVU17
  27:mpr121Test.cpp ****     for(size_t i = 0; i < size; i += 2)
 135              		.loc 8 27 5 view .LVU18
 136              	.LBB215:
 137              		.loc 8 27 25 view .LVU19
 138 0000 8AB1     		cbz	r2, .L13
 139 0002 013A     		subs	r2, r2, #1
 140              	.LVL4:
 141              		.loc 8 27 25 is_stmt 0 view .LVU20
 142              	.LBE215:
  25:mpr121Test.cpp ****     float sig;
 143              		.loc 8 25 1 view .LVU21
 144 0004 70B5     		push	{r4, r5, r6, lr}
 145              		.cfi_def_cfa_offset 16
 146              		.cfi_offset 4, -16
 147              		.cfi_offset 5, -12
 148              		.cfi_offset 6, -8
 149              		.cfi_offset 14, -4
 150 0006 0C46     		mov	r4, r1
 151              	.LBB216:
 152              		.loc 8 27 25 view .LVU22
 153 0008 0025     		movs	r5, #0
 154 000a 5608     		lsrs	r6, r2, #1
 155              	.LVL5:
 156              	.L7:
  28:mpr121Test.cpp ****     {
  29:mpr121Test.cpp ****         sig = osc.Process();
 157              		.loc 8 29 9 is_stmt 1 discriminator 2 view .LVU23
 158              		.loc 8 29 26 is_stmt 0 discriminator 2 view .LVU24
 159 000c 0648     		ldr	r0, .L16
  27:mpr121Test.cpp ****     {
 160              		.loc 8 27 25 discriminator 2 view .LVU25
 161 000e 0834     		adds	r4, r4, #8
 162              		.loc 8 29 26 discriminator 2 view .LVU26
 163 0010 FFF7FEFF 		bl	_ZN7daisysp10Oscillator7ProcessEv
ARM GAS  /var/folders/yw/6_x9gyn52jjg4jtn_wsryx_80000gp/T//cc8YnlWV.s 			page 12


 164              	.LVL6:
  30:mpr121Test.cpp **** 
  31:mpr121Test.cpp ****         // left out
  32:mpr121Test.cpp ****         out[i] = sig;
 165              		.loc 8 32 9 is_stmt 1 discriminator 2 view .LVU27
  27:mpr121Test.cpp ****     {
 166              		.loc 8 27 25 is_stmt 0 discriminator 2 view .LVU28
 167 0014 AE42     		cmp	r6, r5
 168              		.loc 8 32 16 discriminator 2 view .LVU29
 169 0016 04ED020A 		vstr.32	s0, [r4, #-8]
  33:mpr121Test.cpp **** 
  34:mpr121Test.cpp ****         // right out
  35:mpr121Test.cpp ****         out[i + 1] = sig;
 170              		.loc 8 35 9 is_stmt 1 discriminator 2 view .LVU30
  27:mpr121Test.cpp ****     {
 171              		.loc 8 27 25 is_stmt 0 discriminator 2 view .LVU31
 172 001a 05F10105 		add	r5, r5, #1
 173              	.LVL7:
 174              		.loc 8 35 20 discriminator 2 view .LVU32
 175 001e 04ED010A 		vstr.32	s0, [r4, #-4]
  27:mpr121Test.cpp ****     {
 176              		.loc 8 27 5 is_stmt 1 discriminator 2 view .LVU33
 177              	.LVL8:
  27:mpr121Test.cpp ****     {
 178              		.loc 8 27 25 discriminator 2 view .LVU34
 179 0022 F3D1     		bne	.L7
 180              	.LBE216:
  36:mpr121Test.cpp ****     }
  37:mpr121Test.cpp **** 
  38:mpr121Test.cpp **** }
 181              		.loc 8 38 1 is_stmt 0 view .LVU35
 182 0024 70BD     		pop	{r4, r5, r6, pc}
 183              	.LVL9:
 184              	.L13:
 185              		.cfi_def_cfa_offset 0
 186              		.cfi_restore 4
 187              		.cfi_restore 5
 188              		.cfi_restore 6
 189              		.cfi_restore 14
 190              		.loc 8 38 1 view .LVU36
 191 0026 7047     		bx	lr
 192              	.L17:
 193              		.align	2
 194              	.L16:
 195 0028 00000000 		.word	.LANCHOR0
 196              		.cfi_endproc
 197              	.LFE4789:
 199              		.section	.text._ZN5daisy6Mpr121INS_18Mpr121I2CTransportEE13WriteRegisterEhh,"axG",%progbits,_ZN5da
 200              		.align	1
 201              		.p2align 2,,3
 202              		.weak	_ZN5daisy6Mpr121INS_18Mpr121I2CTransportEE13WriteRegisterEhh
 203              		.syntax unified
 204              		.thumb
 205              		.thumb_func
 207              	_ZN5daisy6Mpr121INS_18Mpr121I2CTransportEE13WriteRegisterEhh:
 208              	.LVL10:
 209              	.LFB5222:
ARM GAS  /var/folders/yw/6_x9gyn52jjg4jtn_wsryx_80000gp/T//cc8YnlWV.s 			page 13


  92:../../../libDaisy/src/dev/mpr121.h **** 
  93:../../../libDaisy/src/dev/mpr121.h ****     struct Config
  94:../../../libDaisy/src/dev/mpr121.h ****     {
  95:../../../libDaisy/src/dev/mpr121.h ****         typename Transport::Config transport_config;
  96:../../../libDaisy/src/dev/mpr121.h ****         uint8_t                    touch_threshold;
  97:../../../libDaisy/src/dev/mpr121.h ****         uint8_t                    release_threshold;
  98:../../../libDaisy/src/dev/mpr121.h **** 
  99:../../../libDaisy/src/dev/mpr121.h ****         Config()
 100:../../../libDaisy/src/dev/mpr121.h ****         {
 101:../../../libDaisy/src/dev/mpr121.h ****             touch_threshold   = MPR121_TOUCH_THRESHOLD_DEFAULT;
 102:../../../libDaisy/src/dev/mpr121.h ****             release_threshold = MPR121_RELEASE_THRESHOLD_DEFAULT;
 103:../../../libDaisy/src/dev/mpr121.h ****         }
 104:../../../libDaisy/src/dev/mpr121.h ****     };
 105:../../../libDaisy/src/dev/mpr121.h **** 
 106:../../../libDaisy/src/dev/mpr121.h ****     enum Result
 107:../../../libDaisy/src/dev/mpr121.h ****     {
 108:../../../libDaisy/src/dev/mpr121.h ****         OK = 0,
 109:../../../libDaisy/src/dev/mpr121.h ****         ERR
 110:../../../libDaisy/src/dev/mpr121.h ****     };
 111:../../../libDaisy/src/dev/mpr121.h **** 
 112:../../../libDaisy/src/dev/mpr121.h ****     /** Initialize the MPR121 device
 113:../../../libDaisy/src/dev/mpr121.h ****         \param config Configuration settings
 114:../../../libDaisy/src/dev/mpr121.h ****     */
 115:../../../libDaisy/src/dev/mpr121.h ****     Result Init(Config config)
 116:../../../libDaisy/src/dev/mpr121.h ****     {
 117:../../../libDaisy/src/dev/mpr121.h ****         config_ = config;
 118:../../../libDaisy/src/dev/mpr121.h **** 
 119:../../../libDaisy/src/dev/mpr121.h ****         SetTransportErr(transport_.Init(config_.transport_config));
 120:../../../libDaisy/src/dev/mpr121.h **** 
 121:../../../libDaisy/src/dev/mpr121.h ****         // soft reset
 122:../../../libDaisy/src/dev/mpr121.h ****         WriteRegister(MPR121_SOFTRESET, 0x63);
 123:../../../libDaisy/src/dev/mpr121.h ****         System::Delay(1);
 124:../../../libDaisy/src/dev/mpr121.h **** 
 125:../../../libDaisy/src/dev/mpr121.h ****         WriteRegister(MPR121_ECR, 0x0);
 126:../../../libDaisy/src/dev/mpr121.h **** 
 127:../../../libDaisy/src/dev/mpr121.h ****         // this doesn't work for some reason...
 128:../../../libDaisy/src/dev/mpr121.h ****         // uint8_t c = ReadRegister8(MPR121_CONFIG2);
 129:../../../libDaisy/src/dev/mpr121.h **** 
 130:../../../libDaisy/src/dev/mpr121.h ****         // if(c != 0x24)
 131:../../../libDaisy/src/dev/mpr121.h ****         //     return ERR;
 132:../../../libDaisy/src/dev/mpr121.h **** 
 133:../../../libDaisy/src/dev/mpr121.h ****         SetThresholds(config_.touch_threshold, config_.release_threshold);
 134:../../../libDaisy/src/dev/mpr121.h ****         WriteRegister(MPR121_MHDR, 0x01);
 135:../../../libDaisy/src/dev/mpr121.h ****         WriteRegister(MPR121_NHDR, 0x01);
 136:../../../libDaisy/src/dev/mpr121.h ****         WriteRegister(MPR121_NCLR, 0x0E);
 137:../../../libDaisy/src/dev/mpr121.h ****         WriteRegister(MPR121_FDLR, 0x00);
 138:../../../libDaisy/src/dev/mpr121.h **** 
 139:../../../libDaisy/src/dev/mpr121.h ****         WriteRegister(MPR121_MHDF, 0x01);
 140:../../../libDaisy/src/dev/mpr121.h ****         WriteRegister(MPR121_NHDF, 0x05);
 141:../../../libDaisy/src/dev/mpr121.h ****         WriteRegister(MPR121_NCLF, 0x01);
 142:../../../libDaisy/src/dev/mpr121.h ****         WriteRegister(MPR121_FDLF, 0x00);
 143:../../../libDaisy/src/dev/mpr121.h **** 
 144:../../../libDaisy/src/dev/mpr121.h ****         WriteRegister(MPR121_NHDT, 0x00);
 145:../../../libDaisy/src/dev/mpr121.h ****         WriteRegister(MPR121_NCLT, 0x00);
 146:../../../libDaisy/src/dev/mpr121.h ****         WriteRegister(MPR121_FDLT, 0x00);
 147:../../../libDaisy/src/dev/mpr121.h **** 
 148:../../../libDaisy/src/dev/mpr121.h ****         WriteRegister(MPR121_DEBOUNCE, 0);
ARM GAS  /var/folders/yw/6_x9gyn52jjg4jtn_wsryx_80000gp/T//cc8YnlWV.s 			page 14


 149:../../../libDaisy/src/dev/mpr121.h ****         WriteRegister(MPR121_CONFIG1, 0x10); // default, 16uA charge current
 150:../../../libDaisy/src/dev/mpr121.h ****         WriteRegister(MPR121_CONFIG2, 0x20); // 0.5uS encoding, 1ms period
 151:../../../libDaisy/src/dev/mpr121.h **** 
 152:../../../libDaisy/src/dev/mpr121.h ****         // autoconfig
 153:../../../libDaisy/src/dev/mpr121.h ****         // WriteRegister(MPR121_AUTOCONFIG0, 0x0B);
 154:../../../libDaisy/src/dev/mpr121.h **** 
 155:../../../libDaisy/src/dev/mpr121.h ****         // correct values for Vdd = 3.3V
 156:../../../libDaisy/src/dev/mpr121.h ****         // WriteRegister(MPR121_UPLIMIT, 200);     // ((Vdd - 0.7)/Vdd) * 256
 157:../../../libDaisy/src/dev/mpr121.h ****         // WriteRegister(MPR121_TARGETLIMIT, 180); // UPLIMIT * 0.9
 158:../../../libDaisy/src/dev/mpr121.h ****         // WriteRegister(MPR121_LOWLIMIT, 130);    // UPLIMIT * 0.65
 159:../../../libDaisy/src/dev/mpr121.h ****         // autoconfig
 160:../../../libDaisy/src/dev/mpr121.h **** 
 161:../../../libDaisy/src/dev/mpr121.h ****         // enable X electrodes and start MPR121
 162:../../../libDaisy/src/dev/mpr121.h ****         uint8_t ECR_SETTING
 163:../../../libDaisy/src/dev/mpr121.h ****             = 0x80
 164:../../../libDaisy/src/dev/mpr121.h ****               + 12; // 5 bits for baseline tracking & proximity disabled + X
 165:../../../libDaisy/src/dev/mpr121.h ****                     // amount of electrodes running (12)
 166:../../../libDaisy/src/dev/mpr121.h ****         WriteRegister(MPR121_ECR,
 167:../../../libDaisy/src/dev/mpr121.h ****                       ECR_SETTING); // start with above ECR setting
 168:../../../libDaisy/src/dev/mpr121.h **** 
 169:../../../libDaisy/src/dev/mpr121.h ****         return GetTransportErr();
 170:../../../libDaisy/src/dev/mpr121.h ****     }
 171:../../../libDaisy/src/dev/mpr121.h **** 
 172:../../../libDaisy/src/dev/mpr121.h ****     /** Set the touch and release thresholds for all 13 channels on the
 173:../../../libDaisy/src/dev/mpr121.h ****         device to the passed values.
 174:../../../libDaisy/src/dev/mpr121.h ****         \param      touch The touch threshold value from 0 to 255.
 175:../../../libDaisy/src/dev/mpr121.h ****         \param      release The release threshold from 0 to 255.
 176:../../../libDaisy/src/dev/mpr121.h ****     */
 177:../../../libDaisy/src/dev/mpr121.h ****     void SetThresholds(uint8_t touch, uint8_t release)
 178:../../../libDaisy/src/dev/mpr121.h ****     {
 179:../../../libDaisy/src/dev/mpr121.h ****         // set all thresholds (the same)
 180:../../../libDaisy/src/dev/mpr121.h ****         for(uint8_t i = 0; i < 12; i++)
 181:../../../libDaisy/src/dev/mpr121.h ****         {
 182:../../../libDaisy/src/dev/mpr121.h ****             WriteRegister(MPR121_TOUCHTH_0 + 2 * i, touch);
 183:../../../libDaisy/src/dev/mpr121.h ****             WriteRegister(MPR121_RELEASETH_0 + 2 * i, release);
 184:../../../libDaisy/src/dev/mpr121.h ****         }
 185:../../../libDaisy/src/dev/mpr121.h ****     }
 186:../../../libDaisy/src/dev/mpr121.h **** 
 187:../../../libDaisy/src/dev/mpr121.h **** 
 188:../../../libDaisy/src/dev/mpr121.h ****     /** Read the filtered data from channel t. The ADC raw data outputs
 189:../../../libDaisy/src/dev/mpr121.h ****         run through 3 levels of digital filtering to filter out the high
 190:../../../libDaisy/src/dev/mpr121.h ****         frequency and low frequency noise encountered. For detailed information on
 191:../../../libDaisy/src/dev/mpr121.h ****         this filtering see page 6 of the device datasheet.
 192:../../../libDaisy/src/dev/mpr121.h ****         \param      t the channel to read
 193:../../../libDaisy/src/dev/mpr121.h ****         \returns    the filtered reading as a 10 bit unsigned value
 194:../../../libDaisy/src/dev/mpr121.h ****     */
 195:../../../libDaisy/src/dev/mpr121.h ****     uint16_t FilteredData(uint8_t t)
 196:../../../libDaisy/src/dev/mpr121.h ****     {
 197:../../../libDaisy/src/dev/mpr121.h ****         if(t > 12)
 198:../../../libDaisy/src/dev/mpr121.h ****             return 0;
 199:../../../libDaisy/src/dev/mpr121.h ****         return ReadRegister16(MPR121_FILTDATA_0L + t * 2);
 200:../../../libDaisy/src/dev/mpr121.h ****     }
 201:../../../libDaisy/src/dev/mpr121.h **** 
 202:../../../libDaisy/src/dev/mpr121.h ****     /** Read the baseline value for the channel. The 3rd level filtered
 203:../../../libDaisy/src/dev/mpr121.h ****         result is internally 10bit but only high 8 bits are readable
 204:../../../libDaisy/src/dev/mpr121.h ****         from registers 0x1E~0x2A as the baseline value output for each channel.
 205:../../../libDaisy/src/dev/mpr121.h ****         \param      t the channel to read.
ARM GAS  /var/folders/yw/6_x9gyn52jjg4jtn_wsryx_80000gp/T//cc8YnlWV.s 			page 15


 206:../../../libDaisy/src/dev/mpr121.h ****         \returns    the baseline data that was read
 207:../../../libDaisy/src/dev/mpr121.h ****     */
 208:../../../libDaisy/src/dev/mpr121.h ****     uint16_t BaselineData(uint8_t t)
 209:../../../libDaisy/src/dev/mpr121.h ****     {
 210:../../../libDaisy/src/dev/mpr121.h ****         if(t > 12)
 211:../../../libDaisy/src/dev/mpr121.h ****             return 0;
 212:../../../libDaisy/src/dev/mpr121.h ****         uint16_t bl = ReadRegister8(MPR121_BASELINE_0 + t);
 213:../../../libDaisy/src/dev/mpr121.h ****         return (bl << 2);
 214:../../../libDaisy/src/dev/mpr121.h ****     }
 215:../../../libDaisy/src/dev/mpr121.h **** 
 216:../../../libDaisy/src/dev/mpr121.h ****     /** Read the touch status of all 13 channels as bit values in a 12 bit integer.
 217:../../../libDaisy/src/dev/mpr121.h ****         \returns    a 12 bit integer with each bit corresponding to the touch status
 218:../../../libDaisy/src/dev/mpr121.h ****         of a sensor. For example, if bit 0 is set then channel 0 of the
 219:../../../libDaisy/src/dev/mpr121.h ****         device is currently deemed to be touched.
 220:../../../libDaisy/src/dev/mpr121.h ****     */
 221:../../../libDaisy/src/dev/mpr121.h ****     uint16_t Touched()
 222:../../../libDaisy/src/dev/mpr121.h ****     {
 223:../../../libDaisy/src/dev/mpr121.h ****         uint16_t t = ReadRegister16(MPR121_TOUCHSTATUS_L);
 224:../../../libDaisy/src/dev/mpr121.h ****         return t & 0x0FFF;
 225:../../../libDaisy/src/dev/mpr121.h ****     }
 226:../../../libDaisy/src/dev/mpr121.h **** 
 227:../../../libDaisy/src/dev/mpr121.h ****     /** Read the contents of an 8 bit device register.
 228:../../../libDaisy/src/dev/mpr121.h ****         \param      reg the register address to read from
 229:../../../libDaisy/src/dev/mpr121.h ****         \returns    the 8 bit value that was read.
 230:../../../libDaisy/src/dev/mpr121.h ****     */
 231:../../../libDaisy/src/dev/mpr121.h ****     uint8_t ReadRegister8(uint8_t reg)
 232:../../../libDaisy/src/dev/mpr121.h ****     {
 233:../../../libDaisy/src/dev/mpr121.h ****         uint8_t buff;
 234:../../../libDaisy/src/dev/mpr121.h ****         SetTransportErr(transport_.Write(&reg, 1));
 235:../../../libDaisy/src/dev/mpr121.h ****         SetTransportErr(transport_.Read(&buff, 1));
 236:../../../libDaisy/src/dev/mpr121.h **** 
 237:../../../libDaisy/src/dev/mpr121.h ****         return buff;
 238:../../../libDaisy/src/dev/mpr121.h ****     }
 239:../../../libDaisy/src/dev/mpr121.h **** 
 240:../../../libDaisy/src/dev/mpr121.h ****     /** Read the contents of a 16 bit device register.
 241:../../../libDaisy/src/dev/mpr121.h ****         \param      reg the register address to read from
 242:../../../libDaisy/src/dev/mpr121.h ****         \returns    the 16 bit value that was read.
 243:../../../libDaisy/src/dev/mpr121.h ****     */
 244:../../../libDaisy/src/dev/mpr121.h ****     uint16_t ReadRegister16(uint8_t reg)
 245:../../../libDaisy/src/dev/mpr121.h ****     {
 246:../../../libDaisy/src/dev/mpr121.h ****         uint16_t buff;
 247:../../../libDaisy/src/dev/mpr121.h ****         SetTransportErr(transport_.Write(&reg, 1));
 248:../../../libDaisy/src/dev/mpr121.h ****         SetTransportErr(transport_.Read((uint8_t *)&buff, 2));
 249:../../../libDaisy/src/dev/mpr121.h **** 
 250:../../../libDaisy/src/dev/mpr121.h ****         return buff;
 251:../../../libDaisy/src/dev/mpr121.h ****     }
 252:../../../libDaisy/src/dev/mpr121.h **** 
 253:../../../libDaisy/src/dev/mpr121.h ****     /** Writes 8-bits to the specified destination register
 254:../../../libDaisy/src/dev/mpr121.h ****         \param  reg the register address to write to
 255:../../../libDaisy/src/dev/mpr121.h ****         \param  value the value to write
 256:../../../libDaisy/src/dev/mpr121.h ****     */
 257:../../../libDaisy/src/dev/mpr121.h ****     void WriteRegister(uint8_t reg, uint8_t value)
 210              		.loc 7 257 10 is_stmt 1 view -0
 211              		.cfi_startproc
 212              		@ args = 0, pretend = 0, frame = 8
 213              		@ frame_needed = 0, uses_anonymous_args = 0
 214              		.loc 7 257 10 is_stmt 0 view .LVU38
ARM GAS  /var/folders/yw/6_x9gyn52jjg4jtn_wsryx_80000gp/T//cc8YnlWV.s 			page 16


 215 0000 2DE9F043 		push	{r4, r5, r6, r7, r8, r9, lr}
 216              		.cfi_def_cfa_offset 28
 217              		.cfi_offset 4, -28
 218              		.cfi_offset 5, -24
 219              		.cfi_offset 6, -20
 220              		.cfi_offset 7, -16
 221              		.cfi_offset 8, -12
 222              		.cfi_offset 9, -8
 223              		.cfi_offset 14, -4
 258:../../../libDaisy/src/dev/mpr121.h ****     {
 259:../../../libDaisy/src/dev/mpr121.h ****         // MPR121 must be put in Stop Mode to write to most registers
 260:../../../libDaisy/src/dev/mpr121.h ****         bool stop_required = true;
 261:../../../libDaisy/src/dev/mpr121.h **** 
 262:../../../libDaisy/src/dev/mpr121.h ****         // first get the current set value of the MPR121_ECR register
 263:../../../libDaisy/src/dev/mpr121.h ****         uint8_t ecr_reg = MPR121_ECR;
 264:../../../libDaisy/src/dev/mpr121.h ****         uint8_t buff[2] = {ecr_reg, 0x00};
 224              		.loc 7 264 17 view .LVU39
 225 0004 0023     		movs	r3, #0
 257:../../../libDaisy/src/dev/mpr121.h ****     {
 226              		.loc 7 257 10 view .LVU40
 227 0006 85B0     		sub	sp, sp, #20
 228              		.cfi_def_cfa_offset 48
 229              	.LBB247:
 230              	.LBB248:
  66:../../../libDaisy/src/dev/mpr121.h ****     }
 231              		.loc 7 66 40 view .LVU41
 232 0008 00F11806 		add	r6, r0, #24
 233 000c 4FF00A08 		mov	r8, #10
 234              	.LBE248:
 235              	.LBE247:
 257:../../../libDaisy/src/dev/mpr121.h ****     {
 236              		.loc 7 257 10 view .LVU42
 237 0010 0446     		mov	r4, r0
 238              		.loc 7 264 17 view .LVU43
 239 0012 4FF05E09 		mov	r9, #94
 257:../../../libDaisy/src/dev/mpr121.h ****     {
 240              		.loc 7 257 10 view .LVU44
 241 0016 0D46     		mov	r5, r1
 242              		.loc 7 264 17 view .LVU45
 243 0018 8DF80D30 		strb	r3, [sp, #13]
 244              	.LBB252:
 245              	.LBB249:
  66:../../../libDaisy/src/dev/mpr121.h ****     }
 246              		.loc 7 66 40 view .LVU46
 247 001c CDF80080 		str	r8, [sp]
 248 0020 0123     		movs	r3, #1
 249 0022 90F82C10 		ldrb	r1, [r0, #44]	@ zero_extendqisi2
 250              	.LVL11:
  66:../../../libDaisy/src/dev/mpr121.h ****     }
 251              		.loc 7 66 40 view .LVU47
 252              	.LBE249:
 253              	.LBE252:
 257:../../../libDaisy/src/dev/mpr121.h ****     {
 254              		.loc 7 257 10 view .LVU48
 255 0026 1746     		mov	r7, r2
 256              	.LBB253:
 257              	.LBB250:
ARM GAS  /var/folders/yw/6_x9gyn52jjg4jtn_wsryx_80000gp/T//cc8YnlWV.s 			page 17


  66:../../../libDaisy/src/dev/mpr121.h ****     }
 258              		.loc 7 66 40 view .LVU49
 259 0028 3046     		mov	r0, r6
 260              	.LVL12:
  66:../../../libDaisy/src/dev/mpr121.h ****     }
 261              		.loc 7 66 40 view .LVU50
 262 002a 03AA     		add	r2, sp, #12
 263              	.LVL13:
  66:../../../libDaisy/src/dev/mpr121.h ****     }
 264              		.loc 7 66 40 view .LVU51
 265              	.LBE250:
 266              	.LBE253:
 267              		.loc 7 264 17 view .LVU52
 268 002c 8DF80C90 		strb	r9, [sp, #12]
 269              	.LVL14:
 270              	.LBB254:
 271              	.LBI247:
  63:../../../libDaisy/src/dev/mpr121.h ****     {
 272              		.loc 7 63 10 is_stmt 1 view .LVU53
 273              	.LBB251:
  65:../../../libDaisy/src/dev/mpr121.h ****                != i2c_.TransmitBlocking(config_.dev_addr, data, size, 10);
 274              		.loc 7 65 9 view .LVU54
  66:../../../libDaisy/src/dev/mpr121.h ****     }
 275              		.loc 7 66 40 is_stmt 0 view .LVU55
 276 0030 FFF7FEFF 		bl	_ZN5daisy9I2CHandle16TransmitBlockingEtPhtm
 277              	.LVL15:
  66:../../../libDaisy/src/dev/mpr121.h ****     }
 278              		.loc 7 66 40 view .LVU56
 279              	.LBE251:
 280              	.LBE254:
 281              	.LBB255:
 282              	.LBI255:
 265:../../../libDaisy/src/dev/mpr121.h **** 
 266:../../../libDaisy/src/dev/mpr121.h ****         SetTransportErr(transport_.Write(buff, 1));
 267:../../../libDaisy/src/dev/mpr121.h **** 
 268:../../../libDaisy/src/dev/mpr121.h ****         uint8_t ecr_backup;
 269:../../../libDaisy/src/dev/mpr121.h ****         SetTransportErr(transport_.Read(&ecr_backup, 1));
 270:../../../libDaisy/src/dev/mpr121.h ****         if((reg == MPR121_ECR) || ((0x73 <= reg) && (reg <= 0x7A)))
 271:../../../libDaisy/src/dev/mpr121.h ****         {
 272:../../../libDaisy/src/dev/mpr121.h ****             stop_required = false;
 273:../../../libDaisy/src/dev/mpr121.h ****         }
 274:../../../libDaisy/src/dev/mpr121.h **** 
 275:../../../libDaisy/src/dev/mpr121.h ****         if(stop_required)
 276:../../../libDaisy/src/dev/mpr121.h ****         {
 277:../../../libDaisy/src/dev/mpr121.h ****             // clear this register to set stop mode
 278:../../../libDaisy/src/dev/mpr121.h ****             SetTransportErr(transport_.Write(buff, 2));
 279:../../../libDaisy/src/dev/mpr121.h ****         }
 280:../../../libDaisy/src/dev/mpr121.h **** 
 281:../../../libDaisy/src/dev/mpr121.h ****         buff[0] = reg;
 282:../../../libDaisy/src/dev/mpr121.h ****         buff[1] = value;
 283:../../../libDaisy/src/dev/mpr121.h ****         SetTransportErr(transport_.Write(buff, 2));
 284:../../../libDaisy/src/dev/mpr121.h **** 
 285:../../../libDaisy/src/dev/mpr121.h ****         if(stop_required)
 286:../../../libDaisy/src/dev/mpr121.h ****         {
 287:../../../libDaisy/src/dev/mpr121.h ****             // write back the previous set ECR settings
 288:../../../libDaisy/src/dev/mpr121.h ****             buff[0] = ecr_reg;
 289:../../../libDaisy/src/dev/mpr121.h ****             buff[1] = ecr_backup;
ARM GAS  /var/folders/yw/6_x9gyn52jjg4jtn_wsryx_80000gp/T//cc8YnlWV.s 			page 18


 290:../../../libDaisy/src/dev/mpr121.h ****             SetTransportErr(transport_.Write(buff, 2));
 291:../../../libDaisy/src/dev/mpr121.h ****         }
 292:../../../libDaisy/src/dev/mpr121.h ****     }
 293:../../../libDaisy/src/dev/mpr121.h **** 
 294:../../../libDaisy/src/dev/mpr121.h ****     /** Device register map */
 295:../../../libDaisy/src/dev/mpr121.h ****     enum RegMap
 296:../../../libDaisy/src/dev/mpr121.h ****     {
 297:../../../libDaisy/src/dev/mpr121.h ****         MPR121_TOUCHSTATUS_L = 0x00,
 298:../../../libDaisy/src/dev/mpr121.h ****         MPR121_TOUCHSTATUS_H = 0x01,
 299:../../../libDaisy/src/dev/mpr121.h ****         MPR121_FILTDATA_0L   = 0x04,
 300:../../../libDaisy/src/dev/mpr121.h ****         MPR121_FILTDATA_0H   = 0x05,
 301:../../../libDaisy/src/dev/mpr121.h ****         MPR121_BASELINE_0    = 0x1E,
 302:../../../libDaisy/src/dev/mpr121.h ****         MPR121_MHDR          = 0x2B,
 303:../../../libDaisy/src/dev/mpr121.h ****         MPR121_NHDR          = 0x2C,
 304:../../../libDaisy/src/dev/mpr121.h ****         MPR121_NCLR          = 0x2D,
 305:../../../libDaisy/src/dev/mpr121.h ****         MPR121_FDLR          = 0x2E,
 306:../../../libDaisy/src/dev/mpr121.h ****         MPR121_MHDF          = 0x2F,
 307:../../../libDaisy/src/dev/mpr121.h ****         MPR121_NHDF          = 0x30,
 308:../../../libDaisy/src/dev/mpr121.h ****         MPR121_NCLF          = 0x31,
 309:../../../libDaisy/src/dev/mpr121.h ****         MPR121_FDLF          = 0x32,
 310:../../../libDaisy/src/dev/mpr121.h ****         MPR121_NHDT          = 0x33,
 311:../../../libDaisy/src/dev/mpr121.h ****         MPR121_NCLT          = 0x34,
 312:../../../libDaisy/src/dev/mpr121.h ****         MPR121_FDLT          = 0x35,
 313:../../../libDaisy/src/dev/mpr121.h **** 
 314:../../../libDaisy/src/dev/mpr121.h ****         MPR121_TOUCHTH_0    = 0x41,
 315:../../../libDaisy/src/dev/mpr121.h ****         MPR121_RELEASETH_0  = 0x42,
 316:../../../libDaisy/src/dev/mpr121.h ****         MPR121_DEBOUNCE     = 0x5B,
 317:../../../libDaisy/src/dev/mpr121.h ****         MPR121_CONFIG1      = 0x5C,
 318:../../../libDaisy/src/dev/mpr121.h ****         MPR121_CONFIG2      = 0x5D,
 319:../../../libDaisy/src/dev/mpr121.h ****         MPR121_CHARGECURR_0 = 0x5F,
 320:../../../libDaisy/src/dev/mpr121.h ****         MPR121_CHARGETIME_1 = 0x6C,
 321:../../../libDaisy/src/dev/mpr121.h ****         MPR121_ECR          = 0x5E,
 322:../../../libDaisy/src/dev/mpr121.h ****         MPR121_AUTOCONFIG0  = 0x7B,
 323:../../../libDaisy/src/dev/mpr121.h ****         MPR121_AUTOCONFIG1  = 0x7C,
 324:../../../libDaisy/src/dev/mpr121.h ****         MPR121_UPLIMIT      = 0x7D,
 325:../../../libDaisy/src/dev/mpr121.h ****         MPR121_LOWLIMIT     = 0x7E,
 326:../../../libDaisy/src/dev/mpr121.h ****         MPR121_TARGETLIMIT  = 0x7F,
 327:../../../libDaisy/src/dev/mpr121.h **** 
 328:../../../libDaisy/src/dev/mpr121.h ****         MPR121_GPIODIR    = 0x76,
 329:../../../libDaisy/src/dev/mpr121.h ****         MPR121_GPIOEN     = 0x77,
 330:../../../libDaisy/src/dev/mpr121.h ****         MPR121_GPIOSET    = 0x78,
 331:../../../libDaisy/src/dev/mpr121.h ****         MPR121_GPIOCLR    = 0x79,
 332:../../../libDaisy/src/dev/mpr121.h ****         MPR121_GPIOTOGGLE = 0x7A,
 333:../../../libDaisy/src/dev/mpr121.h **** 
 334:../../../libDaisy/src/dev/mpr121.h ****         MPR121_SOFTRESET = 0x80,
 335:../../../libDaisy/src/dev/mpr121.h ****     };
 336:../../../libDaisy/src/dev/mpr121.h **** 
 337:../../../libDaisy/src/dev/mpr121.h ****   private:
 338:../../../libDaisy/src/dev/mpr121.h ****     Config    config_;
 339:../../../libDaisy/src/dev/mpr121.h ****     Transport transport_;
 340:../../../libDaisy/src/dev/mpr121.h ****     bool      transport_error_;
 341:../../../libDaisy/src/dev/mpr121.h **** 
 342:../../../libDaisy/src/dev/mpr121.h ****     /** Set the global transport_error_ bool */
 343:../../../libDaisy/src/dev/mpr121.h ****     void SetTransportErr(bool err) { transport_error_ |= err; }
 283              		.loc 7 343 10 is_stmt 1 view .LVU57
 284              	.LBE255:
 285              	.LBB259:
ARM GAS  /var/folders/yw/6_x9gyn52jjg4jtn_wsryx_80000gp/T//cc8YnlWV.s 			page 19


 286              	.LBB260:
  73:../../../libDaisy/src/dev/mpr121.h ****     }
 287              		.loc 7 73 39 is_stmt 0 view .LVU58
 288 0034 CDF80080 		str	r8, [sp]
 289 0038 0DF10B02 		add	r2, sp, #11
 290              	.LBE260:
 291              	.LBE259:
 292              	.LBB264:
 293              	.LBB256:
 294              		.loc 7 343 55 view .LVU59
 295 003c 94F83030 		ldrb	r3, [r4, #48]	@ zero_extendqisi2
 296              	.LBE256:
 297              	.LBE264:
 298              	.LBB265:
 299              	.LBB261:
  73:../../../libDaisy/src/dev/mpr121.h ****     }
 300              		.loc 7 73 39 view .LVU60
 301 0040 94F82C10 		ldrb	r1, [r4, #44]	@ zero_extendqisi2
 302              	.LBE261:
 303              	.LBE265:
 304              	.LBB266:
 305              	.LBB257:
 306              		.loc 7 343 55 view .LVU61
 307 0044 0028     		cmp	r0, #0
 308 0046 18BF     		it	ne
 309 0048 43F00103 		orrne	r3, r3, #1
 310              	.LBE257:
 311              	.LBE266:
 312              	.LBB267:
 313              	.LBB262:
  73:../../../libDaisy/src/dev/mpr121.h ****     }
 314              		.loc 7 73 39 view .LVU62
 315 004c 3046     		mov	r0, r6
 316              	.LVL16:
  73:../../../libDaisy/src/dev/mpr121.h ****     }
 317              		.loc 7 73 39 view .LVU63
 318              	.LBE262:
 319              	.LBE267:
 320              	.LBB268:
 321              	.LBB258:
 322              		.loc 7 343 55 view .LVU64
 323 004e 84F83030 		strb	r3, [r4, #48]
 324              	.LVL17:
 325              		.loc 7 343 55 view .LVU65
 326              	.LBE258:
 327              	.LBE268:
 328              	.LBB269:
 329              	.LBI259:
  70:../../../libDaisy/src/dev/mpr121.h ****     {
 330              		.loc 7 70 10 is_stmt 1 view .LVU66
 331              	.LBB263:
  72:../../../libDaisy/src/dev/mpr121.h ****                != i2c_.ReceiveBlocking(config_.dev_addr, data, size, 10);
 332              		.loc 7 72 9 view .LVU67
  73:../../../libDaisy/src/dev/mpr121.h ****     }
 333              		.loc 7 73 39 is_stmt 0 view .LVU68
 334 0052 0123     		movs	r3, #1
 335 0054 FFF7FEFF 		bl	_ZN5daisy9I2CHandle15ReceiveBlockingEtPhtm
ARM GAS  /var/folders/yw/6_x9gyn52jjg4jtn_wsryx_80000gp/T//cc8YnlWV.s 			page 20


 336              	.LVL18:
  73:../../../libDaisy/src/dev/mpr121.h ****     }
 337              		.loc 7 73 39 view .LVU69
 338              	.LBE263:
 339              	.LBE269:
 340              	.LBB270:
 341              	.LBI270:
 342              		.loc 7 343 10 is_stmt 1 view .LVU70
 343              	.LBB271:
 344              		.loc 7 343 55 is_stmt 0 view .LVU71
 345 0058 94F83030 		ldrb	r3, [r4, #48]	@ zero_extendqisi2
 346 005c 0028     		cmp	r0, #0
 347 005e 18BF     		it	ne
 348 0060 43F00103 		orrne	r3, r3, #1
 349 0064 84F83030 		strb	r3, [r4, #48]
 350              	.LVL19:
 351              		.loc 7 343 55 view .LVU72
 352              	.LBE271:
 353              	.LBE270:
 270:../../../libDaisy/src/dev/mpr121.h ****         {
 354              		.loc 7 270 50 view .LVU73
 355 0068 A5F17303 		sub	r3, r5, #115
 270:../../../libDaisy/src/dev/mpr121.h ****         {
 356              		.loc 7 270 9 view .LVU74
 357 006c 072B     		cmp	r3, #7
 358 006e 01D9     		bls	.L19
 359 0070 4D45     		cmp	r5, r9
 360 0072 17D1     		bne	.L23
 361              	.L19:
 362              	.LVL20:
 363              	.LBB272:
 364              	.LBB273:
  66:../../../libDaisy/src/dev/mpr121.h ****     }
 365              		.loc 7 66 40 view .LVU75
 366 0074 0A23     		movs	r3, #10
 367 0076 03AA     		add	r2, sp, #12
 368 0078 3046     		mov	r0, r6
 369              	.LBE273:
 370              	.LBE272:
 281:../../../libDaisy/src/dev/mpr121.h ****         buff[1] = value;
 371              		.loc 7 281 17 view .LVU76
 372 007a 8DF80C50 		strb	r5, [sp, #12]
 373              	.LBB282:
 374              	.LBB274:
  66:../../../libDaisy/src/dev/mpr121.h ****     }
 375              		.loc 7 66 40 view .LVU77
 376 007e 0093     		str	r3, [sp]
 377 0080 0223     		movs	r3, #2
 378              	.LBE274:
 379              	.LBE282:
 282:../../../libDaisy/src/dev/mpr121.h ****         SetTransportErr(transport_.Write(buff, 2));
 380              		.loc 7 282 17 view .LVU78
 381 0082 8DF80D70 		strb	r7, [sp, #13]
 382              	.LVL21:
 383              	.LBB283:
 384              	.LBI272:
  63:../../../libDaisy/src/dev/mpr121.h ****     {
ARM GAS  /var/folders/yw/6_x9gyn52jjg4jtn_wsryx_80000gp/T//cc8YnlWV.s 			page 21


 385              		.loc 7 63 10 is_stmt 1 view .LVU79
 386              	.LBB275:
  65:../../../libDaisy/src/dev/mpr121.h ****                != i2c_.TransmitBlocking(config_.dev_addr, data, size, 10);
 387              		.loc 7 65 9 view .LVU80
 388              	.L22:
  66:../../../libDaisy/src/dev/mpr121.h ****     }
 389              		.loc 7 66 40 is_stmt 0 view .LVU81
 390 0086 94F82C10 		ldrb	r1, [r4, #44]	@ zero_extendqisi2
 391 008a FFF7FEFF 		bl	_ZN5daisy9I2CHandle16TransmitBlockingEtPhtm
 392              	.LVL22:
  66:../../../libDaisy/src/dev/mpr121.h ****     }
 393              		.loc 7 66 40 view .LVU82
 394              	.LBE275:
 395              	.LBE283:
 396              	.LBB284:
 397              	.LBI284:
 398              		.loc 7 343 10 is_stmt 1 view .LVU83
 399              	.LBB285:
 400              		.loc 7 343 55 is_stmt 0 view .LVU84
 401 008e 94F83030 		ldrb	r3, [r4, #48]	@ zero_extendqisi2
 402 0092 0028     		cmp	r0, #0
 403 0094 18BF     		it	ne
 404 0096 43F00103 		orrne	r3, r3, #1
 405 009a 84F83030 		strb	r3, [r4, #48]
 406              	.LVL23:
 407              		.loc 7 343 55 view .LVU85
 408              	.LBE285:
 409              	.LBE284:
 292:../../../libDaisy/src/dev/mpr121.h **** 
 410              		.loc 7 292 5 view .LVU86
 411 009e 05B0     		add	sp, sp, #20
 412              		.cfi_remember_state
 413              		.cfi_def_cfa_offset 28
 414              		@ sp needed
 415 00a0 BDE8F083 		pop	{r4, r5, r6, r7, r8, r9, pc}
 416              	.LVL24:
 417              	.L23:
 418              		.cfi_restore_state
 419              	.LBB289:
 420              	.LBI289:
  63:../../../libDaisy/src/dev/mpr121.h ****     {
 421              		.loc 7 63 10 is_stmt 1 view .LVU87
 422              	.LBB290:
  65:../../../libDaisy/src/dev/mpr121.h ****                != i2c_.TransmitBlocking(config_.dev_addr, data, size, 10);
 423              		.loc 7 65 9 view .LVU88
  66:../../../libDaisy/src/dev/mpr121.h ****     }
 424              		.loc 7 66 40 is_stmt 0 view .LVU89
 425 00a4 0223     		movs	r3, #2
 426 00a6 03AA     		add	r2, sp, #12
 427              	.LVL25:
  66:../../../libDaisy/src/dev/mpr121.h ****     }
 428              		.loc 7 66 40 view .LVU90
 429 00a8 CDF80080 		str	r8, [sp]
 430 00ac 3046     		mov	r0, r6
 431 00ae 94F82C10 		ldrb	r1, [r4, #44]	@ zero_extendqisi2
 432 00b2 FFF7FEFF 		bl	_ZN5daisy9I2CHandle16TransmitBlockingEtPhtm
 433              	.LVL26:
ARM GAS  /var/folders/yw/6_x9gyn52jjg4jtn_wsryx_80000gp/T//cc8YnlWV.s 			page 22


  66:../../../libDaisy/src/dev/mpr121.h ****     }
 434              		.loc 7 66 40 view .LVU91
 435              	.LBE290:
 436              	.LBE289:
 437              	.LBB291:
 438              	.LBI291:
 439              		.loc 7 343 10 is_stmt 1 view .LVU92
 440              	.LBE291:
 441              	.LBB295:
 442              	.LBB276:
  66:../../../libDaisy/src/dev/mpr121.h ****     }
 443              		.loc 7 66 40 is_stmt 0 view .LVU93
 444 00b6 CDF80080 		str	r8, [sp]
 445              	.LBE276:
 446              	.LBE295:
 447              	.LBB296:
 448              	.LBB292:
 449              		.loc 7 343 55 view .LVU94
 450 00ba 94F83030 		ldrb	r3, [r4, #48]	@ zero_extendqisi2
 451              	.LBE292:
 452              	.LBE296:
 453              	.LBB297:
 454              	.LBB277:
  66:../../../libDaisy/src/dev/mpr121.h ****     }
 455              		.loc 7 66 40 view .LVU95
 456 00be 03AA     		add	r2, sp, #12
 457 00c0 94F82C10 		ldrb	r1, [r4, #44]	@ zero_extendqisi2
 458              	.LBE277:
 459              	.LBE297:
 460              	.LBB298:
 461              	.LBB293:
 462              		.loc 7 343 55 view .LVU96
 463 00c4 0028     		cmp	r0, #0
 464 00c6 18BF     		it	ne
 465 00c8 43F00103 		orrne	r3, r3, #1
 466              	.LBE293:
 467              	.LBE298:
 468              	.LBB299:
 469              	.LBB278:
  66:../../../libDaisy/src/dev/mpr121.h ****     }
 470              		.loc 7 66 40 view .LVU97
 471 00cc 3046     		mov	r0, r6
 472              	.LVL27:
  66:../../../libDaisy/src/dev/mpr121.h ****     }
 473              		.loc 7 66 40 view .LVU98
 474              	.LBE278:
 475              	.LBE299:
 281:../../../libDaisy/src/dev/mpr121.h ****         buff[1] = value;
 476              		.loc 7 281 17 view .LVU99
 477 00ce 8DF80C50 		strb	r5, [sp, #12]
 478              	.LBB300:
 479              	.LBB294:
 480              		.loc 7 343 55 view .LVU100
 481 00d2 84F83030 		strb	r3, [r4, #48]
 482              	.LVL28:
 483              		.loc 7 343 55 view .LVU101
 484              	.LBE294:
ARM GAS  /var/folders/yw/6_x9gyn52jjg4jtn_wsryx_80000gp/T//cc8YnlWV.s 			page 23


 485              	.LBE300:
 486              	.LBB301:
  63:../../../libDaisy/src/dev/mpr121.h ****     {
 487              		.loc 7 63 10 is_stmt 1 view .LVU102
 488              	.LBB279:
  65:../../../libDaisy/src/dev/mpr121.h ****                != i2c_.TransmitBlocking(config_.dev_addr, data, size, 10);
 489              		.loc 7 65 9 view .LVU103
  66:../../../libDaisy/src/dev/mpr121.h ****     }
 490              		.loc 7 66 40 is_stmt 0 view .LVU104
 491 00d6 0223     		movs	r3, #2
 492              	.LBE279:
 493              	.LBE301:
 282:../../../libDaisy/src/dev/mpr121.h ****         SetTransportErr(transport_.Write(buff, 2));
 494              		.loc 7 282 17 view .LVU105
 495 00d8 8DF80D70 		strb	r7, [sp, #13]
 496              	.LBB302:
 497              	.LBB280:
  66:../../../libDaisy/src/dev/mpr121.h ****     }
 498              		.loc 7 66 40 view .LVU106
 499 00dc FFF7FEFF 		bl	_ZN5daisy9I2CHandle16TransmitBlockingEtPhtm
 500              	.LVL29:
  66:../../../libDaisy/src/dev/mpr121.h ****     }
 501              		.loc 7 66 40 view .LVU107
 502              	.LBE280:
 503              	.LBE302:
 504              	.LBB303:
 505              	.LBB304:
 506 00e0 CDF80080 		str	r8, [sp]
 507              	.LBE304:
 508              	.LBE303:
 509              	.LBB309:
 510              	.LBB281:
 511 00e4 0546     		mov	r5, r0
 512              	.LVL30:
  66:../../../libDaisy/src/dev/mpr121.h ****     }
 513              		.loc 7 66 40 view .LVU108
 514              	.LBE281:
 515              	.LBE309:
 516              	.LBB310:
 517              		.loc 7 343 10 is_stmt 1 view .LVU109
 518              	.LBB286:
 519              		.loc 7 343 55 is_stmt 0 view .LVU110
 520 00e6 94F83010 		ldrb	r1, [r4, #48]	@ zero_extendqisi2
 521              	.LBE286:
 522              	.LBE310:
 523              	.LBB311:
 524              	.LBB305:
  66:../../../libDaisy/src/dev/mpr121.h ****     }
 525              		.loc 7 66 40 view .LVU111
 526 00ea 03AA     		add	r2, sp, #12
 527              	.LBE305:
 528              	.LBE311:
 289:../../../libDaisy/src/dev/mpr121.h ****             SetTransportErr(transport_.Write(buff, 2));
 529              		.loc 7 289 21 view .LVU112
 530 00ec 9DF80B30 		ldrb	r3, [sp, #11]	@ zero_extendqisi2
 531              	.LBB312:
 532              	.LBB306:
ARM GAS  /var/folders/yw/6_x9gyn52jjg4jtn_wsryx_80000gp/T//cc8YnlWV.s 			page 24


  66:../../../libDaisy/src/dev/mpr121.h ****     }
 533              		.loc 7 66 40 view .LVU113
 534 00f0 3046     		mov	r0, r6
 535              	.LVL31:
  66:../../../libDaisy/src/dev/mpr121.h ****     }
 536              		.loc 7 66 40 view .LVU114
 537              	.LBE306:
 538              	.LBE312:
 539              	.LBB313:
 540              	.LBB287:
 541              		.loc 7 343 55 view .LVU115
 542 00f2 002D     		cmp	r5, #0
 543 00f4 18BF     		it	ne
 544 00f6 41F00101 		orrne	r1, r1, #1
 545              	.LBE287:
 546              	.LBE313:
 288:../../../libDaisy/src/dev/mpr121.h ****             buff[1] = ecr_backup;
 547              		.loc 7 288 21 view .LVU116
 548 00fa 8DF80C90 		strb	r9, [sp, #12]
 289:../../../libDaisy/src/dev/mpr121.h ****             SetTransportErr(transport_.Write(buff, 2));
 549              		.loc 7 289 21 view .LVU117
 550 00fe 8DF80D30 		strb	r3, [sp, #13]
 551              	.LBB314:
 552              	.LBB307:
  66:../../../libDaisy/src/dev/mpr121.h ****     }
 553              		.loc 7 66 40 view .LVU118
 554 0102 0223     		movs	r3, #2
 555              	.LBE307:
 556              	.LBE314:
 557              	.LBB315:
 558              	.LBB288:
 559              		.loc 7 343 55 view .LVU119
 560 0104 84F83010 		strb	r1, [r4, #48]
 561              	.LVL32:
 562              		.loc 7 343 55 view .LVU120
 563              	.LBE288:
 564              	.LBE315:
 565              	.LBB316:
 566              	.LBI303:
  63:../../../libDaisy/src/dev/mpr121.h ****     {
 567              		.loc 7 63 10 is_stmt 1 view .LVU121
 568              	.LBB308:
  65:../../../libDaisy/src/dev/mpr121.h ****                != i2c_.TransmitBlocking(config_.dev_addr, data, size, 10);
 569              		.loc 7 65 9 view .LVU122
 570 0108 BDE7     		b	.L22
 571              	.LBE308:
 572              	.LBE316:
 573              		.cfi_endproc
 574              	.LFE5222:
 576 010a 00BF     		.section	.rodata.main.str1.4,"aMS",%progbits,1
 577              		.align	2
 578              	.LC0:
 579 0000 4368616E 		.ascii	"Channel %d touched\000"
 579      6E656C20 
 579      25642074 
 579      6F756368 
 579      656400
ARM GAS  /var/folders/yw/6_x9gyn52jjg4jtn_wsryx_80000gp/T//cc8YnlWV.s 			page 25


 580              		.section	.text.startup.main,"ax",%progbits
 581              		.align	1
 582              		.p2align 2,,3
 583              		.global	main
 584              		.syntax unified
 585              		.thumb
 586              		.thumb_func
 588              	main:
 589              	.LFB4790:
  39:mpr121Test.cpp **** 
  40:mpr121Test.cpp **** int main(void)
  41:mpr121Test.cpp **** {
 590              		.loc 8 41 1 view -0
 591              		.cfi_startproc
 592              		@ args = 0, pretend = 0, frame = 40
 593              		@ frame_needed = 0, uses_anonymous_args = 0
  42:mpr121Test.cpp **** 	hw.Init();
 594              		.loc 8 42 2 view .LVU124
  41:mpr121Test.cpp **** 	hw.Init();
 595              		.loc 8 41 1 is_stmt 0 view .LVU125
 596 0000 2DE9F04F 		push	{r4, r5, r6, r7, r8, r9, r10, fp, lr}
 597              		.cfi_def_cfa_offset 36
 598              		.cfi_offset 4, -36
 599              		.cfi_offset 5, -32
 600              		.cfi_offset 6, -28
 601              		.cfi_offset 7, -24
 602              		.cfi_offset 8, -20
 603              		.cfi_offset 9, -16
 604              		.cfi_offset 10, -12
 605              		.cfi_offset 11, -8
 606              		.cfi_offset 14, -4
 607              		.loc 8 42 9 view .LVU126
 608 0004 0021     		movs	r1, #0
 609 0006 CC48     		ldr	r0, .L49
 610              	.LBB430:
 611              	.LBB431:
  17:../../../DaisySP/Source/Synthesis/oscillator.h ****     /** Choices for output waveforms, POLYBLEP are appropriately labeled. Others are naive forms.
  18:../../../DaisySP/Source/Synthesis/oscillator.h ****     */
  19:../../../DaisySP/Source/Synthesis/oscillator.h ****     enum
  20:../../../DaisySP/Source/Synthesis/oscillator.h ****     {
  21:../../../DaisySP/Source/Synthesis/oscillator.h ****         WAVE_SIN,
  22:../../../DaisySP/Source/Synthesis/oscillator.h ****         WAVE_TRI,
  23:../../../DaisySP/Source/Synthesis/oscillator.h ****         WAVE_SAW,
  24:../../../DaisySP/Source/Synthesis/oscillator.h ****         WAVE_RAMP,
  25:../../../DaisySP/Source/Synthesis/oscillator.h ****         WAVE_SQUARE,
  26:../../../DaisySP/Source/Synthesis/oscillator.h ****         WAVE_POLYBLEP_TRI,
  27:../../../DaisySP/Source/Synthesis/oscillator.h ****         WAVE_POLYBLEP_SAW,
  28:../../../DaisySP/Source/Synthesis/oscillator.h ****         WAVE_POLYBLEP_SQUARE,
  29:../../../DaisySP/Source/Synthesis/oscillator.h ****         WAVE_LAST,
  30:../../../DaisySP/Source/Synthesis/oscillator.h ****     };
  31:../../../DaisySP/Source/Synthesis/oscillator.h **** 
  32:../../../DaisySP/Source/Synthesis/oscillator.h **** 
  33:../../../DaisySP/Source/Synthesis/oscillator.h ****     /** Initializes the Oscillator
  34:../../../DaisySP/Source/Synthesis/oscillator.h **** 
  35:../../../DaisySP/Source/Synthesis/oscillator.h ****         \param sample_rate - sample rate of the audio engine being run, and the frequency that the 
  36:../../../DaisySP/Source/Synthesis/oscillator.h **** 
  37:../../../DaisySP/Source/Synthesis/oscillator.h ****         Defaults:
ARM GAS  /var/folders/yw/6_x9gyn52jjg4jtn_wsryx_80000gp/T//cc8YnlWV.s 			page 26


  38:../../../DaisySP/Source/Synthesis/oscillator.h ****         - freq_ = 100 Hz
  39:../../../DaisySP/Source/Synthesis/oscillator.h ****         - amp_ = 0.5
  40:../../../DaisySP/Source/Synthesis/oscillator.h ****         - waveform_ = sine wave.
  41:../../../DaisySP/Source/Synthesis/oscillator.h ****     */
  42:../../../DaisySP/Source/Synthesis/oscillator.h ****     void Init(float sample_rate)
  43:../../../DaisySP/Source/Synthesis/oscillator.h ****     {
  44:../../../DaisySP/Source/Synthesis/oscillator.h ****         sr_        = sample_rate;
 612              		.loc 6 44 20 view .LVU127
 613 0008 CC4F     		ldr	r7, .L49+4
  45:../../../DaisySP/Source/Synthesis/oscillator.h ****         sr_recip_  = 1.0f / sample_rate;
  46:../../../DaisySP/Source/Synthesis/oscillator.h ****         freq_      = 100.0f;
  47:../../../DaisySP/Source/Synthesis/oscillator.h ****         amp_       = 0.5f;
  48:../../../DaisySP/Source/Synthesis/oscillator.h ****         pw_        = 0.5f;
  49:../../../DaisySP/Source/Synthesis/oscillator.h ****         pw_rad_    = pw_ * TWOPI_F;
  50:../../../DaisySP/Source/Synthesis/oscillator.h ****         phase_     = 0.0f;
  51:../../../DaisySP/Source/Synthesis/oscillator.h ****         phase_inc_ = CalcPhaseInc(freq_);
  52:../../../DaisySP/Source/Synthesis/oscillator.h ****         waveform_  = WAVE_SIN;
 614              		.loc 6 52 20 view .LVU128
 615 000a 4FF00008 		mov	r8, #0
 616              	.LBE431:
 617              	.LBE430:
 618              	.LBB437:
 619              	.LBB438:
 117:../../../libDaisy/src/dev/mpr121.h **** 
 620              		.loc 7 117 9 view .LVU129
 621 000e CC4E     		ldr	r6, .L49+8
 622 0010 4FF00109 		mov	r9, #1
 623              	.LBB439:
 624              	.LBB440:
 625              	.LBB441:
 626              	.LBB442:
 627              		.file 9 "../../../libDaisy/src/per/i2c.h"
   1:../../../libDaisy/src/per/i2c.h **** #pragma once
   2:../../../libDaisy/src/per/i2c.h **** #include "daisy_core.h"
   3:../../../libDaisy/src/per/i2c.h **** 
   4:../../../libDaisy/src/per/i2c.h **** namespace daisy
   5:../../../libDaisy/src/per/i2c.h **** {
   6:../../../libDaisy/src/per/i2c.h **** /** A handle for interacting with an I2C peripheral. This is a dumb
   7:../../../libDaisy/src/per/i2c.h ****  *  gateway that internally points to one of the four I2C peripherals
   8:../../../libDaisy/src/per/i2c.h ****  *  after it was initialised. It can then be copied and passed around.
   9:../../../libDaisy/src/per/i2c.h ****  *  Use an I2CHandle like this:
  10:../../../libDaisy/src/per/i2c.h ****  *  
  11:../../../libDaisy/src/per/i2c.h ****  *      // setup the configuration
  12:../../../libDaisy/src/per/i2c.h ****  *      I2CHandle::Config i2c_conf;
  13:../../../libDaisy/src/per/i2c.h ****  *      i2c_conf.periph = I2CHandle::Config::Peripheral::I2C_1;
  14:../../../libDaisy/src/per/i2c.h ****  *      i2c_conf.speed  = I2CHandle::Config::Speed::I2C_400KHZ;
  15:../../../libDaisy/src/per/i2c.h ****  *      i2c_conf.mode   = I2CHandle::Config::Mode::Master;
  16:../../../libDaisy/src/per/i2c.h ****  *      i2c_conf.pin_config.scl  = {DSY_GPIOB, 8};
  17:../../../libDaisy/src/per/i2c.h ****  *      i2c_conf.pin_config.sda  = {DSY_GPIOB, 9};
  18:../../../libDaisy/src/per/i2c.h ****  *      // initialise the peripheral
  19:../../../libDaisy/src/per/i2c.h ****  *      I2CHandle i2c;
  20:../../../libDaisy/src/per/i2c.h ****  *      i2c.Init(i2c_conf);
  21:../../../libDaisy/src/per/i2c.h ****  *      // now i2c points to the corresponding peripheral and can be used.
  22:../../../libDaisy/src/per/i2c.h ****  *      i2c.TransmitBlocking( ... );
  23:../../../libDaisy/src/per/i2c.h ****  */
  24:../../../libDaisy/src/per/i2c.h **** class I2CHandle
  25:../../../libDaisy/src/per/i2c.h **** {
ARM GAS  /var/folders/yw/6_x9gyn52jjg4jtn_wsryx_80000gp/T//cc8YnlWV.s 			page 27


  26:../../../libDaisy/src/per/i2c.h ****   public:
  27:../../../libDaisy/src/per/i2c.h ****     /** Contains settings for initialising an I2C interface. */
  28:../../../libDaisy/src/per/i2c.h ****     struct Config
 628              		.loc 9 28 12 view .LVU130
 629 0014 4FF0100B 		mov	fp, #16
 630              	.LBE442:
 631              	.LBE441:
 632              	.LBE440:
 633              	.LBE439:
 133:../../../libDaisy/src/dev/mpr121.h ****         WriteRegister(MPR121_MHDR, 0x01);
 634              		.loc 7 133 22 view .LVU131
 635 0018 4125     		movs	r5, #65
 636              	.LBB453:
 637              	.LBB446:
  49:../../../libDaisy/src/dev/mpr121.h **** 
 638              		.loc 7 49 17 view .LVU132
 639 001a 06F11C04 		add	r4, r6, #28
 640              	.LBE446:
 641              	.LBE453:
 642              	.LBE438:
 643              	.LBE437:
  41:mpr121Test.cpp **** 	hw.Init();
 644              		.loc 8 41 1 view .LVU133
 645 001e 2DED028B 		vpush.64	{d8}
 646              		.cfi_def_cfa_offset 44
 647              		.cfi_offset 80, -44
 648              		.cfi_offset 81, -40
 649 0022 8DB0     		sub	sp, sp, #52
 650              		.cfi_def_cfa_offset 96
 651              	.LBB628:
 652              	.LBB432:
  45:../../../DaisySP/Source/Synthesis/oscillator.h ****         freq_      = 100.0f;
 653              		.loc 6 45 27 view .LVU134
 654 0024 B7EE008A 		vmov.f32	s16, #1.0e+0
 655              	.LBE432:
 656              	.LBE628:
 657              		.loc 8 42 9 view .LVU135
 658 0028 FFF7FEFF 		bl	_ZN5daisy9DaisySeed4InitEb
 659              	.LVL33:
  43:mpr121Test.cpp ****     hw.StartLog();
 660              		.loc 8 43 5 is_stmt 1 view .LVU136
 661              	.LBB629:
 662              	.LBI629:
  23:../../../libDaisy/src/daisy_seed.h **** 
  24:../../../libDaisy/src/daisy_seed.h ****     /** This function used to provide a pre-initialization configuraiton 
  25:../../../libDaisy/src/daisy_seed.h ****      *  it has since been deprecated, and does nothing.
  26:../../../libDaisy/src/daisy_seed.h ****      */
  27:../../../libDaisy/src/daisy_seed.h ****     void Configure();
  28:../../../libDaisy/src/daisy_seed.h **** 
  29:../../../libDaisy/src/daisy_seed.h ****     /** 
  30:../../../libDaisy/src/daisy_seed.h ****     Initializes the Daisy Seed and the following peripherals:
  31:../../../libDaisy/src/daisy_seed.h ****     SDRAM, QSPI, 24-bit 48kHz Audio via AK4556, Internal USB,
  32:../../../libDaisy/src/daisy_seed.h ****     as well as the built-in LED and Testpoint.
  33:../../../libDaisy/src/daisy_seed.h **** 
  34:../../../libDaisy/src/daisy_seed.h ****     ADCs, DACs, and other special peripherals (such as I2C, SPI, etc.)
  35:../../../libDaisy/src/daisy_seed.h ****     can be initialized using their specific initializers within libdaisy
  36:../../../libDaisy/src/daisy_seed.h ****     for a specific application.
ARM GAS  /var/folders/yw/6_x9gyn52jjg4jtn_wsryx_80000gp/T//cc8YnlWV.s 			page 28


  37:../../../libDaisy/src/daisy_seed.h ****     */
  38:../../../libDaisy/src/daisy_seed.h ****     void Init(bool boost = false);
  39:../../../libDaisy/src/daisy_seed.h **** 
  40:../../../libDaisy/src/daisy_seed.h ****     /** 
  41:../../../libDaisy/src/daisy_seed.h ****     Deinitializes all peripherals automatically handled by `Init`.
  42:../../../libDaisy/src/daisy_seed.h ****     */
  43:../../../libDaisy/src/daisy_seed.h ****     void DeInit();
  44:../../../libDaisy/src/daisy_seed.h **** 
  45:../../../libDaisy/src/daisy_seed.h ****     /** 
  46:../../../libDaisy/src/daisy_seed.h ****     Wait some ms before going on.
  47:../../../libDaisy/src/daisy_seed.h ****     \param del Delay time in ms.
  48:../../../libDaisy/src/daisy_seed.h ****     */
  49:../../../libDaisy/src/daisy_seed.h ****     void DelayMs(size_t del);
  50:../../../libDaisy/src/daisy_seed.h **** 
  51:../../../libDaisy/src/daisy_seed.h ****     /** 
  52:../../../libDaisy/src/daisy_seed.h ****     Returns the gpio_pin corresponding to the index 0-31.
  53:../../../libDaisy/src/daisy_seed.h ****     For the given GPIO on the Daisy Seed (labeled 1-32 in docs).
  54:../../../libDaisy/src/daisy_seed.h ****     */
  55:../../../libDaisy/src/daisy_seed.h ****     static dsy_gpio_pin GetPin(uint8_t pin_idx);
  56:../../../libDaisy/src/daisy_seed.h **** 
  57:../../../libDaisy/src/daisy_seed.h ****     /** Begins the audio for the seeds builtin audio.
  58:../../../libDaisy/src/daisy_seed.h ****     the specified callback will get called whenever
  59:../../../libDaisy/src/daisy_seed.h ****     new data is ready to be prepared.
  60:../../../libDaisy/src/daisy_seed.h ****     */
  61:../../../libDaisy/src/daisy_seed.h ****     void StartAudio(AudioHandle::InterleavingAudioCallback cb);
  62:../../../libDaisy/src/daisy_seed.h **** 
  63:../../../libDaisy/src/daisy_seed.h ****     /** Begins the audio for the seeds builtin audio.
  64:../../../libDaisy/src/daisy_seed.h ****     the specified callback will get called whenever
  65:../../../libDaisy/src/daisy_seed.h ****     new data is ready to be prepared.
  66:../../../libDaisy/src/daisy_seed.h ****     This will use the newer non-interleaved callback.
  67:../../../libDaisy/src/daisy_seed.h ****     */
  68:../../../libDaisy/src/daisy_seed.h ****     void StartAudio(AudioHandle::AudioCallback cb);
  69:../../../libDaisy/src/daisy_seed.h **** 
  70:../../../libDaisy/src/daisy_seed.h ****     /** Changes to a new interleaved callback
  71:../../../libDaisy/src/daisy_seed.h ****      */
  72:../../../libDaisy/src/daisy_seed.h ****     void ChangeAudioCallback(AudioHandle::InterleavingAudioCallback cb);
  73:../../../libDaisy/src/daisy_seed.h **** 
  74:../../../libDaisy/src/daisy_seed.h ****     /** Changes to a new multichannel callback
  75:../../../libDaisy/src/daisy_seed.h ****      */
  76:../../../libDaisy/src/daisy_seed.h ****     void ChangeAudioCallback(AudioHandle::AudioCallback cb);
  77:../../../libDaisy/src/daisy_seed.h **** 
  78:../../../libDaisy/src/daisy_seed.h ****     /** Stops the audio if it is running. */
  79:../../../libDaisy/src/daisy_seed.h ****     void StopAudio();
  80:../../../libDaisy/src/daisy_seed.h **** 
  81:../../../libDaisy/src/daisy_seed.h ****     /** Updates the Audio Sample Rate, and reinitializes.
  82:../../../libDaisy/src/daisy_seed.h ****      ** Audio must be stopped for this to work.
  83:../../../libDaisy/src/daisy_seed.h ****      */
  84:../../../libDaisy/src/daisy_seed.h ****     void SetAudioSampleRate(SaiHandle::Config::SampleRate samplerate);
  85:../../../libDaisy/src/daisy_seed.h **** 
  86:../../../libDaisy/src/daisy_seed.h ****     /** Returns the audio sample rate in Hz as a floating point number.
  87:../../../libDaisy/src/daisy_seed.h ****      */
  88:../../../libDaisy/src/daisy_seed.h ****     float AudioSampleRate();
  89:../../../libDaisy/src/daisy_seed.h **** 
  90:../../../libDaisy/src/daisy_seed.h ****     /** Sets the number of samples processed per channel by the audio callback.
  91:../../../libDaisy/src/daisy_seed.h ****      */
  92:../../../libDaisy/src/daisy_seed.h ****     void SetAudioBlockSize(size_t blocksize);
  93:../../../libDaisy/src/daisy_seed.h **** 
ARM GAS  /var/folders/yw/6_x9gyn52jjg4jtn_wsryx_80000gp/T//cc8YnlWV.s 			page 29


  94:../../../libDaisy/src/daisy_seed.h ****     /** Returns the number of samples per channel in a block of audio. */
  95:../../../libDaisy/src/daisy_seed.h ****     size_t AudioBlockSize();
  96:../../../libDaisy/src/daisy_seed.h **** 
  97:../../../libDaisy/src/daisy_seed.h ****     /** Returns the rate in Hz that the Audio callback is called */
  98:../../../libDaisy/src/daisy_seed.h ****     float AudioCallbackRate() const;
  99:../../../libDaisy/src/daisy_seed.h **** 
 100:../../../libDaisy/src/daisy_seed.h ****     /** Sets the state of the built in LED
 101:../../../libDaisy/src/daisy_seed.h ****      */
 102:../../../libDaisy/src/daisy_seed.h ****     void SetLed(bool state);
 103:../../../libDaisy/src/daisy_seed.h **** 
 104:../../../libDaisy/src/daisy_seed.h ****     /** Sets the state of the test point near pin 10
 105:../../../libDaisy/src/daisy_seed.h ****      */
 106:../../../libDaisy/src/daisy_seed.h ****     void SetTestPoint(bool state);
 107:../../../libDaisy/src/daisy_seed.h **** 
 108:../../../libDaisy/src/daisy_seed.h ****     /** Print formatted debug log message
 109:../../../libDaisy/src/daisy_seed.h ****      */
 110:../../../libDaisy/src/daisy_seed.h ****     template <typename... VA>
 111:../../../libDaisy/src/daisy_seed.h ****     static void Print(const char* format, VA... va)
 112:../../../libDaisy/src/daisy_seed.h ****     {
 113:../../../libDaisy/src/daisy_seed.h ****         Log::Print(format, va...);
 114:../../../libDaisy/src/daisy_seed.h ****     }
 115:../../../libDaisy/src/daisy_seed.h **** 
 116:../../../libDaisy/src/daisy_seed.h ****     /** Print formatted debug log message with automatic line termination
 117:../../../libDaisy/src/daisy_seed.h ****     */
 118:../../../libDaisy/src/daisy_seed.h ****     template <typename... VA>
 119:../../../libDaisy/src/daisy_seed.h ****     static void PrintLine(const char* format, VA... va)
 120:../../../libDaisy/src/daisy_seed.h ****     {
 121:../../../libDaisy/src/daisy_seed.h ****         Log::PrintLine(format, va...);
 122:../../../libDaisy/src/daisy_seed.h ****     }
 123:../../../libDaisy/src/daisy_seed.h **** 
 124:../../../libDaisy/src/daisy_seed.h ****     /** Start the logging session. Optionally wait for terminal connection before proceeding.
 125:../../../libDaisy/src/daisy_seed.h ****     */
 126:../../../libDaisy/src/daisy_seed.h ****     static void StartLog(bool wait_for_pc = false)
 663              		.loc 1 126 17 view .LVU137
 664              	.LBB630:
 127:../../../libDaisy/src/daisy_seed.h ****     {
 128:../../../libDaisy/src/daisy_seed.h ****         Log::StartLog(wait_for_pc);
 665              		.loc 1 128 9 view .LVU138
 666              		.loc 1 128 22 is_stmt 0 view .LVU139
 667 002c 0020     		movs	r0, #0
 668 002e FFF7FEFF 		bl	_ZN5daisy6LoggerILNS_17LoggerDestinationE1EE8StartLogEb
 669              	.LVL34:
 670              		.loc 1 128 22 view .LVU140
 671              	.LBE630:
 672              	.LBE629:
  44:mpr121Test.cpp **** 	hw.SetAudioBlockSize(4); // number of samples handled per callback
 673              		.loc 8 44 2 is_stmt 1 view .LVU141
 674              		.loc 8 44 22 is_stmt 0 view .LVU142
 675 0032 0421     		movs	r1, #4
 676 0034 C048     		ldr	r0, .L49
 677 0036 FFF7FEFF 		bl	_ZN5daisy9DaisySeed17SetAudioBlockSizeEj
 678              	.LVL35:
  45:mpr121Test.cpp **** 	hw.SetAudioSampleRate(SaiHandle::Config::SampleRate::SAI_48KHZ);
 679              		.loc 8 45 2 is_stmt 1 view .LVU143
 680              		.loc 8 45 23 is_stmt 0 view .LVU144
 681 003a 0321     		movs	r1, #3
 682 003c BE48     		ldr	r0, .L49
ARM GAS  /var/folders/yw/6_x9gyn52jjg4jtn_wsryx_80000gp/T//cc8YnlWV.s 			page 30


 683 003e FFF7FEFF 		bl	_ZN5daisy9DaisySeed18SetAudioSampleRateENS_9SaiHandle6Config10SampleRateE
 684              	.LVL36:
  46:mpr121Test.cpp **** 	hw.StartAudio(AudioCallback);
 685              		.loc 8 46 2 is_stmt 1 view .LVU145
 686              		.loc 8 46 15 is_stmt 0 view .LVU146
 687 0042 C049     		ldr	r1, .L49+12
 688 0044 BC48     		ldr	r0, .L49
 689 0046 FFF7FEFF 		bl	_ZN5daisy9DaisySeed10StartAudioEPFvPKfPfjE
 690              	.LVL37:
  47:mpr121Test.cpp **** 
  48:mpr121Test.cpp ****     //How many samples we'll output per second
  49:mpr121Test.cpp ****     float samplerate = hw.AudioSampleRate();
 691              		.loc 8 49 5 is_stmt 1 view .LVU147
 692              		.loc 8 49 42 is_stmt 0 view .LVU148
 693 004a BB48     		ldr	r0, .L49
 694 004c FFF7FEFF 		bl	_ZN5daisy9DaisySeed15AudioSampleRateEv
 695              	.LVL38:
 696 0050 F0EE407A 		vmov.f32	s15, s0
 697              	.LVL39:
  50:mpr121Test.cpp **** 
  51:mpr121Test.cpp **** 	// Initialize MPR121 with I2C configuration
  52:mpr121Test.cpp ****     Mpr121I2C::Config mprConfig;
 698              		.loc 8 52 5 is_stmt 1 view .LVU149
 699              	.LBB631:
 700              	.LBI631:
  99:../../../libDaisy/src/dev/mpr121.h ****         {
 701              		.loc 7 99 9 view .LVU150
 702              	.LBB632:
 703              	.LBI632:
  34:../../../libDaisy/src/dev/mpr121.h ****         {
 704              		.loc 7 34 9 view .LVU151
 705              	.LBB633:
 706              	.LBI633:
 707              		.file 10 "../../../libDaisy/src/daisy_core.h"
   1:../../../libDaisy/src/daisy_core.h **** #pragma once
   2:../../../libDaisy/src/daisy_core.h **** #ifndef DSY_CORE_HW_H
   3:../../../libDaisy/src/daisy_core.h **** #define DSY_CORE_HW_H /**< & */
   4:../../../libDaisy/src/daisy_core.h **** #include <stdint.h>
   5:../../../libDaisy/src/daisy_core.h **** #include <stdlib.h>
   6:../../../libDaisy/src/daisy_core.h **** 
   7:../../../libDaisy/src/daisy_core.h **** #if defined(_MSC_VER)
   8:../../../libDaisy/src/daisy_core.h **** #define FORCE_INLINE __forceinline /**< & */
   9:../../../libDaisy/src/daisy_core.h **** #elif defined(__clang__)
  10:../../../libDaisy/src/daisy_core.h **** #define FORCE_INLINE inline __attribute__((always_inline)) /**< & */
  11:../../../libDaisy/src/daisy_core.h **** #pragma clang diagnostic ignored "-Wduplicate-decl-specifier"
  12:../../../libDaisy/src/daisy_core.h **** #elif defined(__GNUC__)
  13:../../../libDaisy/src/daisy_core.h **** #define FORCE_INLINE inline __attribute__((always_inline)) /**< & */
  14:../../../libDaisy/src/daisy_core.h **** #else
  15:../../../libDaisy/src/daisy_core.h **** #error unknown compiler
  16:../../../libDaisy/src/daisy_core.h **** #endif
  17:../../../libDaisy/src/daisy_core.h **** 
  18:../../../libDaisy/src/daisy_core.h **** /** @addtogroup utility
  19:../../../libDaisy/src/daisy_core.h ****     @{
  20:../../../libDaisy/src/daisy_core.h **** */
  21:../../../libDaisy/src/daisy_core.h **** 
  22:../../../libDaisy/src/daisy_core.h **** /** Macro for area of memory that is configured as cacheless
  23:../../../libDaisy/src/daisy_core.h **** This should be used primarily for DMA buffers, and the like.
ARM GAS  /var/folders/yw/6_x9gyn52jjg4jtn_wsryx_80000gp/T//cc8YnlWV.s 			page 31


  24:../../../libDaisy/src/daisy_core.h **** */
  25:../../../libDaisy/src/daisy_core.h **** #define DMA_BUFFER_MEM_SECTION __attribute__((section(".sram1_bss")))
  26:../../../libDaisy/src/daisy_core.h **** /** 
  27:../../../libDaisy/src/daisy_core.h **** THE DTCM RAM section is also non-cached. However, is not suitable 
  28:../../../libDaisy/src/daisy_core.h **** for DMA transfers. Performance is on par with internal SRAM w/ 
  29:../../../libDaisy/src/daisy_core.h **** cache enabled.
  30:../../../libDaisy/src/daisy_core.h **** */
  31:../../../libDaisy/src/daisy_core.h **** #define DTCM_MEM_SECTION __attribute__((section(".dtcmram_bss")))
  32:../../../libDaisy/src/daisy_core.h **** 
  33:../../../libDaisy/src/daisy_core.h **** #define FBIPMAX 0.999985f             /**< close to 1.0f-LSB at 16 bit */
  34:../../../libDaisy/src/daisy_core.h **** #define FBIPMIN (-FBIPMAX)            /**< - (1 - LSB) */
  35:../../../libDaisy/src/daisy_core.h **** #define U82F_SCALE 0.0078740f         /**< 1 / 127 */
  36:../../../libDaisy/src/daisy_core.h **** #define F2U8_SCALE 127.0f             /**< 128 - 1 */
  37:../../../libDaisy/src/daisy_core.h **** #define S82F_SCALE 0.0078125f         /**< 1 / (2**7) */
  38:../../../libDaisy/src/daisy_core.h **** #define F2S8_SCALE 127.0f             /**< (2 ** 7) - 1 */
  39:../../../libDaisy/src/daisy_core.h **** #define S162F_SCALE 3.0517578125e-05f /**< 1 / (2** 15) */
  40:../../../libDaisy/src/daisy_core.h **** #define F2S16_SCALE 32767.0f          /**< (2 ** 15) - 1 */
  41:../../../libDaisy/src/daisy_core.h **** #define F2S24_SCALE 8388608.0f        /**< 2 ** 23 */
  42:../../../libDaisy/src/daisy_core.h **** #define S242F_SCALE 1.192092896e-07f  /**< 1 / (2 ** 23) */
  43:../../../libDaisy/src/daisy_core.h **** #define S24SIGN 0x800000              /**< 2 ** 23 */
  44:../../../libDaisy/src/daisy_core.h **** #define S322F_SCALE 4.6566129e-10f    /**< 1 / (2** 31) */
  45:../../../libDaisy/src/daisy_core.h **** #define F2S32_SCALE 2147483647.f      /**< (2 ** 31) - 1 */
  46:../../../libDaisy/src/daisy_core.h **** 
  47:../../../libDaisy/src/daisy_core.h **** 
  48:../../../libDaisy/src/daisy_core.h **** /** shorthand macro for simplifying the reading of the left 
  49:../../../libDaisy/src/daisy_core.h ****  *  channel of a non-interleaved output buffer named out */
  50:../../../libDaisy/src/daisy_core.h **** #define OUT_L out[0]
  51:../../../libDaisy/src/daisy_core.h **** 
  52:../../../libDaisy/src/daisy_core.h **** /** shorthand macro for simplifying the reading of the right 
  53:../../../libDaisy/src/daisy_core.h ****  *  channel of a non-interleaved output buffer named out */
  54:../../../libDaisy/src/daisy_core.h **** #define OUT_R out[1]
  55:../../../libDaisy/src/daisy_core.h **** 
  56:../../../libDaisy/src/daisy_core.h **** /** shorthand macro for simplifying the reading of the left 
  57:../../../libDaisy/src/daisy_core.h ****  *  channel of a non-interleaved input buffer named in */
  58:../../../libDaisy/src/daisy_core.h **** #define IN_L in[0]
  59:../../../libDaisy/src/daisy_core.h **** 
  60:../../../libDaisy/src/daisy_core.h **** /** shorthand macro for simplifying the reading of the right 
  61:../../../libDaisy/src/daisy_core.h ****  *  channel of a non-interleaved input buffer named in */
  62:../../../libDaisy/src/daisy_core.h **** #define IN_R in[1]
  63:../../../libDaisy/src/daisy_core.h **** 
  64:../../../libDaisy/src/daisy_core.h **** /** 
  65:../../../libDaisy/src/daisy_core.h ****     Computes cube.
  66:../../../libDaisy/src/daisy_core.h ****     \param x Number to be cubed
  67:../../../libDaisy/src/daisy_core.h ****     \return x ^ 3
  68:../../../libDaisy/src/daisy_core.h **** */
  69:../../../libDaisy/src/daisy_core.h **** FORCE_INLINE float cube(float x)
  70:../../../libDaisy/src/daisy_core.h **** {
  71:../../../libDaisy/src/daisy_core.h ****     return (x * x) * x;
  72:../../../libDaisy/src/daisy_core.h **** }
  73:../../../libDaisy/src/daisy_core.h **** 
  74:../../../libDaisy/src/daisy_core.h **** /** 
  75:../../../libDaisy/src/daisy_core.h ****     Converts unsigned 8-bit to float
  76:../../../libDaisy/src/daisy_core.h ****     \param x Number to be scaled.
  77:../../../libDaisy/src/daisy_core.h ****     \return Scaled number.
  78:../../../libDaisy/src/daisy_core.h **** */
  79:../../../libDaisy/src/daisy_core.h **** FORCE_INLINE float u82f(uint8_t x)
  80:../../../libDaisy/src/daisy_core.h **** {
ARM GAS  /var/folders/yw/6_x9gyn52jjg4jtn_wsryx_80000gp/T//cc8YnlWV.s 			page 32


  81:../../../libDaisy/src/daisy_core.h ****     return ((float)x - 127.f) * U82F_SCALE;
  82:../../../libDaisy/src/daisy_core.h **** }
  83:../../../libDaisy/src/daisy_core.h **** 
  84:../../../libDaisy/src/daisy_core.h **** /**
  85:../../../libDaisy/src/daisy_core.h ****     Converts float to unsigned 8-bit
  86:../../../libDaisy/src/daisy_core.h **** */
  87:../../../libDaisy/src/daisy_core.h **** FORCE_INLINE uint8_t f2u8(float x)
  88:../../../libDaisy/src/daisy_core.h **** {
  89:../../../libDaisy/src/daisy_core.h ****     x = x <= FBIPMIN ? FBIPMIN : x;
  90:../../../libDaisy/src/daisy_core.h ****     x = x >= FBIPMAX ? FBIPMAX : x;
  91:../../../libDaisy/src/daisy_core.h ****     return (uint8_t)((x * F2U8_SCALE) + F2U8_SCALE);
  92:../../../libDaisy/src/daisy_core.h **** }
  93:../../../libDaisy/src/daisy_core.h **** 
  94:../../../libDaisy/src/daisy_core.h **** 
  95:../../../libDaisy/src/daisy_core.h **** /** 
  96:../../../libDaisy/src/daisy_core.h ****     Converts Signed 8-bit to float
  97:../../../libDaisy/src/daisy_core.h ****     \param x Number to be scaled.
  98:../../../libDaisy/src/daisy_core.h ****     \return Scaled number.
  99:../../../libDaisy/src/daisy_core.h **** */
 100:../../../libDaisy/src/daisy_core.h **** FORCE_INLINE float s82f(int8_t x)
 101:../../../libDaisy/src/daisy_core.h **** {
 102:../../../libDaisy/src/daisy_core.h ****     return (float)x * S82F_SCALE;
 103:../../../libDaisy/src/daisy_core.h **** }
 104:../../../libDaisy/src/daisy_core.h **** 
 105:../../../libDaisy/src/daisy_core.h **** /**
 106:../../../libDaisy/src/daisy_core.h ****     Converts float to Signed 8-bit
 107:../../../libDaisy/src/daisy_core.h **** */
 108:../../../libDaisy/src/daisy_core.h **** FORCE_INLINE int8_t f2s8(float x)
 109:../../../libDaisy/src/daisy_core.h **** {
 110:../../../libDaisy/src/daisy_core.h ****     x = x <= FBIPMIN ? FBIPMIN : x;
 111:../../../libDaisy/src/daisy_core.h ****     x = x >= FBIPMAX ? FBIPMAX : x;
 112:../../../libDaisy/src/daisy_core.h ****     return (int32_t)(x * F2S8_SCALE);
 113:../../../libDaisy/src/daisy_core.h **** }
 114:../../../libDaisy/src/daisy_core.h **** 
 115:../../../libDaisy/src/daisy_core.h **** /** 
 116:../../../libDaisy/src/daisy_core.h ****     Converts Signed 16-bit to float
 117:../../../libDaisy/src/daisy_core.h ****     \param x Number to be scaled.
 118:../../../libDaisy/src/daisy_core.h ****     \return Scaled number.
 119:../../../libDaisy/src/daisy_core.h **** */
 120:../../../libDaisy/src/daisy_core.h **** FORCE_INLINE float s162f(int16_t x)
 121:../../../libDaisy/src/daisy_core.h **** {
 122:../../../libDaisy/src/daisy_core.h ****     return (float)x * S162F_SCALE;
 123:../../../libDaisy/src/daisy_core.h **** }
 124:../../../libDaisy/src/daisy_core.h **** 
 125:../../../libDaisy/src/daisy_core.h **** /**
 126:../../../libDaisy/src/daisy_core.h ****     Converts float to Signed 16-bit
 127:../../../libDaisy/src/daisy_core.h **** */
 128:../../../libDaisy/src/daisy_core.h **** FORCE_INLINE int16_t f2s16(float x)
 129:../../../libDaisy/src/daisy_core.h **** {
 130:../../../libDaisy/src/daisy_core.h ****     x = x <= FBIPMIN ? FBIPMIN : x;
 131:../../../libDaisy/src/daisy_core.h ****     x = x >= FBIPMAX ? FBIPMAX : x;
 132:../../../libDaisy/src/daisy_core.h ****     return (int32_t)(x * F2S16_SCALE);
 133:../../../libDaisy/src/daisy_core.h **** }
 134:../../../libDaisy/src/daisy_core.h **** 
 135:../../../libDaisy/src/daisy_core.h **** /**
 136:../../../libDaisy/src/daisy_core.h ****     Converts Signed 24-bit to float
 137:../../../libDaisy/src/daisy_core.h ****  */
ARM GAS  /var/folders/yw/6_x9gyn52jjg4jtn_wsryx_80000gp/T//cc8YnlWV.s 			page 33


 138:../../../libDaisy/src/daisy_core.h **** FORCE_INLINE float s242f(int32_t x)
 139:../../../libDaisy/src/daisy_core.h **** {
 140:../../../libDaisy/src/daisy_core.h ****     x = (x ^ S24SIGN) - S24SIGN; //sign extend aka ((x<<8)>>8)
 141:../../../libDaisy/src/daisy_core.h ****     return (float)x * S242F_SCALE;
 142:../../../libDaisy/src/daisy_core.h **** }
 143:../../../libDaisy/src/daisy_core.h **** /**
 144:../../../libDaisy/src/daisy_core.h ****     Converts float to Signed 24-bit
 145:../../../libDaisy/src/daisy_core.h ****  */
 146:../../../libDaisy/src/daisy_core.h **** FORCE_INLINE int32_t f2s24(float x)
 147:../../../libDaisy/src/daisy_core.h **** {
 148:../../../libDaisy/src/daisy_core.h ****     x = x <= FBIPMIN ? FBIPMIN : x;
 149:../../../libDaisy/src/daisy_core.h ****     x = x >= FBIPMAX ? FBIPMAX : x;
 150:../../../libDaisy/src/daisy_core.h ****     return (int32_t)(x * F2S24_SCALE);
 151:../../../libDaisy/src/daisy_core.h **** }
 152:../../../libDaisy/src/daisy_core.h **** 
 153:../../../libDaisy/src/daisy_core.h **** /**
 154:../../../libDaisy/src/daisy_core.h ****     Converts Signed 32-bit to float
 155:../../../libDaisy/src/daisy_core.h ****  */
 156:../../../libDaisy/src/daisy_core.h **** FORCE_INLINE float s322f(int32_t x)
 157:../../../libDaisy/src/daisy_core.h **** {
 158:../../../libDaisy/src/daisy_core.h ****     return (float)x * S322F_SCALE;
 159:../../../libDaisy/src/daisy_core.h **** }
 160:../../../libDaisy/src/daisy_core.h **** /**
 161:../../../libDaisy/src/daisy_core.h ****     Converts float to Signed 24-bit
 162:../../../libDaisy/src/daisy_core.h ****  */
 163:../../../libDaisy/src/daisy_core.h **** FORCE_INLINE int32_t f2s32(float x)
 164:../../../libDaisy/src/daisy_core.h **** {
 165:../../../libDaisy/src/daisy_core.h ****     x = x <= FBIPMIN ? FBIPMIN : x;
 166:../../../libDaisy/src/daisy_core.h ****     x = x >= FBIPMAX ? FBIPMAX : x;
 167:../../../libDaisy/src/daisy_core.h ****     return (int32_t)(x * F2S32_SCALE);
 168:../../../libDaisy/src/daisy_core.h **** }
 169:../../../libDaisy/src/daisy_core.h **** 
 170:../../../libDaisy/src/daisy_core.h **** 
 171:../../../libDaisy/src/daisy_core.h **** /** Enums and a simple struct for defining a hardware pin on the MCU
 172:../../../libDaisy/src/daisy_core.h ****  *  These correlate with the stm32 datasheet, and are used to configure
 173:../../../libDaisy/src/daisy_core.h ****  *  the hardware.
 174:../../../libDaisy/src/daisy_core.h ****  * 
 175:../../../libDaisy/src/daisy_core.h ****  *  This along with the dsy_gpio_pin class should no longer be used.
 176:../../../libDaisy/src/daisy_core.h ****  *  They are available for backwards compatability. 
 177:../../../libDaisy/src/daisy_core.h ****  * 
 178:../../../libDaisy/src/daisy_core.h ****  *  Please use GPIOPort enum and the Pin struct instead.
 179:../../../libDaisy/src/daisy_core.h ****  */
 180:../../../libDaisy/src/daisy_core.h **** typedef enum
 181:../../../libDaisy/src/daisy_core.h **** {
 182:../../../libDaisy/src/daisy_core.h ****     DSY_GPIOA, /**< & */
 183:../../../libDaisy/src/daisy_core.h ****     DSY_GPIOB, /**< & */
 184:../../../libDaisy/src/daisy_core.h ****     DSY_GPIOC, /**< & */
 185:../../../libDaisy/src/daisy_core.h ****     DSY_GPIOD, /**< & */
 186:../../../libDaisy/src/daisy_core.h ****     DSY_GPIOE, /**< & */
 187:../../../libDaisy/src/daisy_core.h ****     DSY_GPIOF, /**< & */
 188:../../../libDaisy/src/daisy_core.h ****     DSY_GPIOG, /**< & */
 189:../../../libDaisy/src/daisy_core.h ****     DSY_GPIOH, /**< & */
 190:../../../libDaisy/src/daisy_core.h ****     DSY_GPIOI, /**< & */
 191:../../../libDaisy/src/daisy_core.h ****     DSY_GPIOJ, /**< & */
 192:../../../libDaisy/src/daisy_core.h ****     DSY_GPIOK, /**< & */
 193:../../../libDaisy/src/daisy_core.h ****     DSY_GPIOX, /** This is a non-existant port for unsupported bits of hardware. */
 194:../../../libDaisy/src/daisy_core.h ****     DSY_GPIO_LAST, /** Final enum member */
ARM GAS  /var/folders/yw/6_x9gyn52jjg4jtn_wsryx_80000gp/T//cc8YnlWV.s 			page 34


 195:../../../libDaisy/src/daisy_core.h **** } dsy_gpio_port;
 196:../../../libDaisy/src/daisy_core.h **** 
 197:../../../libDaisy/src/daisy_core.h **** /** Hardware define pins 
 198:../../../libDaisy/src/daisy_core.h ****  *  
 199:../../../libDaisy/src/daisy_core.h ****  *  The dsy_gpio_pin struct should no longer be used, and is only available for
 200:../../../libDaisy/src/daisy_core.h ****  *  backwards compatability.
 201:../../../libDaisy/src/daisy_core.h ****  * 
 202:../../../libDaisy/src/daisy_core.h ****  *  Please use Pin struct instead.
 203:../../../libDaisy/src/daisy_core.h ****  */
 204:../../../libDaisy/src/daisy_core.h **** typedef struct
 205:../../../libDaisy/src/daisy_core.h **** {
 206:../../../libDaisy/src/daisy_core.h ****     dsy_gpio_port port; /**< & */
 207:../../../libDaisy/src/daisy_core.h ****     uint8_t       pin;  /**< number 0-15 */
 208:../../../libDaisy/src/daisy_core.h **** } dsy_gpio_pin;
 209:../../../libDaisy/src/daisy_core.h **** 
 210:../../../libDaisy/src/daisy_core.h **** /** Helper for creating pins from port/pin combos easily
 211:../../../libDaisy/src/daisy_core.h ****  * 
 212:../../../libDaisy/src/daisy_core.h ****  *  The dsy_gpio_pin struct should no longer be used, and is only available for
 213:../../../libDaisy/src/daisy_core.h ****  *  backwards compatability.
 214:../../../libDaisy/src/daisy_core.h ****  * 
 215:../../../libDaisy/src/daisy_core.h ****  *  Please use Pin struct instead.
 216:../../../libDaisy/src/daisy_core.h **** */
 217:../../../libDaisy/src/daisy_core.h **** FORCE_INLINE dsy_gpio_pin dsy_pin(dsy_gpio_port port, uint8_t pin)
 218:../../../libDaisy/src/daisy_core.h **** {
 219:../../../libDaisy/src/daisy_core.h ****     dsy_gpio_pin p;
 220:../../../libDaisy/src/daisy_core.h ****     p.port = port;
 221:../../../libDaisy/src/daisy_core.h ****     p.pin  = pin;
 222:../../../libDaisy/src/daisy_core.h ****     return p;
 223:../../../libDaisy/src/daisy_core.h **** }
 224:../../../libDaisy/src/daisy_core.h **** 
 225:../../../libDaisy/src/daisy_core.h **** /** Helper for testing sameness of two dsy_gpio_pins
 226:../../../libDaisy/src/daisy_core.h ****  *  \return    1 if same, 0 if different
 227:../../../libDaisy/src/daisy_core.h ****  * 
 228:../../../libDaisy/src/daisy_core.h ****  *  The dsy_gpio_pin struct should no longer be used, and is only available for
 229:../../../libDaisy/src/daisy_core.h ****  *  backwards compatability.
 230:../../../libDaisy/src/daisy_core.h ****  * 
 231:../../../libDaisy/src/daisy_core.h ****  *  Please use Pin struct instead.
 232:../../../libDaisy/src/daisy_core.h ****  */
 233:../../../libDaisy/src/daisy_core.h **** FORCE_INLINE uint8_t dsy_pin_cmp(dsy_gpio_pin *a, dsy_gpio_pin *b)
 234:../../../libDaisy/src/daisy_core.h **** {
 235:../../../libDaisy/src/daisy_core.h ****     return ((a->port == b->port) && (a->pin == b->pin));
 236:../../../libDaisy/src/daisy_core.h **** }
 237:../../../libDaisy/src/daisy_core.h **** 
 238:../../../libDaisy/src/daisy_core.h **** #ifdef __cplusplus
 239:../../../libDaisy/src/daisy_core.h **** 
 240:../../../libDaisy/src/daisy_core.h **** namespace daisy
 241:../../../libDaisy/src/daisy_core.h **** {
 242:../../../libDaisy/src/daisy_core.h **** /** @brief GPIO Port names */
 243:../../../libDaisy/src/daisy_core.h **** enum GPIOPort
 244:../../../libDaisy/src/daisy_core.h **** {
 245:../../../libDaisy/src/daisy_core.h ****     PORTA, /**< Port A */
 246:../../../libDaisy/src/daisy_core.h ****     PORTB, /**< Port B */
 247:../../../libDaisy/src/daisy_core.h ****     PORTC, /**< Port C */
 248:../../../libDaisy/src/daisy_core.h ****     PORTD, /**< Port D */
 249:../../../libDaisy/src/daisy_core.h ****     PORTE, /**< Port E */
 250:../../../libDaisy/src/daisy_core.h ****     PORTF, /**< Port F */
 251:../../../libDaisy/src/daisy_core.h ****     PORTG, /**< Port G */
ARM GAS  /var/folders/yw/6_x9gyn52jjg4jtn_wsryx_80000gp/T//cc8YnlWV.s 			page 35


 252:../../../libDaisy/src/daisy_core.h ****     PORTH, /**< Port H */
 253:../../../libDaisy/src/daisy_core.h ****     PORTI, /**< Port I */
 254:../../../libDaisy/src/daisy_core.h ****     PORTJ, /**< Port J */
 255:../../../libDaisy/src/daisy_core.h ****     PORTK, /**< Port K */
 256:../../../libDaisy/src/daisy_core.h ****     PORTX, /**< Used as a dummy port to signal an invalid pin. */
 257:../../../libDaisy/src/daisy_core.h **** };
 258:../../../libDaisy/src/daisy_core.h **** 
 259:../../../libDaisy/src/daisy_core.h **** /** @brief representation of hardware port/pin combination */
 260:../../../libDaisy/src/daisy_core.h **** struct Pin
 261:../../../libDaisy/src/daisy_core.h **** {
 262:../../../libDaisy/src/daisy_core.h ****     GPIOPort port;
 263:../../../libDaisy/src/daisy_core.h ****     uint8_t  pin;
 264:../../../libDaisy/src/daisy_core.h **** 
 265:../../../libDaisy/src/daisy_core.h ****     /** @brief Constructor creates a valid pin. 
 266:../../../libDaisy/src/daisy_core.h ****      *  @param pt GPIOPort between PA, and PK corresponding to STM32 Port.
 267:../../../libDaisy/src/daisy_core.h ****      *  @param pn pin number in range of 0-15
 268:../../../libDaisy/src/daisy_core.h ****     */
 269:../../../libDaisy/src/daisy_core.h ****     constexpr Pin(const GPIOPort pt, const uint8_t pn) : port(pt), pin(pn) {}
 270:../../../libDaisy/src/daisy_core.h **** 
 271:../../../libDaisy/src/daisy_core.h ****     /** @brief Basic Constructor creates an invalid Pin object */
 272:../../../libDaisy/src/daisy_core.h ****     constexpr Pin() : port(PORTX), pin(255) {}
 708              		.loc 10 272 15 view .LVU152
 709              		.loc 10 272 15 is_stmt 0 view .LVU153
 710              	.LBE633:
 711              	.LBB634:
 712              	.LBI634:
 713              		.loc 10 272 15 is_stmt 1 view .LVU154
 714              		.loc 10 272 15 is_stmt 0 view .LVU155
 715              	.LBE634:
 716              	.LBE632:
 717              	.LBE631:
  36:../../../libDaisy/src/dev/mpr121.h ****             speed  = I2CHandle::Config::Speed::I2C_400KHZ;
 718              		.loc 7 36 13 is_stmt 1 view .LVU156
  37:../../../libDaisy/src/dev/mpr121.h **** 
 719              		.loc 7 37 13 view .LVU157
  39:../../../libDaisy/src/dev/mpr121.h ****             sda = Pin(PORTB, 9);
 720              		.loc 7 39 13 view .LVU158
 721              	.LBB639:
 722              	.LBB637:
 723              	.LBB635:
 724              	.LBI635:
 269:../../../libDaisy/src/daisy_core.h **** 
 725              		.loc 10 269 15 view .LVU159
 269:../../../libDaisy/src/daisy_core.h **** 
 726              		.loc 10 269 15 is_stmt 0 view .LVU160
 727              	.LBE635:
 728              	.LBE637:
 729              	.LBE639:
  40:../../../libDaisy/src/dev/mpr121.h **** 
 730              		.loc 7 40 13 is_stmt 1 view .LVU161
 731              	.LBB640:
 732              	.LBB638:
 733              	.LBB636:
 734              	.LBI636:
 269:../../../libDaisy/src/daisy_core.h **** 
 735              		.loc 10 269 15 view .LVU162
 269:../../../libDaisy/src/daisy_core.h **** 
ARM GAS  /var/folders/yw/6_x9gyn52jjg4jtn_wsryx_80000gp/T//cc8YnlWV.s 			page 36


 736              		.loc 10 269 15 is_stmt 0 view .LVU163
 737              	.LBE636:
 738              	.LBE638:
 739              	.LBE640:
  42:../../../libDaisy/src/dev/mpr121.h ****         }
 740              		.loc 7 42 13 is_stmt 1 view .LVU164
  53:mpr121Test.cpp ****     mprConfig.transport_config.periph = I2CHandle::Config::Peripheral::I2C_1;
 741              		.loc 8 53 5 view .LVU165
  54:mpr121Test.cpp ****     mprConfig.transport_config.speed = I2CHandle::Config::Speed::I2C_400KHZ;
 742              		.loc 8 54 5 view .LVU166
  55:mpr121Test.cpp ****     mprConfig.transport_config.scl = Pin(PORTB,6);  // Replace with your SCL pin
 743              		.loc 8 55 5 view .LVU167
 744              	.LBB641:
 745              	.LBI641:
 269:../../../libDaisy/src/daisy_core.h **** 
 746              		.loc 10 269 15 view .LVU168
 269:../../../libDaisy/src/daisy_core.h **** 
 747              		.loc 10 269 15 is_stmt 0 view .LVU169
 748              	.LBE641:
  56:mpr121Test.cpp ****     mprConfig.transport_config.sda = Pin(PORTB,7);  // Replace with your SDA pin
 749              		.loc 8 56 5 is_stmt 1 view .LVU170
 750              	.LBB642:
 751              	.LBI642:
 269:../../../libDaisy/src/daisy_core.h **** 
 752              		.loc 10 269 15 view .LVU171
 269:../../../libDaisy/src/daisy_core.h **** 
 753              		.loc 10 269 15 is_stmt 0 view .LVU172
 754              	.LBE642:
  57:mpr121Test.cpp **** 
  58:mpr121Test.cpp **** 	// Set additional MPR121 configuration if needed
  59:mpr121Test.cpp ****     mprConfig.touch_threshold = 12;
 755              		.loc 8 59 5 is_stmt 1 view .LVU173
  60:mpr121Test.cpp ****     mprConfig.release_threshold = 6;
 756              		.loc 8 60 5 view .LVU174
  61:mpr121Test.cpp **** 
  62:mpr121Test.cpp ****     //Set up oscillator
  63:mpr121Test.cpp ****     osc.Init(samplerate);
 757              		.loc 8 63 5 view .LVU175
 758              	.LBB643:
 759              	.LBI430:
  42:../../../DaisySP/Source/Synthesis/oscillator.h ****     {
 760              		.loc 6 42 10 view .LVU176
 761              	.LBB433:
  44:../../../DaisySP/Source/Synthesis/oscillator.h ****         sr_recip_  = 1.0f / sample_rate;
 762              		.loc 6 44 9 view .LVU177
  46:../../../DaisySP/Source/Synthesis/oscillator.h ****         amp_       = 0.5f;
 763              		.loc 6 46 20 is_stmt 0 view .LVU178
 764 0054 9FEDBC7A 		vldr.32	s14, .L49+16
  47:../../../DaisySP/Source/Synthesis/oscillator.h ****         pw_        = 0.5f;
 765              		.loc 6 47 20 view .LVU179
 766 0058 4FF07C53 		mov	r3, #1056964608
  49:../../../DaisySP/Source/Synthesis/oscillator.h ****         phase_     = 0.0f;
 767              		.loc 6 49 20 view .LVU180
 768 005c BB49     		ldr	r1, .L49+20
  50:../../../DaisySP/Source/Synthesis/oscillator.h ****         phase_inc_ = CalcPhaseInc(freq_);
 769              		.loc 6 50 20 view .LVU181
 770 005e 0022     		movs	r2, #0
ARM GAS  /var/folders/yw/6_x9gyn52jjg4jtn_wsryx_80000gp/T//cc8YnlWV.s 			page 37


  45:../../../DaisySP/Source/Synthesis/oscillator.h ****         freq_      = 100.0f;
 771              		.loc 6 45 27 view .LVU182
 772 0060 C8EE276A 		vdiv.f32	s13, s16, s15
  51:../../../DaisySP/Source/Synthesis/oscillator.h ****         waveform_  = WAVE_SIN;
 773              		.loc 6 51 34 view .LVU183
 774 0064 3846     		mov	r0, r7
  44:../../../DaisySP/Source/Synthesis/oscillator.h ****         sr_recip_  = 1.0f / sample_rate;
 775              		.loc 6 44 20 view .LVU184
 776 0066 C7ED057A 		vstr.32	s15, [r7, #20]
  45:../../../DaisySP/Source/Synthesis/oscillator.h ****         freq_      = 100.0f;
 777              		.loc 6 45 9 is_stmt 1 view .LVU185
  46:../../../DaisySP/Source/Synthesis/oscillator.h ****         amp_       = 0.5f;
 778              		.loc 6 46 20 is_stmt 0 view .LVU186
 779 006a 87ED027A 		vstr.32	s14, [r7, #8]
  47:../../../DaisySP/Source/Synthesis/oscillator.h ****         pw_        = 0.5f;
 780              		.loc 6 47 20 view .LVU187
 781 006e 7B60     		str	r3, [r7, #4]	@ float
  48:../../../DaisySP/Source/Synthesis/oscillator.h ****         pw_rad_    = pw_ * TWOPI_F;
 782              		.loc 6 48 20 view .LVU188
 783 0070 FB60     		str	r3, [r7, #12]	@ float
  51:../../../DaisySP/Source/Synthesis/oscillator.h ****         waveform_  = WAVE_SIN;
 784              		.loc 6 51 34 view .LVU189
 785 0072 B0EE470A 		vmov.f32	s0, s14
 786              	.LVL40:
  49:../../../DaisySP/Source/Synthesis/oscillator.h ****         phase_     = 0.0f;
 787              		.loc 6 49 20 view .LVU190
 788 0076 3961     		str	r1, [r7, #16]	@ float
  50:../../../DaisySP/Source/Synthesis/oscillator.h ****         phase_inc_ = CalcPhaseInc(freq_);
 789              		.loc 6 50 20 view .LVU191
 790 0078 FA61     		str	r2, [r7, #28]	@ float
  45:../../../DaisySP/Source/Synthesis/oscillator.h ****         freq_      = 100.0f;
 791              		.loc 6 45 20 view .LVU192
 792 007a C7ED066A 		vstr.32	s13, [r7, #24]
  46:../../../DaisySP/Source/Synthesis/oscillator.h ****         amp_       = 0.5f;
 793              		.loc 6 46 9 is_stmt 1 view .LVU193
  47:../../../DaisySP/Source/Synthesis/oscillator.h ****         pw_        = 0.5f;
 794              		.loc 6 47 9 view .LVU194
  48:../../../DaisySP/Source/Synthesis/oscillator.h ****         pw_rad_    = pw_ * TWOPI_F;
 795              		.loc 6 48 9 view .LVU195
  49:../../../DaisySP/Source/Synthesis/oscillator.h ****         phase_     = 0.0f;
 796              		.loc 6 49 9 view .LVU196
  50:../../../DaisySP/Source/Synthesis/oscillator.h ****         phase_inc_ = CalcPhaseInc(freq_);
 797              		.loc 6 50 9 view .LVU197
  51:../../../DaisySP/Source/Synthesis/oscillator.h ****         waveform_  = WAVE_SIN;
 798              		.loc 6 51 9 view .LVU198
  51:../../../DaisySP/Source/Synthesis/oscillator.h ****         waveform_  = WAVE_SIN;
 799              		.loc 6 51 34 is_stmt 0 view .LVU199
 800 007e FFF7FEFF 		bl	_ZN7daisysp10Oscillator12CalcPhaseIncEf
 801              	.LVL41:
  53:../../../DaisySP/Source/Synthesis/oscillator.h ****         eoc_       = true;
  54:../../../DaisySP/Source/Synthesis/oscillator.h ****         eor_       = true;
 802              		.loc 6 54 20 view .LVU200
 803 0082 40F20113 		movw	r3, #257
 804 0086 B646     		mov	lr, r6
 805 0088 0DF1080C 		add	ip, sp, #8
 806              	.LBE433:
 807              	.LBE643:
ARM GAS  /var/folders/yw/6_x9gyn52jjg4jtn_wsryx_80000gp/T//cc8YnlWV.s 			page 38


 808              	.LBB644:
 809              	.LBB621:
 117:../../../libDaisy/src/dev/mpr121.h **** 
 810              		.loc 7 117 9 view .LVU201
 811 008c C6F80080 		str	r8, [r6]
 812              	.LBE621:
 813              	.LBE644:
 814              	.LBB645:
 815              	.LBB434:
 816              		.loc 6 54 20 view .LVU202
 817 0090 BB85     		strh	r3, [r7, #44]	@ movhi
 818              	.LBE434:
 819              	.LBE645:
 820              	.LBB646:
 821              	.LBB622:
 117:../../../libDaisy/src/dev/mpr121.h **** 
 822              		.loc 7 117 9 view .LVU203
 823 0092 AF4B     		ldr	r3, .L49+24
 824              	.LBB454:
 825              	.LBB447:
  49:../../../libDaisy/src/dev/mpr121.h **** 
 826              		.loc 7 49 17 view .LVU204
 827 0094 E246     		mov	r10, ip
 828              	.LBE447:
 829              	.LBE454:
 117:../../../libDaisy/src/dev/mpr121.h **** 
 830              		.loc 7 117 9 view .LVU205
 831 0096 C6F80490 		str	r9, [r6, #4]
 832 009a B360     		str	r3, [r6, #8]
 833              	.LBB455:
 834              	.LBB448:
  56:../../../libDaisy/src/dev/mpr121.h ****         i2c_conf.pin_config.sda = config.sda;
 835              		.loc 7 56 42 view .LVU206
 836 009c 0893     		str	r3, [sp, #32]
 837              	.LBE448:
 838              	.LBE455:
 117:../../../libDaisy/src/dev/mpr121.h **** 
 839              		.loc 7 117 9 view .LVU207
 840 009e 5A23     		movs	r3, #90
 841              	.LBE622:
 842              	.LBE646:
 843              	.LBB647:
 844              	.LBB435:
  51:../../../DaisySP/Source/Synthesis/oscillator.h ****         waveform_  = WAVE_SIN;
 845              		.loc 6 51 20 view .LVU208
 846 00a0 87ED080A 		vstr.32	s0, [r7, #32]
  52:../../../DaisySP/Source/Synthesis/oscillator.h ****         eoc_       = true;
 847              		.loc 6 52 9 is_stmt 1 view .LVU209
 848              	.LBE435:
 849              	.LBE647:
 850              	.LBB648:
 851              	.LBB623:
 117:../../../libDaisy/src/dev/mpr121.h **** 
 852              		.loc 7 117 9 is_stmt 0 view .LVU210
 853 00a4 3374     		strb	r3, [r6, #16]
 854 00a6 40F20C63 		movw	r3, #1548
 855              	.LBE623:
ARM GAS  /var/folders/yw/6_x9gyn52jjg4jtn_wsryx_80000gp/T//cc8YnlWV.s 			page 39


 856              	.LBE648:
 857              	.LBB649:
 858              	.LBB436:
  52:../../../DaisySP/Source/Synthesis/oscillator.h ****         eoc_       = true;
 859              		.loc 6 52 20 view .LVU211
 860 00aa 87F80080 		strb	r8, [r7]
  53:../../../DaisySP/Source/Synthesis/oscillator.h ****         eor_       = true;
 861              		.loc 6 53 9 is_stmt 1 view .LVU212
 862              		.loc 6 54 9 view .LVU213
 863              	.LVL42:
 864              		.loc 6 54 9 is_stmt 0 view .LVU214
 865              	.LBE436:
 866              	.LBE649:
  64:mpr121Test.cpp ****     osc.SetWaveform(osc.WAVE_SIN);
 867              		.loc 8 64 5 is_stmt 1 view .LVU215
  55:../../../DaisySP/Source/Synthesis/oscillator.h ****     }
  56:../../../DaisySP/Source/Synthesis/oscillator.h **** 
  57:../../../DaisySP/Source/Synthesis/oscillator.h **** 
  58:../../../DaisySP/Source/Synthesis/oscillator.h ****     /** Changes the frequency of the Oscillator, and recalculates phase increment.
  59:../../../DaisySP/Source/Synthesis/oscillator.h ****     */
  60:../../../DaisySP/Source/Synthesis/oscillator.h ****     inline void SetFreq(const float f)
  61:../../../DaisySP/Source/Synthesis/oscillator.h ****     {
  62:../../../DaisySP/Source/Synthesis/oscillator.h ****         freq_      = f;
  63:../../../DaisySP/Source/Synthesis/oscillator.h ****         phase_inc_ = CalcPhaseInc(f);
  64:../../../DaisySP/Source/Synthesis/oscillator.h ****     }
  65:../../../DaisySP/Source/Synthesis/oscillator.h **** 
  66:../../../DaisySP/Source/Synthesis/oscillator.h **** 
  67:../../../DaisySP/Source/Synthesis/oscillator.h ****     /** Sets the amplitude of the waveform.
  68:../../../DaisySP/Source/Synthesis/oscillator.h ****     */
  69:../../../DaisySP/Source/Synthesis/oscillator.h ****     inline void SetAmp(const float a) { amp_ = a; }
  70:../../../DaisySP/Source/Synthesis/oscillator.h ****     /** Sets the waveform to be synthesized by the Process() function.
  71:../../../DaisySP/Source/Synthesis/oscillator.h ****     */
  72:../../../DaisySP/Source/Synthesis/oscillator.h ****     inline void SetWaveform(const uint8_t wf)
  73:../../../DaisySP/Source/Synthesis/oscillator.h ****     {
  74:../../../DaisySP/Source/Synthesis/oscillator.h ****         waveform_ = wf < WAVE_LAST ? wf : WAVE_SIN;
 868              		.loc 6 74 9 view .LVU216
  65:mpr121Test.cpp ****     osc.SetAmp(1.f);
 869              		.loc 8 65 5 view .LVU217
 870              	.LBB650:
 871              	.LBI650:
  69:../../../DaisySP/Source/Synthesis/oscillator.h ****     /** Sets the waveform to be synthesized by the Process() function.
 872              		.loc 6 69 17 view .LVU218
 873              	.LBB651:
  69:../../../DaisySP/Source/Synthesis/oscillator.h ****     /** Sets the waveform to be synthesized by the Process() function.
 874              		.loc 6 69 41 view .LVU219
 875              	.LBE651:
 876              	.LBE650:
 877              	.LBB653:
 878              	.LBB624:
 117:../../../libDaisy/src/dev/mpr121.h **** 
 879              		.loc 7 117 9 is_stmt 0 view .LVU220
 880 00ae B382     		strh	r3, [r6, #20]	@ movhi
 881              	.LBE624:
 882              	.LBE653:
 883              	.LBB654:
 884              	.LBB652:
  69:../../../DaisySP/Source/Synthesis/oscillator.h ****     /** Sets the waveform to be synthesized by the Process() function.
ARM GAS  /var/folders/yw/6_x9gyn52jjg4jtn_wsryx_80000gp/T//cc8YnlWV.s 			page 40


 885              		.loc 6 69 46 view .LVU221
 886 00b0 87ED018A 		vstr.32	s16, [r7, #4]
 887              	.LVL43:
  69:../../../DaisySP/Source/Synthesis/oscillator.h ****     /** Sets the waveform to be synthesized by the Process() function.
 888              		.loc 6 69 46 view .LVU222
 889              	.LBE652:
 890              	.LBE654:
  66:mpr121Test.cpp ****     //osc.SetFreq(440);
  67:mpr121Test.cpp **** 
  68:mpr121Test.cpp **** 	if(mpr121.Init(mprConfig) != Mpr121I2C::OK)
 891              		.loc 8 68 2 is_stmt 1 view .LVU223
 892              	.LBB655:
 893              	.LBI437:
 115:../../../libDaisy/src/dev/mpr121.h ****     {
 894              		.loc 7 115 12 view .LVU224
 895              	.LBB625:
 896              	.LBB456:
 897              	.LBB449:
  53:../../../libDaisy/src/dev/mpr121.h ****         i2c_conf.speed  = config.speed;
 898              		.loc 7 53 25 is_stmt 0 view .LVU225
 899 00b4 CDF81C80 		str	r8, [sp, #28]
  54:../../../libDaisy/src/dev/mpr121.h **** 
 900              		.loc 7 54 25 view .LVU226
 901 00b8 CDF82490 		str	r9, [sp, #36]
  52:../../../libDaisy/src/dev/mpr121.h ****         i2c_conf.periph = config.periph;
 902              		.loc 7 52 25 view .LVU227
 903 00bc CDF82880 		str	r8, [sp, #40]
 904 00c0 BEE80F00 		ldmia	lr!, {r0, r1, r2, r3}
 905 00c4 DEF800E0 		ldr	lr, [lr]
 906 00c8 ACE80F00 		stmia	ip!, {r0, r1, r2, r3}
 907 00cc CCF800E0 		str	lr, [ip]
 908              	.LBE449:
 909              	.LBI439:
  47:../../../libDaisy/src/dev/mpr121.h ****     {
 910              		.loc 7 47 17 is_stmt 1 view .LVU228
 911              	.LBB450:
  49:../../../libDaisy/src/dev/mpr121.h **** 
 912              		.loc 7 49 9 view .LVU229
  49:../../../libDaisy/src/dev/mpr121.h **** 
 913              		.loc 7 49 17 is_stmt 0 view .LVU230
 914 00d0 BAE80F00 		ldmia	r10!, {r0, r1, r2, r3}
 915 00d4 0FC4     		stmia	r4!, {r0, r1, r2, r3}
  59:../../../libDaisy/src/dev/mpr121.h ****     }
 916              		.loc 7 59 50 view .LVU231
 917 00d6 07A9     		add	r1, sp, #28
 918 00d8 06F11800 		add	r0, r6, #24
  49:../../../libDaisy/src/dev/mpr121.h **** 
 919              		.loc 7 49 17 view .LVU232
 920 00dc 84F800E0 		strb	lr, [r4]
  51:../../../libDaisy/src/dev/mpr121.h ****         i2c_conf.mode   = I2CHandle::Config::Mode::I2C_MASTER;
 921              		.loc 7 51 9 is_stmt 1 view .LVU233
 922              	.LVL44:
 923              	.LBB444:
 924              	.LBI441:
 925              		.loc 9 28 12 view .LVU234
 926              		.loc 9 28 12 is_stmt 0 view .LVU235
 927              	.LBE444:
ARM GAS  /var/folders/yw/6_x9gyn52jjg4jtn_wsryx_80000gp/T//cc8YnlWV.s 			page 41


  52:../../../libDaisy/src/dev/mpr121.h ****         i2c_conf.periph = config.periph;
 928              		.loc 7 52 9 is_stmt 1 view .LVU236
  53:../../../libDaisy/src/dev/mpr121.h ****         i2c_conf.speed  = config.speed;
 929              		.loc 7 53 9 view .LVU237
  54:../../../libDaisy/src/dev/mpr121.h **** 
 930              		.loc 7 54 9 view .LVU238
  56:../../../libDaisy/src/dev/mpr121.h ****         i2c_conf.pin_config.sda = config.sda;
 931              		.loc 7 56 9 view .LVU239
  56:../../../libDaisy/src/dev/mpr121.h ****         i2c_conf.pin_config.sda = config.sda;
 932              		.loc 7 56 9 is_stmt 0 view .LVU240
 933              	.LBE450:
 934              	.LBE456:
 935              	.LBE625:
 936              	.LBE655:
 273:../../../libDaisy/src/daisy_core.h **** 
 274:../../../libDaisy/src/daisy_core.h ****     /** @brief checks validity of a Pin 
 275:../../../libDaisy/src/daisy_core.h ****      *  @retval returns true if the port is a valid hardware pin, otherwise false.
 276:../../../libDaisy/src/daisy_core.h ****     */
 277:../../../libDaisy/src/daisy_core.h ****     constexpr bool IsValid() const { return port != PORTX && pin < 16; }
 278:../../../libDaisy/src/daisy_core.h **** 
 279:../../../libDaisy/src/daisy_core.h ****     /** @brief comparison operator for checking equality between Pin objects */
 280:../../../libDaisy/src/daisy_core.h ****     constexpr bool operator==(const Pin &rhs) const
 281:../../../libDaisy/src/daisy_core.h ****     {
 282:../../../libDaisy/src/daisy_core.h ****         return (rhs.port == port) && (rhs.pin == pin);
 283:../../../libDaisy/src/daisy_core.h ****     }
 284:../../../libDaisy/src/daisy_core.h **** 
 285:../../../libDaisy/src/daisy_core.h ****     /** @brief comparison operator for checking inequality between Pin objects */
 286:../../../libDaisy/src/daisy_core.h ****     constexpr bool operator!=(const Pin &rhs) const { return !operator==(rhs); }
 287:../../../libDaisy/src/daisy_core.h **** 
 288:../../../libDaisy/src/daisy_core.h ****     /** @brief conversion operation for converting to the old-style representation
 289:../../../libDaisy/src/daisy_core.h ****      *         of a pin.
 290:../../../libDaisy/src/daisy_core.h ****      * 
 291:../../../libDaisy/src/daisy_core.h ****      *  This allows the new Pin type to be used in place of the older, dsy_gpio_pin
 292:../../../libDaisy/src/daisy_core.h ****      *  type.
 293:../../../libDaisy/src/daisy_core.h ****      */
 294:../../../libDaisy/src/daisy_core.h ****     operator dsy_gpio_pin() const
 295:../../../libDaisy/src/daisy_core.h ****     {
 296:../../../libDaisy/src/daisy_core.h ****         return dsy_pin(static_cast<dsy_gpio_port>(port), pin);
 937              		.loc 10 296 9 is_stmt 1 view .LVU241
 219:../../../libDaisy/src/daisy_core.h ****     p.port = port;
 938              		.loc 10 219 5 view .LVU242
 220:../../../libDaisy/src/daisy_core.h ****     p.pin  = pin;
 939              		.loc 10 220 5 view .LVU243
 221:../../../libDaisy/src/daisy_core.h ****     return p;
 940              		.loc 10 221 5 view .LVU244
 222:../../../libDaisy/src/daisy_core.h **** }
 941              		.loc 10 222 5 view .LVU245
 942              	.LBB656:
 943              	.LBB626:
 944              	.LBB457:
 945              	.LBB451:
  57:../../../libDaisy/src/dev/mpr121.h **** 
 946              		.loc 7 57 9 view .LVU246
  57:../../../libDaisy/src/dev/mpr121.h **** 
 947              		.loc 7 57 9 is_stmt 0 view .LVU247
 948              	.LBE451:
 949              	.LBE457:
ARM GAS  /var/folders/yw/6_x9gyn52jjg4jtn_wsryx_80000gp/T//cc8YnlWV.s 			page 42


 950              	.LBE626:
 951              	.LBE656:
 952              		.loc 10 296 9 is_stmt 1 view .LVU248
 219:../../../libDaisy/src/daisy_core.h ****     p.port = port;
 953              		.loc 10 219 5 view .LVU249
 220:../../../libDaisy/src/daisy_core.h ****     p.pin  = pin;
 954              		.loc 10 220 5 view .LVU250
 221:../../../libDaisy/src/daisy_core.h ****     return p;
 955              		.loc 10 221 5 view .LVU251
 222:../../../libDaisy/src/daisy_core.h **** }
 956              		.loc 10 222 5 view .LVU252
 957              	.LBB657:
 958              	.LBB627:
 959              	.LBB458:
 960              	.LBB452:
 961              	.LBB445:
 962              	.LBB443:
 963              		.loc 9 28 12 is_stmt 0 view .LVU253
 964 00e0 8DF82CB0 		strb	fp, [sp, #44]
 965              	.LBE443:
 966              	.LBE445:
  59:../../../libDaisy/src/dev/mpr121.h ****     }
 967              		.loc 7 59 9 is_stmt 1 view .LVU254
  59:../../../libDaisy/src/dev/mpr121.h ****     }
 968              		.loc 7 59 50 is_stmt 0 view .LVU255
 969 00e4 FFF7FEFF 		bl	_ZN5daisy9I2CHandle4InitERKNS0_6ConfigE
 970              	.LVL45:
  59:../../../libDaisy/src/dev/mpr121.h ****     }
 971              		.loc 7 59 50 view .LVU256
 972              	.LBE452:
 973              	.LBE458:
 974              	.LBB459:
 975              	.LBI459:
 976              		.loc 7 343 10 is_stmt 1 view .LVU257
 977              	.LBB460:
 978              		.loc 7 343 55 is_stmt 0 view .LVU258
 979 00e8 96F83030 		ldrb	r3, [r6, #48]	@ zero_extendqisi2
 980              	.LBE460:
 981              	.LBE459:
 122:../../../libDaisy/src/dev/mpr121.h ****         System::Delay(1);
 982              		.loc 7 122 22 view .LVU259
 983 00ec 8021     		movs	r1, #128
 984 00ee 6322     		movs	r2, #99
 985              	.LBB463:
 986              	.LBB461:
 987              		.loc 7 343 55 view .LVU260
 988 00f0 4045     		cmp	r0, r8
 989 00f2 18BF     		it	ne
 990 00f4 43F00103 		orrne	r3, r3, #1
 991              	.LBE461:
 992              	.LBE463:
 122:../../../libDaisy/src/dev/mpr121.h ****         System::Delay(1);
 993              		.loc 7 122 22 view .LVU261
 994 00f8 3046     		mov	r0, r6
 995              	.LVL46:
 996              	.LBB464:
 997              	.LBB462:
ARM GAS  /var/folders/yw/6_x9gyn52jjg4jtn_wsryx_80000gp/T//cc8YnlWV.s 			page 43


 998              		.loc 7 343 55 view .LVU262
 999 00fa 86F83030 		strb	r3, [r6, #48]
 1000              	.LVL47:
 1001              		.loc 7 343 55 view .LVU263
 1002              	.LBE462:
 1003              	.LBE464:
 122:../../../libDaisy/src/dev/mpr121.h ****         System::Delay(1);
 1004              		.loc 7 122 22 view .LVU264
 1005 00fe FFF7FEFF 		bl	_ZN5daisy6Mpr121INS_18Mpr121I2CTransportEE13WriteRegisterEhh
 1006              	.LVL48:
 123:../../../libDaisy/src/dev/mpr121.h **** 
 1007              		.loc 7 123 22 view .LVU265
 1008 0102 4846     		mov	r0, r9
 1009 0104 FFF7FEFF 		bl	_ZN5daisy6System5DelayEm
 1010              	.LVL49:
 125:../../../libDaisy/src/dev/mpr121.h **** 
 1011              		.loc 7 125 22 view .LVU266
 1012 0108 4246     		mov	r2, r8
 1013 010a 5E21     		movs	r1, #94
 1014 010c 3046     		mov	r0, r6
 1015 010e FFF7FEFF 		bl	_ZN5daisy6Mpr121INS_18Mpr121I2CTransportEE13WriteRegisterEhh
 1016              	.LVL50:
 133:../../../libDaisy/src/dev/mpr121.h ****         WriteRegister(MPR121_MHDR, 0x01);
 1017              		.loc 7 133 22 view .LVU267
 1018 0112 96F814B0 		ldrb	fp, [r6, #20]	@ zero_extendqisi2
 1019 0116 96F815A0 		ldrb	r10, [r6, #21]	@ zero_extendqisi2
 1020              	.LVL51:
 1021              	.LBB465:
 1022              	.LBI465:
 177:../../../libDaisy/src/dev/mpr121.h ****     {
 1023              		.loc 7 177 10 is_stmt 1 view .LVU268
 1024              	.LBB466:
 180:../../../libDaisy/src/dev/mpr121.h ****         {
 1025              		.loc 7 180 30 view .LVU269
 1026              	.L25:
 1027              	.LBB467:
 1028              	.LBI467:
 257:../../../libDaisy/src/dev/mpr121.h ****     {
 1029              		.loc 7 257 10 view .LVU270
 1030              	.LBB468:
 1031              	.LBB469:
 1032              	.LBB470:
  66:../../../libDaisy/src/dev/mpr121.h ****     }
 1033              		.loc 7 66 40 is_stmt 0 view .LVU271
 1034 011a 0A24     		movs	r4, #10
 1035              	.LBE470:
 1036              	.LBE469:
 264:../../../libDaisy/src/dev/mpr121.h **** 
 1037              		.loc 7 264 17 view .LVU272
 1038 011c 4FF00009 		mov	r9, #0
 1039 0120 4FF05E08 		mov	r8, #94
 1040              	.LBB473:
 1041              	.LBB471:
  66:../../../libDaisy/src/dev/mpr121.h ****     }
 1042              		.loc 7 66 40 view .LVU273
 1043 0124 0123     		movs	r3, #1
 1044 0126 07AA     		add	r2, sp, #28
ARM GAS  /var/folders/yw/6_x9gyn52jjg4jtn_wsryx_80000gp/T//cc8YnlWV.s 			page 44


 1045 0128 96F82C10 		ldrb	r1, [r6, #44]	@ zero_extendqisi2
 1046 012c 0094     		str	r4, [sp]
 1047 012e 8948     		ldr	r0, .L49+28
 1048              	.LBE471:
 1049              	.LBE473:
 264:../../../libDaisy/src/dev/mpr121.h **** 
 1050              		.loc 7 264 17 view .LVU274
 1051 0130 8DF81D90 		strb	r9, [sp, #29]
 1052 0134 8DF81C80 		strb	r8, [sp, #28]
 1053              	.LVL52:
 1054              	.LBB474:
 1055              	.LBI469:
  63:../../../libDaisy/src/dev/mpr121.h ****     {
 1056              		.loc 7 63 10 is_stmt 1 view .LVU275
 1057              	.LBB472:
  65:../../../libDaisy/src/dev/mpr121.h ****                != i2c_.TransmitBlocking(config_.dev_addr, data, size, 10);
 1058              		.loc 7 65 9 view .LVU276
  66:../../../libDaisy/src/dev/mpr121.h ****     }
 1059              		.loc 7 66 40 is_stmt 0 view .LVU277
 1060 0138 FFF7FEFF 		bl	_ZN5daisy9I2CHandle16TransmitBlockingEtPhtm
 1061              	.LVL53:
  66:../../../libDaisy/src/dev/mpr121.h ****     }
 1062              		.loc 7 66 40 view .LVU278
 1063              	.LBE472:
 1064              	.LBE474:
 1065              	.LBB475:
 1066              	.LBI475:
 1067              		.loc 7 343 10 is_stmt 1 view .LVU279
 1068              	.LBB476:
 1069              		.loc 7 343 55 is_stmt 0 view .LVU280
 1070 013c 96F83020 		ldrb	r2, [r6, #48]	@ zero_extendqisi2
 1071              	.LBE476:
 1072              	.LBE475:
 1073              	.LBB479:
 1074              	.LBB480:
  73:../../../libDaisy/src/dev/mpr121.h ****     }
 1075              		.loc 7 73 39 view .LVU281
 1076 0140 0123     		movs	r3, #1
 1077 0142 96F82C10 		ldrb	r1, [r6, #44]	@ zero_extendqisi2
 1078              	.LBE480:
 1079              	.LBE479:
 1080              	.LBB483:
 1081              	.LBB477:
 1082              		.loc 7 343 55 view .LVU282
 1083 0146 4845     		cmp	r0, r9
 1084 0148 18BF     		it	ne
 1085 014a 42F00102 		orrne	r2, r2, #1
 1086              	.LBE477:
 1087              	.LBE483:
 1088              	.LBB484:
 1089              	.LBB481:
  73:../../../libDaisy/src/dev/mpr121.h ****     }
 1090              		.loc 7 73 39 view .LVU283
 1091 014e 0094     		str	r4, [sp]
 1092 0150 8048     		ldr	r0, .L49+28
 1093              	.LVL54:
  73:../../../libDaisy/src/dev/mpr121.h ****     }
ARM GAS  /var/folders/yw/6_x9gyn52jjg4jtn_wsryx_80000gp/T//cc8YnlWV.s 			page 45


 1094              		.loc 7 73 39 view .LVU284
 1095              	.LBE481:
 1096              	.LBE484:
 1097              	.LBB485:
 1098              	.LBB478:
 1099              		.loc 7 343 55 view .LVU285
 1100 0152 86F83020 		strb	r2, [r6, #48]
 1101              	.LVL55:
 1102              		.loc 7 343 55 view .LVU286
 1103              	.LBE478:
 1104              	.LBE485:
 1105              	.LBB486:
 1106              	.LBI479:
  70:../../../libDaisy/src/dev/mpr121.h ****     {
 1107              		.loc 7 70 10 is_stmt 1 view .LVU287
 1108              	.LBB482:
  72:../../../libDaisy/src/dev/mpr121.h ****                != i2c_.ReceiveBlocking(config_.dev_addr, data, size, 10);
 1109              		.loc 7 72 9 view .LVU288
  73:../../../libDaisy/src/dev/mpr121.h ****     }
 1110              		.loc 7 73 39 is_stmt 0 view .LVU289
 1111 0156 02AA     		add	r2, sp, #8
 1112              	.LVL56:
  73:../../../libDaisy/src/dev/mpr121.h ****     }
 1113              		.loc 7 73 39 view .LVU290
 1114 0158 FFF7FEFF 		bl	_ZN5daisy9I2CHandle15ReceiveBlockingEtPhtm
 1115              	.LVL57:
  73:../../../libDaisy/src/dev/mpr121.h ****     }
 1116              		.loc 7 73 39 view .LVU291
 1117              	.LBE482:
 1118              	.LBE486:
 1119              	.LBB487:
 1120              	.LBI487:
 1121              		.loc 7 343 10 is_stmt 1 view .LVU292
 1122              	.LBB488:
 1123              		.loc 7 343 55 is_stmt 0 view .LVU293
 1124 015c 96F83020 		ldrb	r2, [r6, #48]	@ zero_extendqisi2
 1125              	.LBE488:
 1126              	.LBE487:
 1127              	.LBB491:
 1128              	.LBB492:
  66:../../../libDaisy/src/dev/mpr121.h ****     }
 1129              		.loc 7 66 40 view .LVU294
 1130 0160 0223     		movs	r3, #2
 1131 0162 96F82C10 		ldrb	r1, [r6, #44]	@ zero_extendqisi2
 1132              	.LBE492:
 1133              	.LBE491:
 1134              	.LBB495:
 1135              	.LBB489:
 1136              		.loc 7 343 55 view .LVU295
 1137 0166 4845     		cmp	r0, r9
 1138 0168 18BF     		it	ne
 1139 016a 42F00102 		orrne	r2, r2, #1
 1140              	.LBE489:
 1141              	.LBE495:
 1142              	.LBB496:
 1143              	.LBB493:
  66:../../../libDaisy/src/dev/mpr121.h ****     }
ARM GAS  /var/folders/yw/6_x9gyn52jjg4jtn_wsryx_80000gp/T//cc8YnlWV.s 			page 46


 1144              		.loc 7 66 40 view .LVU296
 1145 016e 0094     		str	r4, [sp]
 1146 0170 7848     		ldr	r0, .L49+28
 1147              	.LVL58:
  66:../../../libDaisy/src/dev/mpr121.h ****     }
 1148              		.loc 7 66 40 view .LVU297
 1149              	.LBE493:
 1150              	.LBE496:
 1151              	.LBB497:
 1152              	.LBB490:
 1153              		.loc 7 343 55 view .LVU298
 1154 0172 86F83020 		strb	r2, [r6, #48]
 1155              	.LVL59:
 1156              		.loc 7 343 55 view .LVU299
 1157              	.LBE490:
 1158              	.LBE497:
 1159              	.LBB498:
 1160              	.LBI491:
  63:../../../libDaisy/src/dev/mpr121.h ****     {
 1161              		.loc 7 63 10 is_stmt 1 view .LVU300
 1162              	.LBB494:
  65:../../../libDaisy/src/dev/mpr121.h ****                != i2c_.TransmitBlocking(config_.dev_addr, data, size, 10);
 1163              		.loc 7 65 9 view .LVU301
  66:../../../libDaisy/src/dev/mpr121.h ****     }
 1164              		.loc 7 66 40 is_stmt 0 view .LVU302
 1165 0176 07AA     		add	r2, sp, #28
 1166              	.LVL60:
  66:../../../libDaisy/src/dev/mpr121.h ****     }
 1167              		.loc 7 66 40 view .LVU303
 1168 0178 FFF7FEFF 		bl	_ZN5daisy9I2CHandle16TransmitBlockingEtPhtm
 1169              	.LVL61:
  66:../../../libDaisy/src/dev/mpr121.h ****     }
 1170              		.loc 7 66 40 view .LVU304
 1171              	.LBE494:
 1172              	.LBE498:
 1173              	.LBB499:
 1174              	.LBI499:
 1175              		.loc 7 343 10 is_stmt 1 view .LVU305
 1176              	.LBB500:
 1177              		.loc 7 343 55 is_stmt 0 view .LVU306
 1178 017c 96F83020 		ldrb	r2, [r6, #48]	@ zero_extendqisi2
 1179              	.LBE500:
 1180              	.LBE499:
 1181              	.LBB503:
 1182              	.LBB504:
  66:../../../libDaisy/src/dev/mpr121.h ****     }
 1183              		.loc 7 66 40 view .LVU307
 1184 0180 0223     		movs	r3, #2
 1185 0182 96F82C10 		ldrb	r1, [r6, #44]	@ zero_extendqisi2
 1186              	.LBE504:
 1187              	.LBE503:
 1188              	.LBB508:
 1189              	.LBB501:
 1190              		.loc 7 343 55 view .LVU308
 1191 0186 4845     		cmp	r0, r9
 1192 0188 18BF     		it	ne
 1193 018a 42F00102 		orrne	r2, r2, #1
ARM GAS  /var/folders/yw/6_x9gyn52jjg4jtn_wsryx_80000gp/T//cc8YnlWV.s 			page 47


 1194              	.LBE501:
 1195              	.LBE508:
 1196              	.LBB509:
 1197              	.LBB505:
  66:../../../libDaisy/src/dev/mpr121.h ****     }
 1198              		.loc 7 66 40 view .LVU309
 1199 018e 0094     		str	r4, [sp]
 1200 0190 7048     		ldr	r0, .L49+28
 1201              	.LVL62:
  66:../../../libDaisy/src/dev/mpr121.h ****     }
 1202              		.loc 7 66 40 view .LVU310
 1203              	.LBE505:
 1204              	.LBE509:
 1205              	.LBB510:
 1206              	.LBB502:
 1207              		.loc 7 343 55 view .LVU311
 1208 0192 86F83020 		strb	r2, [r6, #48]
 1209              	.LVL63:
 1210              		.loc 7 343 55 view .LVU312
 1211              	.LBE502:
 1212              	.LBE510:
 1213              	.LBB511:
 1214              	.LBI503:
  63:../../../libDaisy/src/dev/mpr121.h ****     {
 1215              		.loc 7 63 10 is_stmt 1 view .LVU313
 1216              	.LBB506:
  65:../../../libDaisy/src/dev/mpr121.h ****                != i2c_.TransmitBlocking(config_.dev_addr, data, size, 10);
 1217              		.loc 7 65 9 view .LVU314
  66:../../../libDaisy/src/dev/mpr121.h ****     }
 1218              		.loc 7 66 40 is_stmt 0 view .LVU315
 1219 0196 07AA     		add	r2, sp, #28
 1220              	.LVL64:
  66:../../../libDaisy/src/dev/mpr121.h ****     }
 1221              		.loc 7 66 40 view .LVU316
 1222              	.LBE506:
 1223              	.LBE511:
 281:../../../libDaisy/src/dev/mpr121.h ****         buff[1] = value;
 1224              		.loc 7 281 17 view .LVU317
 1225 0198 8DF81C50 		strb	r5, [sp, #28]
 282:../../../libDaisy/src/dev/mpr121.h ****         SetTransportErr(transport_.Write(buff, 2));
 1226              		.loc 7 282 17 view .LVU318
 1227 019c 8DF81DB0 		strb	fp, [sp, #29]
 1228              	.LBB512:
 1229              	.LBB507:
  66:../../../libDaisy/src/dev/mpr121.h ****     }
 1230              		.loc 7 66 40 view .LVU319
 1231 01a0 FFF7FEFF 		bl	_ZN5daisy9I2CHandle16TransmitBlockingEtPhtm
 1232              	.LVL65:
  66:../../../libDaisy/src/dev/mpr121.h ****     }
 1233              		.loc 7 66 40 view .LVU320
 1234              	.LBE507:
 1235              	.LBE512:
 1236              	.LBB513:
 1237              	.LBI513:
 1238              		.loc 7 343 10 is_stmt 1 view .LVU321
 1239              	.LBB514:
 1240              		.loc 7 343 55 is_stmt 0 view .LVU322
ARM GAS  /var/folders/yw/6_x9gyn52jjg4jtn_wsryx_80000gp/T//cc8YnlWV.s 			page 48


 1241 01a4 96F83010 		ldrb	r1, [r6, #48]	@ zero_extendqisi2
 1242              	.LBE514:
 1243              	.LBE513:
 1244              	.LBB517:
 1245              	.LBB518:
  66:../../../libDaisy/src/dev/mpr121.h ****     }
 1246              		.loc 7 66 40 view .LVU323
 1247 01a8 07AA     		add	r2, sp, #28
 1248              	.LBE518:
 1249              	.LBE517:
 289:../../../libDaisy/src/dev/mpr121.h ****             SetTransportErr(transport_.Write(buff, 2));
 1250              		.loc 7 289 21 view .LVU324
 1251 01aa 9DF80830 		ldrb	r3, [sp, #8]	@ zero_extendqisi2
 1252              	.LBB523:
 1253              	.LBB515:
 1254              		.loc 7 343 55 view .LVU325
 1255 01ae 4845     		cmp	r0, r9
 1256 01b0 18BF     		it	ne
 1257 01b2 41F00101 		orrne	r1, r1, #1
 1258              	.LBE515:
 1259              	.LBE523:
 1260              	.LBB524:
 1261              	.LBB519:
  66:../../../libDaisy/src/dev/mpr121.h ****     }
 1262              		.loc 7 66 40 view .LVU326
 1263 01b6 0094     		str	r4, [sp]
 1264              	.LBE519:
 1265              	.LBE524:
 289:../../../libDaisy/src/dev/mpr121.h ****             SetTransportErr(transport_.Write(buff, 2));
 1266              		.loc 7 289 21 view .LVU327
 1267 01b8 8DF81D30 		strb	r3, [sp, #29]
 1268              	.LBB525:
 1269              	.LBB520:
  66:../../../libDaisy/src/dev/mpr121.h ****     }
 1270              		.loc 7 66 40 view .LVU328
 1271 01bc 0223     		movs	r3, #2
 1272              	.LBE520:
 1273              	.LBE525:
 1274              	.LBB526:
 1275              	.LBB516:
 1276              		.loc 7 343 55 view .LVU329
 1277 01be 86F83010 		strb	r1, [r6, #48]
 1278              	.LVL66:
 1279              		.loc 7 343 55 view .LVU330
 1280              	.LBE516:
 1281              	.LBE526:
 1282              	.LBB527:
 1283              	.LBI517:
  63:../../../libDaisy/src/dev/mpr121.h ****     {
 1284              		.loc 7 63 10 is_stmt 1 view .LVU331
 1285              	.LBB521:
  65:../../../libDaisy/src/dev/mpr121.h ****                != i2c_.TransmitBlocking(config_.dev_addr, data, size, 10);
 1286              		.loc 7 65 9 view .LVU332
  66:../../../libDaisy/src/dev/mpr121.h ****     }
 1287              		.loc 7 66 40 is_stmt 0 view .LVU333
 1288 01c2 6448     		ldr	r0, .L49+28
 1289 01c4 96F82C10 		ldrb	r1, [r6, #44]	@ zero_extendqisi2
ARM GAS  /var/folders/yw/6_x9gyn52jjg4jtn_wsryx_80000gp/T//cc8YnlWV.s 			page 49


 1290              	.LBE521:
 1291              	.LBE527:
 288:../../../libDaisy/src/dev/mpr121.h ****             buff[1] = ecr_backup;
 1292              		.loc 7 288 21 view .LVU334
 1293 01c8 8DF81C80 		strb	r8, [sp, #28]
 1294              	.LBB528:
 1295              	.LBB522:
  66:../../../libDaisy/src/dev/mpr121.h ****     }
 1296              		.loc 7 66 40 view .LVU335
 1297 01cc FFF7FEFF 		bl	_ZN5daisy9I2CHandle16TransmitBlockingEtPhtm
 1298              	.LVL67:
  66:../../../libDaisy/src/dev/mpr121.h ****     }
 1299              		.loc 7 66 40 view .LVU336
 1300              	.LBE522:
 1301              	.LBE528:
 1302              	.LBB529:
 1303              	.LBI529:
 1304              		.loc 7 343 10 is_stmt 1 view .LVU337
 1305              	.LBB530:
 1306              		.loc 7 343 55 is_stmt 0 view .LVU338
 1307 01d0 96F83020 		ldrb	r2, [r6, #48]	@ zero_extendqisi2
 1308              	.LBE530:
 1309              	.LBE529:
 1310              	.LBE468:
 1311              	.LBE467:
 1312              	.LBB537:
 1313              	.LBB538:
 1314              	.LBB539:
 1315              	.LBB540:
  66:../../../libDaisy/src/dev/mpr121.h ****     }
 1316              		.loc 7 66 40 view .LVU339
 1317 01d4 0123     		movs	r3, #1
 1318 01d6 96F82C10 		ldrb	r1, [r6, #44]	@ zero_extendqisi2
 1319              	.LBE540:
 1320              	.LBE539:
 1321              	.LBE538:
 1322              	.LBE537:
 1323              	.LBB612:
 1324              	.LBB535:
 1325              	.LBB533:
 1326              	.LBB531:
 1327              		.loc 7 343 55 view .LVU340
 1328 01da 4845     		cmp	r0, r9
 1329 01dc 18BF     		it	ne
 1330 01de 42F00102 		orrne	r2, r2, #1
 1331              	.LBE531:
 1332              	.LBE533:
 1333              	.LBE535:
 1334              	.LBE612:
 1335              	.LBB613:
 1336              	.LBB607:
 1337              	.LBB544:
 1338              	.LBB541:
  66:../../../libDaisy/src/dev/mpr121.h ****     }
 1339              		.loc 7 66 40 view .LVU341
 1340 01e2 0094     		str	r4, [sp]
 1341 01e4 5B48     		ldr	r0, .L49+28
ARM GAS  /var/folders/yw/6_x9gyn52jjg4jtn_wsryx_80000gp/T//cc8YnlWV.s 			page 50


 1342              	.LVL68:
  66:../../../libDaisy/src/dev/mpr121.h ****     }
 1343              		.loc 7 66 40 view .LVU342
 1344              	.LBE541:
 1345              	.LBE544:
 1346              	.LBE607:
 1347              	.LBE613:
 1348              	.LBB614:
 1349              	.LBB536:
 1350              	.LBB534:
 1351              	.LBB532:
 1352              		.loc 7 343 55 view .LVU343
 1353 01e6 86F83020 		strb	r2, [r6, #48]
 1354              	.LVL69:
 1355              		.loc 7 343 55 view .LVU344
 1356              	.LBE532:
 1357              	.LBE534:
 1358              	.LBE536:
 1359              	.LBE614:
 1360              	.LBB615:
 1361              	.LBI537:
 257:../../../libDaisy/src/dev/mpr121.h ****     {
 1362              		.loc 7 257 10 is_stmt 1 view .LVU345
 1363              	.LBB608:
 1364              	.LBB545:
 1365              	.LBI539:
  63:../../../libDaisy/src/dev/mpr121.h ****     {
 1366              		.loc 7 63 10 view .LVU346
 1367              	.LBB542:
  65:../../../libDaisy/src/dev/mpr121.h ****                != i2c_.TransmitBlocking(config_.dev_addr, data, size, 10);
 1368              		.loc 7 65 9 view .LVU347
  66:../../../libDaisy/src/dev/mpr121.h ****     }
 1369              		.loc 7 66 40 is_stmt 0 view .LVU348
 1370 01ea 07AA     		add	r2, sp, #28
 1371              	.LVL70:
  66:../../../libDaisy/src/dev/mpr121.h ****     }
 1372              		.loc 7 66 40 view .LVU349
 1373              	.LBE542:
 1374              	.LBE545:
 264:../../../libDaisy/src/dev/mpr121.h **** 
 1375              		.loc 7 264 17 view .LVU350
 1376 01ec 8DF81D90 		strb	r9, [sp, #29]
 1377 01f0 8DF81C80 		strb	r8, [sp, #28]
 1378              	.LBB546:
 1379              	.LBB543:
  66:../../../libDaisy/src/dev/mpr121.h ****     }
 1380              		.loc 7 66 40 view .LVU351
 1381 01f4 FFF7FEFF 		bl	_ZN5daisy9I2CHandle16TransmitBlockingEtPhtm
 1382              	.LVL71:
  66:../../../libDaisy/src/dev/mpr121.h ****     }
 1383              		.loc 7 66 40 view .LVU352
 1384              	.LBE543:
 1385              	.LBE546:
 1386              	.LBB547:
 1387              	.LBI547:
 1388              		.loc 7 343 10 is_stmt 1 view .LVU353
 1389              	.LBB548:
ARM GAS  /var/folders/yw/6_x9gyn52jjg4jtn_wsryx_80000gp/T//cc8YnlWV.s 			page 51


 1390              		.loc 7 343 55 is_stmt 0 view .LVU354
 1391 01f8 96F83020 		ldrb	r2, [r6, #48]	@ zero_extendqisi2
 1392              	.LBE548:
 1393              	.LBE547:
 1394              	.LBB551:
 1395              	.LBB552:
  73:../../../libDaisy/src/dev/mpr121.h ****     }
 1396              		.loc 7 73 39 view .LVU355
 1397 01fc 0123     		movs	r3, #1
 1398 01fe 96F82C10 		ldrb	r1, [r6, #44]	@ zero_extendqisi2
 1399              	.LBE552:
 1400              	.LBE551:
 1401              	.LBB555:
 1402              	.LBB549:
 1403              		.loc 7 343 55 view .LVU356
 1404 0202 4845     		cmp	r0, r9
 1405 0204 18BF     		it	ne
 1406 0206 42F00102 		orrne	r2, r2, #1
 1407              	.LBE549:
 1408              	.LBE555:
 1409              	.LBB556:
 1410              	.LBB553:
  73:../../../libDaisy/src/dev/mpr121.h ****     }
 1411              		.loc 7 73 39 view .LVU357
 1412 020a 0094     		str	r4, [sp]
 1413 020c 5148     		ldr	r0, .L49+28
 1414              	.LVL72:
  73:../../../libDaisy/src/dev/mpr121.h ****     }
 1415              		.loc 7 73 39 view .LVU358
 1416              	.LBE553:
 1417              	.LBE556:
 1418              	.LBB557:
 1419              	.LBB550:
 1420              		.loc 7 343 55 view .LVU359
 1421 020e 86F83020 		strb	r2, [r6, #48]
 1422              	.LVL73:
 1423              		.loc 7 343 55 view .LVU360
 1424              	.LBE550:
 1425              	.LBE557:
 1426              	.LBB558:
 1427              	.LBI551:
  70:../../../libDaisy/src/dev/mpr121.h ****     {
 1428              		.loc 7 70 10 is_stmt 1 view .LVU361
 1429              	.LBB554:
  72:../../../libDaisy/src/dev/mpr121.h ****                != i2c_.ReceiveBlocking(config_.dev_addr, data, size, 10);
 1430              		.loc 7 72 9 view .LVU362
  73:../../../libDaisy/src/dev/mpr121.h ****     }
 1431              		.loc 7 73 39 is_stmt 0 view .LVU363
 1432 0212 02AA     		add	r2, sp, #8
 1433              	.LVL74:
  73:../../../libDaisy/src/dev/mpr121.h ****     }
 1434              		.loc 7 73 39 view .LVU364
 1435 0214 FFF7FEFF 		bl	_ZN5daisy9I2CHandle15ReceiveBlockingEtPhtm
 1436              	.LVL75:
  73:../../../libDaisy/src/dev/mpr121.h ****     }
 1437              		.loc 7 73 39 view .LVU365
 1438              	.LBE554:
ARM GAS  /var/folders/yw/6_x9gyn52jjg4jtn_wsryx_80000gp/T//cc8YnlWV.s 			page 52


 1439              	.LBE558:
 1440              	.LBB559:
 1441              	.LBI559:
 1442              		.loc 7 343 10 is_stmt 1 view .LVU366
 1443              	.LBB560:
 1444              		.loc 7 343 55 is_stmt 0 view .LVU367
 1445 0218 96F83020 		ldrb	r2, [r6, #48]	@ zero_extendqisi2
 1446              	.LBE560:
 1447              	.LBE559:
 1448              	.LBB563:
 1449              	.LBB564:
  66:../../../libDaisy/src/dev/mpr121.h ****     }
 1450              		.loc 7 66 40 view .LVU368
 1451 021c 0223     		movs	r3, #2
 1452 021e 96F82C10 		ldrb	r1, [r6, #44]	@ zero_extendqisi2
 1453              	.LBE564:
 1454              	.LBE563:
 1455              	.LBB567:
 1456              	.LBB561:
 1457              		.loc 7 343 55 view .LVU369
 1458 0222 4845     		cmp	r0, r9
 1459 0224 18BF     		it	ne
 1460 0226 42F00102 		orrne	r2, r2, #1
 1461              	.LBE561:
 1462              	.LBE567:
 1463              	.LBB568:
 1464              	.LBB565:
  66:../../../libDaisy/src/dev/mpr121.h ****     }
 1465              		.loc 7 66 40 view .LVU370
 1466 022a 0094     		str	r4, [sp]
 1467 022c 4948     		ldr	r0, .L49+28
 1468              	.LVL76:
  66:../../../libDaisy/src/dev/mpr121.h ****     }
 1469              		.loc 7 66 40 view .LVU371
 1470              	.LBE565:
 1471              	.LBE568:
 1472              	.LBB569:
 1473              	.LBB562:
 1474              		.loc 7 343 55 view .LVU372
 1475 022e 86F83020 		strb	r2, [r6, #48]
 1476              	.LVL77:
 1477              		.loc 7 343 55 view .LVU373
 1478              	.LBE562:
 1479              	.LBE569:
 1480              	.LBB570:
 1481              	.LBI563:
  63:../../../libDaisy/src/dev/mpr121.h ****     {
 1482              		.loc 7 63 10 is_stmt 1 view .LVU374
 1483              	.LBB566:
  65:../../../libDaisy/src/dev/mpr121.h ****                != i2c_.TransmitBlocking(config_.dev_addr, data, size, 10);
 1484              		.loc 7 65 9 view .LVU375
  66:../../../libDaisy/src/dev/mpr121.h ****     }
 1485              		.loc 7 66 40 is_stmt 0 view .LVU376
 1486 0232 07AA     		add	r2, sp, #28
 1487              	.LVL78:
  66:../../../libDaisy/src/dev/mpr121.h ****     }
 1488              		.loc 7 66 40 view .LVU377
ARM GAS  /var/folders/yw/6_x9gyn52jjg4jtn_wsryx_80000gp/T//cc8YnlWV.s 			page 53


 1489 0234 FFF7FEFF 		bl	_ZN5daisy9I2CHandle16TransmitBlockingEtPhtm
 1490              	.LVL79:
  66:../../../libDaisy/src/dev/mpr121.h ****     }
 1491              		.loc 7 66 40 view .LVU378
 1492              	.LBE566:
 1493              	.LBE570:
 1494              	.LBB571:
 1495              	.LBI571:
 1496              		.loc 7 343 10 is_stmt 1 view .LVU379
 1497              	.LBB572:
 1498              		.loc 7 343 55 is_stmt 0 view .LVU380
 1499 0238 96F83010 		ldrb	r1, [r6, #48]	@ zero_extendqisi2
 1500              	.LBE572:
 1501              	.LBE571:
 281:../../../libDaisy/src/dev/mpr121.h ****         buff[1] = value;
 1502              		.loc 7 281 17 view .LVU381
 1503 023c 6B1C     		adds	r3, r5, #1
 1504              	.LBB575:
 1505              	.LBB576:
  66:../../../libDaisy/src/dev/mpr121.h ****     }
 1506              		.loc 7 66 40 view .LVU382
 1507 023e 07AA     		add	r2, sp, #28
 1508              	.LBE576:
 1509              	.LBE575:
 1510              	.LBB582:
 1511              	.LBB573:
 1512              		.loc 7 343 55 view .LVU383
 1513 0240 4845     		cmp	r0, r9
 1514 0242 18BF     		it	ne
 1515 0244 41F00101 		orrne	r1, r1, #1
 1516              	.LBE573:
 1517              	.LBE582:
 1518              	.LBB583:
 1519              	.LBB577:
  66:../../../libDaisy/src/dev/mpr121.h ****     }
 1520              		.loc 7 66 40 view .LVU384
 1521 0248 0094     		str	r4, [sp]
 1522              	.LBE577:
 1523              	.LBE583:
 281:../../../libDaisy/src/dev/mpr121.h ****         buff[1] = value;
 1524              		.loc 7 281 17 view .LVU385
 1525 024a 8DF81C30 		strb	r3, [sp, #28]
 1526              	.LBB584:
 1527              	.LBB578:
  66:../../../libDaisy/src/dev/mpr121.h ****     }
 1528              		.loc 7 66 40 view .LVU386
 1529 024e 0223     		movs	r3, #2
 1530              	.LBE578:
 1531              	.LBE584:
 1532              	.LBB585:
 1533              	.LBB574:
 1534              		.loc 7 343 55 view .LVU387
 1535 0250 86F83010 		strb	r1, [r6, #48]
 1536              	.LVL80:
 1537              		.loc 7 343 55 view .LVU388
 1538              	.LBE574:
 1539              	.LBE585:
ARM GAS  /var/folders/yw/6_x9gyn52jjg4jtn_wsryx_80000gp/T//cc8YnlWV.s 			page 54


 1540              	.LBB586:
 1541              	.LBI575:
  63:../../../libDaisy/src/dev/mpr121.h ****     {
 1542              		.loc 7 63 10 is_stmt 1 view .LVU389
 1543              	.LBB579:
  65:../../../libDaisy/src/dev/mpr121.h ****                != i2c_.TransmitBlocking(config_.dev_addr, data, size, 10);
 1544              		.loc 7 65 9 view .LVU390
 1545              	.LBE579:
 1546              	.LBE586:
 1547              	.LBE608:
 1548              	.LBE615:
 180:../../../libDaisy/src/dev/mpr121.h ****         {
 1549              		.loc 7 180 30 is_stmt 0 view .LVU391
 1550 0254 0235     		adds	r5, r5, #2
 1551              	.LVL81:
 1552              	.LBB616:
 1553              	.LBB609:
 1554              	.LBB587:
 1555              	.LBB580:
  66:../../../libDaisy/src/dev/mpr121.h ****     }
 1556              		.loc 7 66 40 view .LVU392
 1557 0256 96F82C10 		ldrb	r1, [r6, #44]	@ zero_extendqisi2
 1558 025a 3E48     		ldr	r0, .L49+28
 1559              	.LBE580:
 1560              	.LBE587:
 1561              	.LBE609:
 1562              	.LBE616:
 180:../../../libDaisy/src/dev/mpr121.h ****         {
 1563              		.loc 7 180 30 view .LVU393
 1564 025c EDB2     		uxtb	r5, r5
 1565              	.LBB617:
 1566              	.LBB610:
 282:../../../libDaisy/src/dev/mpr121.h ****         SetTransportErr(transport_.Write(buff, 2));
 1567              		.loc 7 282 17 view .LVU394
 1568 025e 8DF81DA0 		strb	r10, [sp, #29]
 1569              	.LBB588:
 1570              	.LBB581:
  66:../../../libDaisy/src/dev/mpr121.h ****     }
 1571              		.loc 7 66 40 view .LVU395
 1572 0262 FFF7FEFF 		bl	_ZN5daisy9I2CHandle16TransmitBlockingEtPhtm
 1573              	.LVL82:
  66:../../../libDaisy/src/dev/mpr121.h ****     }
 1574              		.loc 7 66 40 view .LVU396
 1575              	.LBE581:
 1576              	.LBE588:
 1577              	.LBB589:
 1578              	.LBI589:
 1579              		.loc 7 343 10 is_stmt 1 view .LVU397
 1580              	.LBB590:
 1581              		.loc 7 343 55 is_stmt 0 view .LVU398
 1582 0266 96F83020 		ldrb	r2, [r6, #48]	@ zero_extendqisi2
 1583              	.LBE590:
 1584              	.LBE589:
 1585              	.LBB593:
 1586              	.LBB594:
  66:../../../libDaisy/src/dev/mpr121.h ****     }
 1587              		.loc 7 66 40 view .LVU399
ARM GAS  /var/folders/yw/6_x9gyn52jjg4jtn_wsryx_80000gp/T//cc8YnlWV.s 			page 55


 1588 026a 0223     		movs	r3, #2
 1589              	.LBE594:
 1590              	.LBE593:
 289:../../../libDaisy/src/dev/mpr121.h ****             SetTransportErr(transport_.Write(buff, 2));
 1591              		.loc 7 289 21 view .LVU400
 1592 026c 9DF80810 		ldrb	r1, [sp, #8]	@ zero_extendqisi2
 1593              	.LBB598:
 1594              	.LBB595:
  66:../../../libDaisy/src/dev/mpr121.h ****     }
 1595              		.loc 7 66 40 view .LVU401
 1596 0270 0094     		str	r4, [sp]
 1597              	.LBE595:
 1598              	.LBE598:
 1599              	.LBB599:
 1600              	.LBB591:
 1601              		.loc 7 343 55 view .LVU402
 1602 0272 4845     		cmp	r0, r9
 1603 0274 0CBF     		ite	eq
 1604 0276 1446     		moveq	r4, r2
 1605 0278 42F00104 		orrne	r4, r2, #1
 1606              	.LBE591:
 1607              	.LBE599:
 289:../../../libDaisy/src/dev/mpr121.h ****             SetTransportErr(transport_.Write(buff, 2));
 1608              		.loc 7 289 21 view .LVU403
 1609 027c 8DF81D10 		strb	r1, [sp, #29]
 1610              	.LBB600:
 1611              	.LBB596:
  66:../../../libDaisy/src/dev/mpr121.h ****     }
 1612              		.loc 7 66 40 view .LVU404
 1613 0280 07AA     		add	r2, sp, #28
 1614 0282 96F82C10 		ldrb	r1, [r6, #44]	@ zero_extendqisi2
 1615 0286 3348     		ldr	r0, .L49+28
 1616              	.LVL83:
  66:../../../libDaisy/src/dev/mpr121.h ****     }
 1617              		.loc 7 66 40 view .LVU405
 1618              	.LBE596:
 1619              	.LBE600:
 288:../../../libDaisy/src/dev/mpr121.h ****             buff[1] = ecr_backup;
 1620              		.loc 7 288 21 view .LVU406
 1621 0288 8DF81C80 		strb	r8, [sp, #28]
 1622              	.LBB601:
 1623              	.LBB592:
 1624              		.loc 7 343 55 view .LVU407
 1625 028c 86F83040 		strb	r4, [r6, #48]
 1626              	.LVL84:
 1627              		.loc 7 343 55 view .LVU408
 1628              	.LBE592:
 1629              	.LBE601:
 1630              	.LBB602:
 1631              	.LBI593:
  63:../../../libDaisy/src/dev/mpr121.h ****     {
 1632              		.loc 7 63 10 is_stmt 1 view .LVU409
 1633              	.LBB597:
  65:../../../libDaisy/src/dev/mpr121.h ****                != i2c_.TransmitBlocking(config_.dev_addr, data, size, 10);
 1634              		.loc 7 65 9 view .LVU410
  66:../../../libDaisy/src/dev/mpr121.h ****     }
 1635              		.loc 7 66 40 is_stmt 0 view .LVU411
ARM GAS  /var/folders/yw/6_x9gyn52jjg4jtn_wsryx_80000gp/T//cc8YnlWV.s 			page 56


 1636 0290 FFF7FEFF 		bl	_ZN5daisy9I2CHandle16TransmitBlockingEtPhtm
 1637              	.LVL85:
  66:../../../libDaisy/src/dev/mpr121.h ****     }
 1638              		.loc 7 66 40 view .LVU412
 1639              	.LBE597:
 1640              	.LBE602:
 1641              	.LBB603:
 1642              	.LBI603:
 1643              		.loc 7 343 10 is_stmt 1 view .LVU413
 1644              	.LBB604:
 1645              		.loc 7 343 55 is_stmt 0 view .LVU414
 1646 0294 96F83030 		ldrb	r3, [r6, #48]	@ zero_extendqisi2
 1647 0298 4845     		cmp	r0, r9
 1648 029a 18BF     		it	ne
 1649 029c 43F00103 		orrne	r3, r3, #1
 1650              	.LBE604:
 1651              	.LBE603:
 1652              	.LBE610:
 1653              	.LBE617:
 180:../../../libDaisy/src/dev/mpr121.h ****         {
 1654              		.loc 7 180 30 view .LVU415
 1655 02a0 592D     		cmp	r5, #89
 1656              	.LBB618:
 1657              	.LBB611:
 1658              	.LBB606:
 1659              	.LBB605:
 1660              		.loc 7 343 55 view .LVU416
 1661 02a2 86F83030 		strb	r3, [r6, #48]
 1662              	.LVL86:
 1663              		.loc 7 343 55 view .LVU417
 1664              	.LBE605:
 1665              	.LBE606:
 1666              	.LBE611:
 1667              	.LBE618:
 180:../../../libDaisy/src/dev/mpr121.h ****         {
 1668              		.loc 7 180 9 is_stmt 1 view .LVU418
 180:../../../libDaisy/src/dev/mpr121.h ****         {
 1669              		.loc 7 180 30 view .LVU419
 1670 02a6 7FF438AF 		bne	.L25
 1671              	.LVL87:
 180:../../../libDaisy/src/dev/mpr121.h ****         {
 1672              		.loc 7 180 30 is_stmt 0 view .LVU420
 1673              	.LBE466:
 1674              	.LBE465:
 134:../../../libDaisy/src/dev/mpr121.h ****         WriteRegister(MPR121_NHDR, 0x01);
 1675              		.loc 7 134 22 view .LVU421
 1676 02aa 0122     		movs	r2, #1
 1677 02ac 2B21     		movs	r1, #43
 1678 02ae 2448     		ldr	r0, .L49+8
 1679 02b0 FFF7FEFF 		bl	_ZN5daisy6Mpr121INS_18Mpr121I2CTransportEE13WriteRegisterEhh
 1680              	.LVL88:
 135:../../../libDaisy/src/dev/mpr121.h ****         WriteRegister(MPR121_NCLR, 0x0E);
 1681              		.loc 7 135 22 view .LVU422
 1682 02b4 0122     		movs	r2, #1
 1683 02b6 2C21     		movs	r1, #44
 1684 02b8 2148     		ldr	r0, .L49+8
 1685 02ba FFF7FEFF 		bl	_ZN5daisy6Mpr121INS_18Mpr121I2CTransportEE13WriteRegisterEhh
ARM GAS  /var/folders/yw/6_x9gyn52jjg4jtn_wsryx_80000gp/T//cc8YnlWV.s 			page 57


 1686              	.LVL89:
 136:../../../libDaisy/src/dev/mpr121.h ****         WriteRegister(MPR121_FDLR, 0x00);
 1687              		.loc 7 136 22 view .LVU423
 1688 02be 2D21     		movs	r1, #45
 1689 02c0 1F48     		ldr	r0, .L49+8
 1690 02c2 0E22     		movs	r2, #14
 1691 02c4 FFF7FEFF 		bl	_ZN5daisy6Mpr121INS_18Mpr121I2CTransportEE13WriteRegisterEhh
 1692              	.LVL90:
 137:../../../libDaisy/src/dev/mpr121.h **** 
 1693              		.loc 7 137 22 view .LVU424
 1694 02c8 4A46     		mov	r2, r9
 1695 02ca 2E21     		movs	r1, #46
 1696 02cc 1C48     		ldr	r0, .L49+8
 1697 02ce FFF7FEFF 		bl	_ZN5daisy6Mpr121INS_18Mpr121I2CTransportEE13WriteRegisterEhh
 1698              	.LVL91:
 139:../../../libDaisy/src/dev/mpr121.h ****         WriteRegister(MPR121_NHDF, 0x05);
 1699              		.loc 7 139 22 view .LVU425
 1700 02d2 0122     		movs	r2, #1
 1701 02d4 2F21     		movs	r1, #47
 1702 02d6 1A48     		ldr	r0, .L49+8
 1703 02d8 FFF7FEFF 		bl	_ZN5daisy6Mpr121INS_18Mpr121I2CTransportEE13WriteRegisterEhh
 1704              	.LVL92:
 140:../../../libDaisy/src/dev/mpr121.h ****         WriteRegister(MPR121_NCLF, 0x01);
 1705              		.loc 7 140 22 view .LVU426
 1706 02dc 0522     		movs	r2, #5
 1707 02de 3021     		movs	r1, #48
 1708 02e0 1748     		ldr	r0, .L49+8
 1709 02e2 FFF7FEFF 		bl	_ZN5daisy6Mpr121INS_18Mpr121I2CTransportEE13WriteRegisterEhh
 1710              	.LVL93:
 141:../../../libDaisy/src/dev/mpr121.h ****         WriteRegister(MPR121_FDLF, 0x00);
 1711              		.loc 7 141 22 view .LVU427
 1712 02e6 3121     		movs	r1, #49
 1713 02e8 1548     		ldr	r0, .L49+8
 1714 02ea 0122     		movs	r2, #1
 1715 02ec FFF7FEFF 		bl	_ZN5daisy6Mpr121INS_18Mpr121I2CTransportEE13WriteRegisterEhh
 1716              	.LVL94:
 142:../../../libDaisy/src/dev/mpr121.h **** 
 1717              		.loc 7 142 22 view .LVU428
 1718 02f0 4A46     		mov	r2, r9
 1719 02f2 3221     		movs	r1, #50
 1720 02f4 1248     		ldr	r0, .L49+8
 1721 02f6 FFF7FEFF 		bl	_ZN5daisy6Mpr121INS_18Mpr121I2CTransportEE13WriteRegisterEhh
 1722              	.LVL95:
 144:../../../libDaisy/src/dev/mpr121.h ****         WriteRegister(MPR121_NCLT, 0x00);
 1723              		.loc 7 144 22 view .LVU429
 1724 02fa 4A46     		mov	r2, r9
 1725 02fc 3321     		movs	r1, #51
 1726 02fe 1048     		ldr	r0, .L49+8
 1727 0300 FFF7FEFF 		bl	_ZN5daisy6Mpr121INS_18Mpr121I2CTransportEE13WriteRegisterEhh
 1728              	.LVL96:
 145:../../../libDaisy/src/dev/mpr121.h ****         WriteRegister(MPR121_FDLT, 0x00);
 1729              		.loc 7 145 22 view .LVU430
 1730 0304 4A46     		mov	r2, r9
 1731 0306 3421     		movs	r1, #52
 1732 0308 0D48     		ldr	r0, .L49+8
 1733 030a FFF7FEFF 		bl	_ZN5daisy6Mpr121INS_18Mpr121I2CTransportEE13WriteRegisterEhh
 1734              	.LVL97:
ARM GAS  /var/folders/yw/6_x9gyn52jjg4jtn_wsryx_80000gp/T//cc8YnlWV.s 			page 58


 146:../../../libDaisy/src/dev/mpr121.h **** 
 1735              		.loc 7 146 22 view .LVU431
 1736 030e 4A46     		mov	r2, r9
 1737 0310 3521     		movs	r1, #53
 1738 0312 0B48     		ldr	r0, .L49+8
 1739 0314 FFF7FEFF 		bl	_ZN5daisy6Mpr121INS_18Mpr121I2CTransportEE13WriteRegisterEhh
 1740              	.LVL98:
 148:../../../libDaisy/src/dev/mpr121.h ****         WriteRegister(MPR121_CONFIG1, 0x10); // default, 16uA charge current
 1741              		.loc 7 148 22 view .LVU432
 1742 0318 4A46     		mov	r2, r9
 1743 031a 5B21     		movs	r1, #91
 1744 031c 0848     		ldr	r0, .L49+8
 1745 031e FFF7FEFF 		bl	_ZN5daisy6Mpr121INS_18Mpr121I2CTransportEE13WriteRegisterEhh
 1746              	.LVL99:
 149:../../../libDaisy/src/dev/mpr121.h ****         WriteRegister(MPR121_CONFIG2, 0x20); // 0.5uS encoding, 1ms period
 1747              		.loc 7 149 22 view .LVU433
 1748 0322 1022     		movs	r2, #16
 1749 0324 5C21     		movs	r1, #92
 1750 0326 0648     		ldr	r0, .L49+8
 1751 0328 FFF7FEFF 		bl	_ZN5daisy6Mpr121INS_18Mpr121I2CTransportEE13WriteRegisterEhh
 1752              	.LVL100:
 150:../../../libDaisy/src/dev/mpr121.h **** 
 1753              		.loc 7 150 22 view .LVU434
 1754 032c 2022     		movs	r2, #32
 1755 032e 5D21     		movs	r1, #93
 1756 0330 0348     		ldr	r0, .L49+8
 1757 0332 FFF7FEFF 		bl	_ZN5daisy6Mpr121INS_18Mpr121I2CTransportEE13WriteRegisterEhh
 1758              	.LVL101:
 1759 0336 0FE0     		b	.L50
 1760              	.L51:
 1761              		.align	2
 1762              	.L49:
 1763 0338 00000000 		.word	.LANCHOR1
 1764 033c 00000000 		.word	.LANCHOR0
 1765 0340 00000000 		.word	.LANCHOR2
 1766 0344 00000000 		.word	_ZL13AudioCallbackPKfPfj
 1767 0348 0000C842 		.word	1120403456
 1768 034c DB0F4940 		.word	1078530011
 1769 0350 01060107 		.word	117507585
 1770 0354 18000000 		.word	.LANCHOR2+24
 1771              	.L50:
 1772              	.LVL102:
 166:../../../libDaisy/src/dev/mpr121.h ****                       ECR_SETTING); // start with above ECR setting
 1773              		.loc 7 166 22 view .LVU435
 1774 0358 3448     		ldr	r0, .L52
 1775 035a 4146     		mov	r1, r8
 1776 035c 8C22     		movs	r2, #140
 1777 035e FFF7FEFF 		bl	_ZN5daisy6Mpr121INS_18Mpr121I2CTransportEE13WriteRegisterEhh
 1778              	.LVL103:
 1779              	.LBB619:
 1780              	.LBI619:
 344:../../../libDaisy/src/dev/mpr121.h **** 
 345:../../../libDaisy/src/dev/mpr121.h ****     /** Get the global transport_error_ bool (as a Result), then reset it */
 346:../../../libDaisy/src/dev/mpr121.h ****     Result GetTransportErr()
 1781              		.loc 7 346 12 is_stmt 1 view .LVU436
 1782              	.LBB620:
 347:../../../libDaisy/src/dev/mpr121.h ****     {
ARM GAS  /var/folders/yw/6_x9gyn52jjg4jtn_wsryx_80000gp/T//cc8YnlWV.s 			page 59


 348:../../../libDaisy/src/dev/mpr121.h ****         Result ret       = transport_error_ ? ERR : OK;
 1783              		.loc 7 348 45 is_stmt 0 view .LVU437
 1784 0362 96F83000 		ldrb	r0, [r6, #48]	@ zero_extendqisi2
 1785 0366 0028     		cmp	r0, #0
 1786 0368 44D1     		bne	.L27
 1787              	.LVL104:
 1788              		.loc 7 348 45 view .LVU438
 1789              	.LBE620:
 1790              	.LBE619:
 1791              	.LBE627:
 1792              	.LBE657:
  69:mpr121Test.cpp ****     {
  70:mpr121Test.cpp ****         // Handle initialization error
  71:mpr121Test.cpp ****         while(1)
  72:mpr121Test.cpp ****         {
  73:mpr121Test.cpp ****             // Error handling code (blinking LED, etc.)
  74:mpr121Test.cpp ****         }
  75:mpr121Test.cpp ****     }
  76:mpr121Test.cpp **** 	// Setup to print 
  77:mpr121Test.cpp **** 	hw.StartLog();
 1793              		.loc 8 77 2 is_stmt 1 view .LVU439
 1794              	.LBB658:
 1795              	.LBI658:
 126:../../../libDaisy/src/daisy_seed.h ****     {
 1796              		.loc 1 126 17 view .LVU440
 1797              	.LBB659:
 1798              		.loc 1 128 9 view .LVU441
 1799 036a DFF8D080 		ldr	r8, .L52+16
 1800              		.loc 1 128 22 is_stmt 0 view .LVU442
 1801 036e FFF7FEFF 		bl	_ZN5daisy6LoggerILNS_17LoggerDestinationE1EE8StartLogEb
 1802              	.LVL105:
 1803              	.L29:
 1804              		.loc 1 128 22 view .LVU443
 1805              	.LBE659:
 1806              	.LBE658:
  78:mpr121Test.cpp **** 
  79:mpr121Test.cpp **** 	while(1) 
 1807              		.loc 8 79 2 is_stmt 1 view .LVU444
 1808              	.LBB660:
  80:mpr121Test.cpp **** 	{
  81:mpr121Test.cpp **** 		// Read touch status
  82:mpr121Test.cpp ****         uint16_t touched = mpr121.Touched();
 1809              		.loc 8 82 9 view .LVU445
 1810              	.LBB661:
 1811              	.LBI661:
 221:../../../libDaisy/src/dev/mpr121.h ****     {
 1812              		.loc 7 221 14 view .LVU446
 1813              	.LBB662:
 1814              	.LBB663:
 1815              	.LBB664:
 1816              	.LBB665:
 1817              	.LBB666:
  66:../../../libDaisy/src/dev/mpr121.h ****     }
 1818              		.loc 7 66 40 is_stmt 0 view .LVU447
 1819 0372 4FF00A09 		mov	r9, #10
 1820 0376 0024     		movs	r4, #0
 1821 0378 0123     		movs	r3, #1
ARM GAS  /var/folders/yw/6_x9gyn52jjg4jtn_wsryx_80000gp/T//cc8YnlWV.s 			page 60


 1822 037a 02AA     		add	r2, sp, #8
 1823 037c 96F82C10 		ldrb	r1, [r6, #44]	@ zero_extendqisi2
 1824 0380 2B48     		ldr	r0, .L52+4
 1825 0382 CDF80090 		str	r9, [sp]
 1826 0386 8DF80840 		strb	r4, [sp, #8]
 1827              	.LVL106:
  66:../../../libDaisy/src/dev/mpr121.h ****     }
 1828              		.loc 7 66 40 view .LVU448
 1829              	.LBE666:
 1830              	.LBE665:
 1831              	.LBE664:
 1832              	.LBI663:
 244:../../../libDaisy/src/dev/mpr121.h ****     {
 1833              		.loc 7 244 14 is_stmt 1 view .LVU449
 1834              	.LBB687:
 1835              	.LBB668:
 1836              	.LBI665:
  63:../../../libDaisy/src/dev/mpr121.h ****     {
 1837              		.loc 7 63 10 view .LVU450
 1838              	.LBB667:
  65:../../../libDaisy/src/dev/mpr121.h ****                != i2c_.TransmitBlocking(config_.dev_addr, data, size, 10);
 1839              		.loc 7 65 9 view .LVU451
  66:../../../libDaisy/src/dev/mpr121.h ****     }
 1840              		.loc 7 66 40 is_stmt 0 view .LVU452
 1841 038a FFF7FEFF 		bl	_ZN5daisy9I2CHandle16TransmitBlockingEtPhtm
 1842              	.LVL107:
  66:../../../libDaisy/src/dev/mpr121.h ****     }
 1843              		.loc 7 66 40 view .LVU453
 1844              	.LBE667:
 1845              	.LBE668:
 1846              	.LBB669:
 1847              	.LBI669:
 343:../../../libDaisy/src/dev/mpr121.h **** 
 1848              		.loc 7 343 10 is_stmt 1 view .LVU454
 1849              	.LBB670:
 343:../../../libDaisy/src/dev/mpr121.h **** 
 1850              		.loc 7 343 55 is_stmt 0 view .LVU455
 1851 038e 96F83050 		ldrb	r5, [r6, #48]	@ zero_extendqisi2
 1852              	.LBE670:
 1853              	.LBE669:
 1854              	.LBB673:
 1855              	.LBB674:
  73:../../../libDaisy/src/dev/mpr121.h ****     }
 1856              		.loc 7 73 39 view .LVU456
 1857 0392 0223     		movs	r3, #2
 1858 0394 07AA     		add	r2, sp, #28
 1859 0396 96F82C10 		ldrb	r1, [r6, #44]	@ zero_extendqisi2
 1860              	.LBE674:
 1861              	.LBE673:
 1862              	.LBB677:
 1863              	.LBB671:
 343:../../../libDaisy/src/dev/mpr121.h **** 
 1864              		.loc 7 343 55 view .LVU457
 1865 039a A042     		cmp	r0, r4
 1866 039c 18BF     		it	ne
 1867 039e 45F00105 		orrne	r5, r5, #1
 1868              	.LBE671:
ARM GAS  /var/folders/yw/6_x9gyn52jjg4jtn_wsryx_80000gp/T//cc8YnlWV.s 			page 61


 1869              	.LBE677:
 1870              	.LBB678:
 1871              	.LBB675:
  73:../../../libDaisy/src/dev/mpr121.h ****     }
 1872              		.loc 7 73 39 view .LVU458
 1873 03a2 CDF80090 		str	r9, [sp]
 1874 03a6 2248     		ldr	r0, .L52+4
 1875              	.LVL108:
  73:../../../libDaisy/src/dev/mpr121.h ****     }
 1876              		.loc 7 73 39 view .LVU459
 1877              	.LBE675:
 1878              	.LBE678:
 1879              	.LBB679:
 1880              	.LBB672:
 343:../../../libDaisy/src/dev/mpr121.h **** 
 1881              		.loc 7 343 55 view .LVU460
 1882 03a8 86F83050 		strb	r5, [r6, #48]
 1883              	.LVL109:
 343:../../../libDaisy/src/dev/mpr121.h **** 
 1884              		.loc 7 343 55 view .LVU461
 1885              	.LBE672:
 1886              	.LBE679:
 1887              	.LBB680:
 1888              	.LBI673:
  70:../../../libDaisy/src/dev/mpr121.h ****     {
 1889              		.loc 7 70 10 is_stmt 1 view .LVU462
 1890              	.LBB676:
  72:../../../libDaisy/src/dev/mpr121.h ****                != i2c_.ReceiveBlocking(config_.dev_addr, data, size, 10);
 1891              		.loc 7 72 9 view .LVU463
  73:../../../libDaisy/src/dev/mpr121.h ****     }
 1892              		.loc 7 73 39 is_stmt 0 view .LVU464
 1893 03ac FFF7FEFF 		bl	_ZN5daisy9I2CHandle15ReceiveBlockingEtPhtm
 1894              	.LVL110:
  73:../../../libDaisy/src/dev/mpr121.h ****     }
 1895              		.loc 7 73 39 view .LVU465
 1896              	.LBE676:
 1897              	.LBE680:
 1898              	.LBB681:
 1899              	.LBI681:
 343:../../../libDaisy/src/dev/mpr121.h **** 
 1900              		.loc 7 343 10 is_stmt 1 view .LVU466
 1901              	.LBB682:
 343:../../../libDaisy/src/dev/mpr121.h **** 
 1902              		.loc 7 343 55 is_stmt 0 view .LVU467
 1903 03b0 96F83030 		ldrb	r3, [r6, #48]	@ zero_extendqisi2
 1904              	.LBE682:
 1905              	.LBE681:
 250:../../../libDaisy/src/dev/mpr121.h ****     }
 1906              		.loc 7 250 16 view .LVU468
 1907 03b4 BDF81C50 		ldrh	r5, [sp, #28]
 1908              	.LBB685:
 1909              	.LBB683:
 343:../../../libDaisy/src/dev/mpr121.h **** 
 1910              		.loc 7 343 55 view .LVU469
 1911 03b8 A042     		cmp	r0, r4
 1912 03ba 18BF     		it	ne
 1913 03bc 43F00103 		orrne	r3, r3, #1
ARM GAS  /var/folders/yw/6_x9gyn52jjg4jtn_wsryx_80000gp/T//cc8YnlWV.s 			page 62


 1914              	.LBE683:
 1915              	.LBE685:
 1916              	.LBE687:
 1917              	.LBE663:
 224:../../../libDaisy/src/dev/mpr121.h ****     }
 1918              		.loc 7 224 20 view .LVU470
 1919 03c0 C5F30B05 		ubfx	r5, r5, #0, #12
 1920              	.LBB689:
 1921              	.LBB688:
 1922              	.LBB686:
 1923              	.LBB684:
 343:../../../libDaisy/src/dev/mpr121.h **** 
 1924              		.loc 7 343 55 view .LVU471
 1925 03c4 86F83030 		strb	r3, [r6, #48]
 1926              	.LVL111:
 343:../../../libDaisy/src/dev/mpr121.h **** 
 1927              		.loc 7 343 55 view .LVU472
 1928              	.LBE684:
 1929              	.LBE686:
 1930              	.LBE688:
 1931              	.LBE689:
 1932              	.LBE662:
 1933              	.LBE661:
  83:mpr121Test.cpp **** 
  84:mpr121Test.cpp ****         // Process the touch status as needed
  85:mpr121Test.cpp ****         for(int i = 0; i < 12; i++)
 1934              		.loc 8 85 9 is_stmt 1 view .LVU473
 1935              	.LBB690:
 1936              		.loc 8 85 26 view .LVU474
 1937 03c8 02E0     		b	.L31
 1938              	.LVL112:
 1939              	.L30:
 1940              		.loc 8 85 9 discriminator 2 view .LVU475
 1941 03ca 0134     		adds	r4, r4, #1
 1942              	.LVL113:
 1943              		.loc 8 85 26 discriminator 2 view .LVU476
 1944 03cc 0C2C     		cmp	r4, #12
 1945 03ce 0AD0     		beq	.L48
 1946              	.LVL114:
 1947              	.L31:
  86:mpr121Test.cpp ****         {
  87:mpr121Test.cpp ****             if(touched & (1 << i))
 1948              		.loc 8 87 13 view .LVU477
 1949              		.loc 8 87 24 is_stmt 0 view .LVU478
 1950 03d0 45FA04F3 		asr	r3, r5, r4
 1951              		.loc 8 87 13 view .LVU479
 1952 03d4 DB07     		lsls	r3, r3, #31
 1953 03d6 F8D5     		bpl	.L30
  88:mpr121Test.cpp ****             {
  89:mpr121Test.cpp ****                 // Channel i is touched, print the channel number
  90:mpr121Test.cpp ****                 hw.PrintLine("Channel %d touched", i);
 1954              		.loc 8 90 17 is_stmt 1 view .LVU480
 1955              	.LVL115:
 1956              	.LBB691:
 1957              	.LBI691:
 119:../../../libDaisy/src/daisy_seed.h ****     {
 1958              		.loc 1 119 17 view .LVU481
ARM GAS  /var/folders/yw/6_x9gyn52jjg4jtn_wsryx_80000gp/T//cc8YnlWV.s 			page 63


 1959              	.LBB692:
 121:../../../libDaisy/src/daisy_seed.h ****     }
 1960              		.loc 1 121 23 is_stmt 0 view .LVU482
 1961 03d8 2146     		mov	r1, r4
 1962              	.LBE692:
 1963              	.LBE691:
  85:mpr121Test.cpp ****         {
 1964              		.loc 8 85 9 view .LVU483
 1965 03da 0134     		adds	r4, r4, #1
 1966              	.LVL116:
 1967              	.LBB694:
 1968              	.LBB693:
 121:../../../libDaisy/src/daisy_seed.h ****     }
 1969              		.loc 1 121 23 view .LVU484
 1970 03dc 1548     		ldr	r0, .L52+8
 1971 03de FFF7FEFF 		bl	_ZN5daisy6LoggerILNS_17LoggerDestinationE1EE9PrintLineEPKcz
 1972              	.LVL117:
 121:../../../libDaisy/src/daisy_seed.h ****     }
 1973              		.loc 1 121 23 view .LVU485
 1974              	.LBE693:
 1975              	.LBE694:
  85:mpr121Test.cpp ****         {
 1976              		.loc 8 85 9 is_stmt 1 view .LVU486
  85:mpr121Test.cpp ****         {
 1977              		.loc 8 85 26 view .LVU487
 1978 03e2 0C2C     		cmp	r4, #12
 1979 03e4 F4D1     		bne	.L31
 1980              	.L48:
  85:mpr121Test.cpp ****         {
 1981              		.loc 8 85 26 is_stmt 0 view .LVU488
 1982              	.LBE690:
  91:mpr121Test.cpp ****             }
  92:mpr121Test.cpp ****         }
  93:mpr121Test.cpp **** 
  94:mpr121Test.cpp ****         switch (touched)
 1983              		.loc 8 94 9 is_stmt 1 view .LVU489
 1984 03e6 052D     		cmp	r5, #5
 1985 03e8 C3D8     		bhi	.L29
 1986 03ea DFE805F0 		tbb	[pc, r5]
 1987              	.L33:
 1988 03ee 1C       		.byte	(.L38-.L33)/2
 1989 03ef 19       		.byte	(.L37-.L33)/2
 1990 03f0 16       		.byte	(.L36-.L33)/2
 1991 03f1 13       		.byte	(.L35-.L33)/2
 1992 03f2 10       		.byte	(.L34-.L33)/2
 1993 03f3 04       		.byte	(.L32-.L33)/2
 1994              	.LVL118:
 1995              		.p2align 1
 1996              	.L27:
 1997              		.loc 8 94 9 is_stmt 0 view .LVU490
 1998              	.LBE660:
  71:mpr121Test.cpp ****         {
 1999              		.loc 8 71 9 is_stmt 1 discriminator 1 view .LVU491
  71:mpr121Test.cpp ****         {
 2000              		.loc 8 71 9 discriminator 1 view .LVU492
  71:mpr121Test.cpp ****         {
 2001              		.loc 8 71 9 discriminator 1 view .LVU493
ARM GAS  /var/folders/yw/6_x9gyn52jjg4jtn_wsryx_80000gp/T//cc8YnlWV.s 			page 64


  71:mpr121Test.cpp ****         {
 2002              		.loc 8 71 9 discriminator 1 view .LVU494
 2003 03f4 FEE7     		b	.L27
 2004              	.LVL119:
 2005              	.L32:
 2006              	.LBB697:
  95:mpr121Test.cpp ****         {
  96:mpr121Test.cpp ****         case 0:
  97:mpr121Test.cpp ****             osc.SetFreq(scale[0][0]);
  98:mpr121Test.cpp ****             break;
  99:mpr121Test.cpp ****         
 100:mpr121Test.cpp ****         case 1:
 101:mpr121Test.cpp ****             osc.SetFreq(scale[0][1]);
 102:mpr121Test.cpp ****             break;
 103:mpr121Test.cpp ****         case 2:
 104:mpr121Test.cpp ****             osc.SetFreq(scale[0][2]);
 105:mpr121Test.cpp ****             break;
 106:mpr121Test.cpp ****         case 3:
 107:mpr121Test.cpp ****             osc.SetFreq(scale[0][3]);
 108:mpr121Test.cpp ****             break;
 109:mpr121Test.cpp ****         case 4:
 110:mpr121Test.cpp ****             osc.SetFreq(scale[0][5]);
 111:mpr121Test.cpp ****             break;
 112:mpr121Test.cpp ****         case 5:
 2007              		.loc 8 112 9 view .LVU495
 113:mpr121Test.cpp ****             osc.SetFreq(scale[0][7]);
 2008              		.loc 8 113 13 view .LVU496
 2009              		.loc 8 113 24 is_stmt 0 view .LVU497
 2010 03f6 98ED0E0B 		vldr.64	d0, [r8, #56]
 2011              	.L47:
 2012 03fa B7EEC00B 		vcvt.f32.f64	s0, d0
 2013              	.LVL120:
 2014              	.LBB695:
 2015              	.LBI695:
  60:../../../DaisySP/Source/Synthesis/oscillator.h ****     {
 2016              		.loc 6 60 17 is_stmt 1 view .LVU498
 2017              	.LBB696:
  62:../../../DaisySP/Source/Synthesis/oscillator.h ****         phase_inc_ = CalcPhaseInc(f);
 2018              		.loc 6 62 9 view .LVU499
  63:../../../DaisySP/Source/Synthesis/oscillator.h ****     }
 2019              		.loc 6 63 34 is_stmt 0 view .LVU500
 2020 03fe 0E48     		ldr	r0, .L52+12
  62:../../../DaisySP/Source/Synthesis/oscillator.h ****         phase_inc_ = CalcPhaseInc(f);
 2021              		.loc 6 62 20 view .LVU501
 2022 0400 87ED020A 		vstr.32	s0, [r7, #8]
  63:../../../DaisySP/Source/Synthesis/oscillator.h ****     }
 2023              		.loc 6 63 9 is_stmt 1 view .LVU502
  63:../../../DaisySP/Source/Synthesis/oscillator.h ****     }
 2024              		.loc 6 63 34 is_stmt 0 view .LVU503
 2025 0404 FFF7FEFF 		bl	_ZN7daisysp10Oscillator12CalcPhaseIncEf
 2026              	.LVL121:
  63:../../../DaisySP/Source/Synthesis/oscillator.h ****     }
 2027              		.loc 6 63 20 view .LVU504
 2028 0408 87ED080A 		vstr.32	s0, [r7, #32]
  64:../../../DaisySP/Source/Synthesis/oscillator.h **** 
 2029              		.loc 6 64 5 view .LVU505
 2030 040c B1E7     		b	.L29
ARM GAS  /var/folders/yw/6_x9gyn52jjg4jtn_wsryx_80000gp/T//cc8YnlWV.s 			page 65


 2031              	.LVL122:
 2032              	.L34:
  64:../../../DaisySP/Source/Synthesis/oscillator.h **** 
 2033              		.loc 6 64 5 view .LVU506
 2034              	.LBE696:
 2035              	.LBE695:
 109:mpr121Test.cpp ****             osc.SetFreq(scale[0][5]);
 2036              		.loc 8 109 9 is_stmt 1 view .LVU507
 110:mpr121Test.cpp ****             break;
 2037              		.loc 8 110 13 view .LVU508
 110:mpr121Test.cpp ****             break;
 2038              		.loc 8 110 24 is_stmt 0 view .LVU509
 2039 040e 98ED0A0B 		vldr.64	d0, [r8, #40]
 2040 0412 F2E7     		b	.L47
 2041              	.L35:
 106:mpr121Test.cpp ****             osc.SetFreq(scale[0][3]);
 2042              		.loc 8 106 9 is_stmt 1 view .LVU510
 107:mpr121Test.cpp ****             break;
 2043              		.loc 8 107 13 view .LVU511
 107:mpr121Test.cpp ****             break;
 2044              		.loc 8 107 24 is_stmt 0 view .LVU512
 2045 0414 98ED060B 		vldr.64	d0, [r8, #24]
 2046 0418 EFE7     		b	.L47
 2047              	.L36:
 103:mpr121Test.cpp ****             osc.SetFreq(scale[0][2]);
 2048              		.loc 8 103 9 is_stmt 1 view .LVU513
 104:mpr121Test.cpp ****             break;
 2049              		.loc 8 104 13 view .LVU514
 104:mpr121Test.cpp ****             break;
 2050              		.loc 8 104 24 is_stmt 0 view .LVU515
 2051 041a 98ED040B 		vldr.64	d0, [r8, #16]
 2052 041e ECE7     		b	.L47
 2053              	.L37:
 100:mpr121Test.cpp ****             osc.SetFreq(scale[0][1]);
 2054              		.loc 8 100 9 is_stmt 1 view .LVU516
 101:mpr121Test.cpp ****             break;
 2055              		.loc 8 101 13 view .LVU517
 101:mpr121Test.cpp ****             break;
 2056              		.loc 8 101 24 is_stmt 0 view .LVU518
 2057 0420 98ED020B 		vldr.64	d0, [r8, #8]
 2058 0424 E9E7     		b	.L47
 2059              	.L38:
  96:mpr121Test.cpp ****             osc.SetFreq(scale[0][0]);
 2060              		.loc 8 96 9 is_stmt 1 view .LVU519
  97:mpr121Test.cpp ****             break;
 2061              		.loc 8 97 13 view .LVU520
  97:mpr121Test.cpp ****             break;
 2062              		.loc 8 97 24 is_stmt 0 view .LVU521
 2063 0426 98ED000B 		vldr.64	d0, [r8]
 2064 042a E6E7     		b	.L47
 2065              	.L53:
 2066              		.align	2
 2067              	.L52:
 2068 042c 00000000 		.word	.LANCHOR2
 2069 0430 18000000 		.word	.LANCHOR2+24
 2070 0434 00000000 		.word	.LC0
 2071 0438 00000000 		.word	.LANCHOR0
ARM GAS  /var/folders/yw/6_x9gyn52jjg4jtn_wsryx_80000gp/T//cc8YnlWV.s 			page 66


 2072 043c 00000000 		.word	.LANCHOR3
 2073              	.LBE697:
 2074              		.cfi_endproc
 2075              	.LFE4790:
 2077              		.section	.text.startup._GLOBAL__sub_I_scale,"ax",%progbits
 2078              		.align	1
 2079              		.p2align 2,,3
 2080              		.syntax unified
 2081              		.thumb
 2082              		.thumb_func
 2084              	_GLOBAL__sub_I_scale:
 2085              	.LFB5367:
 114:mpr121Test.cpp ****             break;
 115:mpr121Test.cpp ****         default:
 116:mpr121Test.cpp ****             break;
 117:mpr121Test.cpp ****         }
 118:mpr121Test.cpp ****         // Add necessary delay or other code here...
 119:mpr121Test.cpp ****     }
 120:mpr121Test.cpp **** }
 2086              		.loc 8 120 1 is_stmt 1 view -0
 2087              		.cfi_startproc
 2088              		@ args = 0, pretend = 0, frame = 0
 2089              		@ frame_needed = 0, uses_anonymous_args = 0
 2090              	.LBB746:
 2091              	.LBI746:
 2092              		.loc 8 120 1 view .LVU523
 2093              	.LVL123:
 2094              	.LBB747:
 2095              	.LBB748:
 2096              	.LBI748:
  21:../../../libDaisy/src/daisy_seed.h ****     ~DaisySeed() {}
 2097              		.loc 1 21 5 view .LVU524
 2098              	.LBB749:
 2099              	.LBB750:
 2100              	.LBI750:
 2101              		.file 11 "../../../libDaisy/src/per/qspi.h"
   1:../../../libDaisy/src/per/qspi.h **** #ifndef DSY_QSPI
   2:../../../libDaisy/src/per/qspi.h **** #define DSY_QSPI /**< Macro */
   3:../../../libDaisy/src/per/qspi.h **** 
   4:../../../libDaisy/src/per/qspi.h **** #ifndef UNIT_TEST // for unit tests, a dummy implementation
   5:../../../libDaisy/src/per/qspi.h **** 
   6:../../../libDaisy/src/per/qspi.h **** #include <cstdint>
   7:../../../libDaisy/src/per/qspi.h **** #include "daisy_core.h" // Added for dsy_gpio_pin typedef
   8:../../../libDaisy/src/per/qspi.h **** 
   9:../../../libDaisy/src/per/qspi.h **** #define DSY_QSPI_TEXT       \
  10:../../../libDaisy/src/per/qspi.h ****     __attribute__((section( \
  11:../../../libDaisy/src/per/qspi.h ****         ".qspiflash_text"))) /**< used for reading memory in memory_mapped mode. */
  12:../../../libDaisy/src/per/qspi.h **** #define DSY_QSPI_DATA       \
  13:../../../libDaisy/src/per/qspi.h ****     __attribute__((section( \
  14:../../../libDaisy/src/per/qspi.h ****         ".qspiflash_data"))) /**< used for reading memory in memory_mapped mode. */
  15:../../../libDaisy/src/per/qspi.h **** #define DSY_QSPI_BSS        \
  16:../../../libDaisy/src/per/qspi.h ****     __attribute__((section( \
  17:../../../libDaisy/src/per/qspi.h ****         ".qspiflash_bss"))) /**< used for reading memory in memory_mapped mode. */
  18:../../../libDaisy/src/per/qspi.h **** 
  19:../../../libDaisy/src/per/qspi.h **** namespace daisy
  20:../../../libDaisy/src/per/qspi.h **** {
  21:../../../libDaisy/src/per/qspi.h **** /** @addtogroup serial
ARM GAS  /var/folders/yw/6_x9gyn52jjg4jtn_wsryx_80000gp/T//cc8YnlWV.s 			page 67


  22:../../../libDaisy/src/per/qspi.h **** @{
  23:../../../libDaisy/src/per/qspi.h **** */
  24:../../../libDaisy/src/per/qspi.h **** 
  25:../../../libDaisy/src/per/qspi.h **** /** 
  26:../../../libDaisy/src/per/qspi.h ****  Driver for QSPI peripheral to interface with external flash memory. \n 
  27:../../../libDaisy/src/per/qspi.h ****     Currently supported QSPI Devices: \n 
  28:../../../libDaisy/src/per/qspi.h ****     * IS25LP080D
  29:../../../libDaisy/src/per/qspi.h **** */
  30:../../../libDaisy/src/per/qspi.h **** class QSPIHandle
  31:../../../libDaisy/src/per/qspi.h **** {
  32:../../../libDaisy/src/per/qspi.h ****   public:
  33:../../../libDaisy/src/per/qspi.h ****     enum Result
  34:../../../libDaisy/src/per/qspi.h ****     {
  35:../../../libDaisy/src/per/qspi.h ****         OK = 0,
  36:../../../libDaisy/src/per/qspi.h ****         ERR
  37:../../../libDaisy/src/per/qspi.h ****     };
  38:../../../libDaisy/src/per/qspi.h **** 
  39:../../../libDaisy/src/per/qspi.h ****     /** Indicates the current status of the module. 
  40:../../../libDaisy/src/per/qspi.h ****          *  Warnings are indicated by a leading W.
  41:../../../libDaisy/src/per/qspi.h ****          *  Errors are indicated by a leading E and cause an immediate exit.
  42:../../../libDaisy/src/per/qspi.h ****          * 
  43:../../../libDaisy/src/per/qspi.h ****          *  \param GOOD - No errors have been reported.
  44:../../../libDaisy/src/per/qspi.h ****          *  \param E_HAL_ERROR - HAL code did not return HAL_OK.
  45:../../../libDaisy/src/per/qspi.h ****          *  \param E_SWITCHING_MODES - An error was encountered while switching QSPI peripheral mod
  46:../../../libDaisy/src/per/qspi.h ****          *  \param E_INVALID_MODE - QSPI should not be written to while the program is executing fr
  47:../../../libDaisy/src/per/qspi.h ****          */
  48:../../../libDaisy/src/per/qspi.h ****     enum Status
  49:../../../libDaisy/src/per/qspi.h ****     {
  50:../../../libDaisy/src/per/qspi.h ****         GOOD = 0,
  51:../../../libDaisy/src/per/qspi.h ****         E_HAL_ERROR,
  52:../../../libDaisy/src/per/qspi.h ****         E_SWITCHING_MODES,
  53:../../../libDaisy/src/per/qspi.h ****         E_INVALID_MODE,
  54:../../../libDaisy/src/per/qspi.h ****     };
  55:../../../libDaisy/src/per/qspi.h **** 
  56:../../../libDaisy/src/per/qspi.h ****     /** Configuration structure for interfacing with QSPI Driver */
  57:../../../libDaisy/src/per/qspi.h ****     struct Config
  58:../../../libDaisy/src/per/qspi.h ****     {
  59:../../../libDaisy/src/per/qspi.h ****         /** Flash Devices supported. (Both of these are more-or-less the same, just different sizes
  60:../../../libDaisy/src/per/qspi.h ****         enum Device
  61:../../../libDaisy/src/per/qspi.h ****         {
  62:../../../libDaisy/src/per/qspi.h ****             IS25LP080D,  /**< & */
  63:../../../libDaisy/src/per/qspi.h ****             IS25LP064A,  /**< & */
  64:../../../libDaisy/src/per/qspi.h ****             DEVICE_LAST, /**< & */
  65:../../../libDaisy/src/per/qspi.h ****         };
  66:../../../libDaisy/src/per/qspi.h **** 
  67:../../../libDaisy/src/per/qspi.h ****         /** 
  68:../../../libDaisy/src/per/qspi.h ****         Modes of operation.
  69:../../../libDaisy/src/per/qspi.h ****         Memory Mapped mode: QSPI configured so that the QSPI can be
  70:../../../libDaisy/src/per/qspi.h ****         read from starting address 0x90000000. Writing is not
  71:../../../libDaisy/src/per/qspi.h ****         possible in this mode. \n 
  72:../../../libDaisy/src/per/qspi.h ****         Indirect Polling mode: Device driver enabled. 
  73:../../../libDaisy/src/per/qspi.h ****         */
  74:../../../libDaisy/src/per/qspi.h ****         enum Mode
  75:../../../libDaisy/src/per/qspi.h ****         {
  76:../../../libDaisy/src/per/qspi.h ****             MEMORY_MAPPED,    /**< & */
  77:../../../libDaisy/src/per/qspi.h ****             INDIRECT_POLLING, /**< & */
  78:../../../libDaisy/src/per/qspi.h ****             MODE_LAST,
ARM GAS  /var/folders/yw/6_x9gyn52jjg4jtn_wsryx_80000gp/T//cc8YnlWV.s 			page 68


  79:../../../libDaisy/src/per/qspi.h ****         };
  80:../../../libDaisy/src/per/qspi.h **** 
  81:../../../libDaisy/src/per/qspi.h ****         //SCK,  CE# (active low)
  82:../../../libDaisy/src/per/qspi.h ****         struct
  83:../../../libDaisy/src/per/qspi.h ****         {
  84:../../../libDaisy/src/per/qspi.h ****             dsy_gpio_pin io0; /**< & */
  85:../../../libDaisy/src/per/qspi.h ****             dsy_gpio_pin io1; /**< & */
  86:../../../libDaisy/src/per/qspi.h ****             dsy_gpio_pin io2; /**< & */
  87:../../../libDaisy/src/per/qspi.h ****             dsy_gpio_pin io3; /**< & */
  88:../../../libDaisy/src/per/qspi.h ****             dsy_gpio_pin clk; /**< & */
  89:../../../libDaisy/src/per/qspi.h ****             dsy_gpio_pin ncs; /**< & */
  90:../../../libDaisy/src/per/qspi.h ****         } pin_config;
  91:../../../libDaisy/src/per/qspi.h **** 
  92:../../../libDaisy/src/per/qspi.h ****         Device device;
  93:../../../libDaisy/src/per/qspi.h ****         Mode   mode;
  94:../../../libDaisy/src/per/qspi.h ****     };
  95:../../../libDaisy/src/per/qspi.h **** 
  96:../../../libDaisy/src/per/qspi.h ****     /** 
  97:../../../libDaisy/src/per/qspi.h ****         Initializes QSPI peripheral, and Resets, and prepares memory for access.
  98:../../../libDaisy/src/per/qspi.h ****         \param config should be populated with the mode, device and pin_config before calling this 
  99:../../../libDaisy/src/per/qspi.h ****         \return Result::OK or Result::ERR
 100:../../../libDaisy/src/per/qspi.h ****         */
 101:../../../libDaisy/src/per/qspi.h ****     Result Init(const Config& config);
 102:../../../libDaisy/src/per/qspi.h **** 
 103:../../../libDaisy/src/per/qspi.h ****     /** Returns the current config. */
 104:../../../libDaisy/src/per/qspi.h ****     const Config& GetConfig() const;
 105:../../../libDaisy/src/per/qspi.h **** 
 106:../../../libDaisy/src/per/qspi.h ****     // Couldn't this just be called before anything else in init? That
 107:../../../libDaisy/src/per/qspi.h ****     // would make manually calling it unnecessary.
 108:../../../libDaisy/src/per/qspi.h ****     /** 
 109:../../../libDaisy/src/per/qspi.h ****         Deinitializes the peripheral
 110:../../../libDaisy/src/per/qspi.h ****         This should be called before reinitializing QSPI in a different mode.
 111:../../../libDaisy/src/per/qspi.h ****         \return Result::OK or Result::ERR
 112:../../../libDaisy/src/per/qspi.h ****         */
 113:../../../libDaisy/src/per/qspi.h ****     Result DeInit();
 114:../../../libDaisy/src/per/qspi.h **** 
 115:../../../libDaisy/src/per/qspi.h ****     /** 
 116:../../../libDaisy/src/per/qspi.h ****         Writes a single page to to the specified address on the QSPI chip.
 117:../../../libDaisy/src/per/qspi.h ****         For IS25LP*, page size is 256 bytes.
 118:../../../libDaisy/src/per/qspi.h ****         \param address Address to write to
 119:../../../libDaisy/src/per/qspi.h ****         \param size Buffer size
 120:../../../libDaisy/src/per/qspi.h ****         \param buffer Buffer to write
 121:../../../libDaisy/src/per/qspi.h ****         \return Result::OK or Result::ERR
 122:../../../libDaisy/src/per/qspi.h ****         */
 123:../../../libDaisy/src/per/qspi.h ****     Result WritePage(uint32_t address, uint32_t size, uint8_t* buffer);
 124:../../../libDaisy/src/per/qspi.h **** 
 125:../../../libDaisy/src/per/qspi.h ****     /** 
 126:../../../libDaisy/src/per/qspi.h ****         Writes data in buffer to to the QSPI. Starting at address to address+size 
 127:../../../libDaisy/src/per/qspi.h ****         \param address Address to write to
 128:../../../libDaisy/src/per/qspi.h ****         \param size Buffer size
 129:../../../libDaisy/src/per/qspi.h ****         \param buffer Buffer to write
 130:../../../libDaisy/src/per/qspi.h ****         \return Result::OK or Result::ERR
 131:../../../libDaisy/src/per/qspi.h ****         */
 132:../../../libDaisy/src/per/qspi.h ****     Result Write(uint32_t address, uint32_t size, uint8_t* buffer);
 133:../../../libDaisy/src/per/qspi.h **** 
 134:../../../libDaisy/src/per/qspi.h ****     /** 
 135:../../../libDaisy/src/per/qspi.h ****         Erases the area specified on the chip.
ARM GAS  /var/folders/yw/6_x9gyn52jjg4jtn_wsryx_80000gp/T//cc8YnlWV.s 			page 69


 136:../../../libDaisy/src/per/qspi.h ****         Erasures will happen by 4K, 32K or 64K increments.
 137:../../../libDaisy/src/per/qspi.h ****         Smallest erase possible is 4kB at a time. (on IS25LP*)
 138:../../../libDaisy/src/per/qspi.h ****         \param start_addr Address to begin erasing from
 139:../../../libDaisy/src/per/qspi.h ****         \param end_addr  Address to stop erasing at
 140:../../../libDaisy/src/per/qspi.h ****         \return Result::OK or Result::ERR
 141:../../../libDaisy/src/per/qspi.h ****         */
 142:../../../libDaisy/src/per/qspi.h ****     Result Erase(uint32_t start_addr, uint32_t end_addr);
 143:../../../libDaisy/src/per/qspi.h **** 
 144:../../../libDaisy/src/per/qspi.h ****     /**  
 145:../../../libDaisy/src/per/qspi.h ****          Erases a single sector of the chip.  
 146:../../../libDaisy/src/per/qspi.h ****         TODO: Document the size of this function. 
 147:../../../libDaisy/src/per/qspi.h ****         \param address Address of sector to erase
 148:../../../libDaisy/src/per/qspi.h ****         \return Result::OK or Result::ERR
 149:../../../libDaisy/src/per/qspi.h ****         */
 150:../../../libDaisy/src/per/qspi.h ****     Result EraseSector(uint32_t address);
 151:../../../libDaisy/src/per/qspi.h **** 
 152:../../../libDaisy/src/per/qspi.h ****     /** Returns the current class status. Useful for debugging.
 153:../../../libDaisy/src/per/qspi.h ****      *  \returns Status
 154:../../../libDaisy/src/per/qspi.h ****      */
 155:../../../libDaisy/src/per/qspi.h ****     Status GetStatus();
 156:../../../libDaisy/src/per/qspi.h **** 
 157:../../../libDaisy/src/per/qspi.h ****     /** Returns a pointer to the actual memory used 
 158:../../../libDaisy/src/per/qspi.h ****      *  The memory at this address is read-only
 159:../../../libDaisy/src/per/qspi.h ****      *  to write to it use the Write function.
 160:../../../libDaisy/src/per/qspi.h ****      * 
 161:../../../libDaisy/src/per/qspi.h ****      *  \param offset returns the pointer starting this 
 162:../../../libDaisy/src/per/qspi.h ****      *                many bytes into the memory
 163:../../../libDaisy/src/per/qspi.h ****     */
 164:../../../libDaisy/src/per/qspi.h ****     void* GetData(uint32_t offset = 0);
 165:../../../libDaisy/src/per/qspi.h **** 
 166:../../../libDaisy/src/per/qspi.h ****     QSPIHandle() : pimpl_(nullptr) {}
 2102              		.loc 11 166 5 view .LVU525
 2103              	.LBE750:
 2104              	.LBE749:
 2105              	.LBE748:
 2106              	.LBE747:
 2107              	.LBE746:
 2108              		.loc 8 120 1 is_stmt 0 view .LVU526
 2109 0000 10B5     		push	{r4, lr}
 2110              		.cfi_def_cfa_offset 8
 2111              		.cfi_offset 4, -8
 2112              		.cfi_offset 14, -4
 2113              	.LBB813:
 2114              	.LBB811:
 2115              	.LBB768:
 2116              	.LBB766:
 2117              	.LBB755:
 2118              	.LBB751:
 2119              	.LBB752:
 2120              		.loc 11 166 34 view .LVU527
 2121 0002 1248     		ldr	r0, .L56
 2122 0004 0024     		movs	r4, #0
 2123              	.LBE752:
 2124              	.LBE751:
 2125              	.LBE755:
 2126              	.LBE766:
 2127              	.LBE768:
ARM GAS  /var/folders/yw/6_x9gyn52jjg4jtn_wsryx_80000gp/T//cc8YnlWV.s 			page 70


  17:mpr121Test.cpp **** Mpr121I2C mpr121;
 2128              		.loc 8 17 11 view .LVU528
 2129 0006 124A     		ldr	r2, .L56+4
 2130 0008 1249     		ldr	r1, .L56+8
 2131              	.LBB769:
 2132              	.LBB767:
 2133              	.LBB756:
 2134              	.LBB754:
 2135              	.LBB753:
 2136              		.loc 11 166 34 view .LVU529
 2137 000a 0460     		str	r4, [r0]
 2138              	.LVL124:
 2139              		.loc 11 166 34 view .LVU530
 2140              	.LBE753:
 2141              	.LBE754:
 2142              	.LBE756:
 2143              	.LBB757:
 2144              	.LBI757:
  95:../../../libDaisy/src/hid/audio.h ****     ~AudioHandle() {}
 2145              		.loc 5 95 5 is_stmt 1 view .LVU531
 2146              	.LBB758:
 2147              	.LBB759:
  95:../../../libDaisy/src/hid/audio.h ****     ~AudioHandle() {}
 2148              		.loc 5 95 35 is_stmt 0 view .LVU532
 2149 000c 4461     		str	r4, [r0, #20]
 2150              	.LVL125:
  95:../../../libDaisy/src/hid/audio.h ****     ~AudioHandle() {}
 2151              		.loc 5 95 35 view .LVU533
 2152              	.LBE759:
 2153              	.LBE758:
 2154              	.LBE757:
 2155              	.LBB760:
 2156              	.LBI760:
  92:../../../libDaisy/src/per/adc.h ****     ~AdcHandle() {}
 2157              		.loc 4 92 5 is_stmt 1 view .LVU534
  92:../../../libDaisy/src/per/adc.h ****     ~AdcHandle() {}
 2158              		.loc 4 92 5 is_stmt 0 view .LVU535
 2159              	.LBE760:
 2160              	.LBB761:
 2161              	.LBI761:
 2162              		.file 12 "../../../libDaisy/src/per/dac.h"
   1:../../../libDaisy/src/per/dac.h **** #pragma once
   2:../../../libDaisy/src/per/dac.h **** #ifndef DSY_DAC_H
   3:../../../libDaisy/src/per/dac.h **** #define DSY_DAC_H
   4:../../../libDaisy/src/per/dac.h **** 
   5:../../../libDaisy/src/per/dac.h **** #include "daisy_core.h"
   6:../../../libDaisy/src/per/dac.h **** 
   7:../../../libDaisy/src/per/dac.h **** namespace daisy
   8:../../../libDaisy/src/per/dac.h **** {
   9:../../../libDaisy/src/per/dac.h **** /** @brief DAC handle for Built-in DAC Peripheral 
  10:../../../libDaisy/src/per/dac.h ****  *  @ingroup per_analog
  11:../../../libDaisy/src/per/dac.h ****  ** 
  12:../../../libDaisy/src/per/dac.h ****  ** For now only Normal Mode is supported,
  13:../../../libDaisy/src/per/dac.h ****  ** Sample and hold mode provides reduced power consumption, but requires a bit more setup.
  14:../../../libDaisy/src/per/dac.h ****  **
  15:../../../libDaisy/src/per/dac.h ****  ** For now connecting the DAC through other internal peripherals is also not supported.
  16:../../../libDaisy/src/per/dac.h ****  **
ARM GAS  /var/folders/yw/6_x9gyn52jjg4jtn_wsryx_80000gp/T//cc8YnlWV.s 			page 71


  17:../../../libDaisy/src/per/dac.h ****  ** Since the DAC channels have dedicated pins we don't need to pass in a pin config like with
  18:../../../libDaisy/src/per/dac.h ****  ** other modules. However, it is still important to not try to use the DAC pins for anything else.
  19:../../../libDaisy/src/per/dac.h ****  ** DAC Channel 1 is on PA4, and DAC Channel 2 is on PA5
  20:../../../libDaisy/src/per/dac.h ****  ***/
  21:../../../libDaisy/src/per/dac.h **** class DacHandle
  22:../../../libDaisy/src/per/dac.h **** {
  23:../../../libDaisy/src/per/dac.h ****   public:
  24:../../../libDaisy/src/per/dac.h ****     /** Return Values for the DacHandle class */
  25:../../../libDaisy/src/per/dac.h ****     enum class Result
  26:../../../libDaisy/src/per/dac.h ****     {
  27:../../../libDaisy/src/per/dac.h ****         OK,
  28:../../../libDaisy/src/per/dac.h ****         ERR,
  29:../../../libDaisy/src/per/dac.h ****     };
  30:../../../libDaisy/src/per/dac.h **** 
  31:../../../libDaisy/src/per/dac.h ****     /** Selects which channel(s) will be configured for use. */
  32:../../../libDaisy/src/per/dac.h ****     enum class Channel
  33:../../../libDaisy/src/per/dac.h ****     {
  34:../../../libDaisy/src/per/dac.h ****         ONE,
  35:../../../libDaisy/src/per/dac.h ****         TWO,
  36:../../../libDaisy/src/per/dac.h ****         BOTH,
  37:../../../libDaisy/src/per/dac.h ****     };
  38:../../../libDaisy/src/per/dac.h **** 
  39:../../../libDaisy/src/per/dac.h ****     /** Sets the Mode for the DAC channels.
  40:../../../libDaisy/src/per/dac.h ****      **
  41:../../../libDaisy/src/per/dac.h ****      ** Polling mode uses the blocking mode to transmit a single value at a time.
  42:../../../libDaisy/src/per/dac.h ****      **
  43:../../../libDaisy/src/per/dac.h ****      ** DMA mode uses a buffer, and periodically transmits it triggering a 
  44:../../../libDaisy/src/per/dac.h ****      ** callback to fill the buffer when it is ready for more samples.
  45:../../../libDaisy/src/per/dac.h ****      ***/
  46:../../../libDaisy/src/per/dac.h ****     enum class Mode
  47:../../../libDaisy/src/per/dac.h ****     {
  48:../../../libDaisy/src/per/dac.h ****         POLLING,
  49:../../../libDaisy/src/per/dac.h ****         DMA,
  50:../../../libDaisy/src/per/dac.h ****     };
  51:../../../libDaisy/src/per/dac.h **** 
  52:../../../libDaisy/src/per/dac.h ****     /** Sets the number of bits per sample transmitted out of the DAC.
  53:../../../libDaisy/src/per/dac.h ****      ** The output range will be: 0V - VDDA
  54:../../../libDaisy/src/per/dac.h ****      ** The resolution will be roughly: bitdepth / (VDDA - 0V) 
  55:../../../libDaisy/src/per/dac.h ****      ***/
  56:../../../libDaisy/src/per/dac.h ****     enum class BitDepth
  57:../../../libDaisy/src/per/dac.h ****     {
  58:../../../libDaisy/src/per/dac.h ****         BITS_8,
  59:../../../libDaisy/src/per/dac.h ****         BITS_12
  60:../../../libDaisy/src/per/dac.h ****     };
  61:../../../libDaisy/src/per/dac.h **** 
  62:../../../libDaisy/src/per/dac.h ****     /** Sets whether the DAC output is buffered for higher drive ability. */
  63:../../../libDaisy/src/per/dac.h ****     enum class BufferState
  64:../../../libDaisy/src/per/dac.h ****     {
  65:../../../libDaisy/src/per/dac.h ****         ENABLED,
  66:../../../libDaisy/src/per/dac.h ****         DISABLED,
  67:../../../libDaisy/src/per/dac.h ****     };
  68:../../../libDaisy/src/per/dac.h **** 
  69:../../../libDaisy/src/per/dac.h ****     /** Configuration structure for initializing the DAC structure. */
  70:../../../libDaisy/src/per/dac.h ****     struct Config
  71:../../../libDaisy/src/per/dac.h ****     {
  72:../../../libDaisy/src/per/dac.h ****         /** Target Samplerate in Hz used to configure the internal 
  73:../../../libDaisy/src/per/dac.h ****          ** timebase for DMA mode. Does nothing in POLLING mode.
ARM GAS  /var/folders/yw/6_x9gyn52jjg4jtn_wsryx_80000gp/T//cc8YnlWV.s 			page 72


  74:../../../libDaisy/src/per/dac.h ****          ** If the value is 0 at Init time this will default to 48000Hz 
  75:../../../libDaisy/src/per/dac.h ****          ** otherwise the driver will attempt meet the target.*/
  76:../../../libDaisy/src/per/dac.h ****         uint32_t target_samplerate;
  77:../../../libDaisy/src/per/dac.h **** 
  78:../../../libDaisy/src/per/dac.h ****         Channel     chn;
  79:../../../libDaisy/src/per/dac.h ****         Mode        mode;
  80:../../../libDaisy/src/per/dac.h ****         BitDepth    bitdepth;
  81:../../../libDaisy/src/per/dac.h ****         BufferState buff_state;
  82:../../../libDaisy/src/per/dac.h ****     };
  83:../../../libDaisy/src/per/dac.h **** 
  84:../../../libDaisy/src/per/dac.h ****     DacHandle() : pimpl_(nullptr) {}
 2163              		.loc 12 84 5 is_stmt 1 view .LVU536
 2164              	.LBB762:
 2165              	.LBB763:
 2166              		.loc 12 84 33 is_stmt 0 view .LVU537
 2167 000e 0462     		str	r4, [r0, #32]
 2168              	.LVL126:
 2169              		.loc 12 84 33 view .LVU538
 2170              	.LBE763:
 2171              	.LBE762:
 2172              	.LBE761:
 2173              	.LBB764:
 2174              	.LBI764:
  40:../../../libDaisy/src/hid/usb.h **** 
 2175              		.loc 3 40 5 is_stmt 1 view .LVU539
  40:../../../libDaisy/src/hid/usb.h **** 
 2176              		.loc 3 40 5 is_stmt 0 view .LVU540
 2177              	.LBE764:
 2178              	.LBB765:
 2179              	.LBI765:
  77:../../../libDaisy/src/sys/system.h ****     ~System() {}
 2180              		.loc 2 77 5 is_stmt 1 view .LVU541
  77:../../../libDaisy/src/sys/system.h ****     ~System() {}
 2181              		.loc 2 77 5 is_stmt 0 view .LVU542
 2182              	.LBE765:
 2183              	.LBE767:
 2184              	.LBE769:
  17:mpr121Test.cpp **** Mpr121I2C mpr121;
 2185              		.loc 8 17 11 view .LVU543
 2186 0010 FFF7FEFF 		bl	__aeabi_atexit
 2187              	.LVL127:
 2188              	.LBB770:
 2189              	.LBI770:
  90:../../../libDaisy/src/dev/mpr121.h ****     ~Mpr121() {}
 2190              		.loc 7 90 5 is_stmt 1 view .LVU544
 2191              	.LBB771:
 2192              	.LBB772:
 2193              	.LBI772:
  99:../../../libDaisy/src/dev/mpr121.h ****         {
 2194              		.loc 7 99 9 view .LVU545
 2195              	.LBB773:
 2196              	.LBB774:
 2197              	.LBI774:
  34:../../../libDaisy/src/dev/mpr121.h ****         {
 2198              		.loc 7 34 9 view .LVU546
 2199              	.LBB775:
 2200              	.LBB776:
ARM GAS  /var/folders/yw/6_x9gyn52jjg4jtn_wsryx_80000gp/T//cc8YnlWV.s 			page 73


 2201              	.LBB777:
 2202              	.LBI777:
 272:../../../libDaisy/src/daisy_core.h **** 
 2203              		.loc 10 272 15 view .LVU547
 272:../../../libDaisy/src/daisy_core.h **** 
 2204              		.loc 10 272 15 is_stmt 0 view .LVU548
 2205              	.LBE777:
 2206              	.LBB778:
 2207              	.LBI778:
 272:../../../libDaisy/src/daisy_core.h **** 
 2208              		.loc 10 272 15 is_stmt 1 view .LVU549
 272:../../../libDaisy/src/daisy_core.h **** 
 2209              		.loc 10 272 15 is_stmt 0 view .LVU550
 2210              	.LBE778:
  36:../../../libDaisy/src/dev/mpr121.h ****             speed  = I2CHandle::Config::Speed::I2C_400KHZ;
 2211              		.loc 7 36 13 is_stmt 1 view .LVU551
  37:../../../libDaisy/src/dev/mpr121.h **** 
 2212              		.loc 7 37 13 view .LVU552
  39:../../../libDaisy/src/dev/mpr121.h ****             sda = Pin(PORTB, 9);
 2213              		.loc 7 39 13 view .LVU553
 2214              	.LBB779:
 2215              	.LBI779:
 269:../../../libDaisy/src/daisy_core.h **** 
 2216              		.loc 10 269 15 view .LVU554
 269:../../../libDaisy/src/daisy_core.h **** 
 2217              		.loc 10 269 15 is_stmt 0 view .LVU555
 2218              	.LBE779:
  40:../../../libDaisy/src/dev/mpr121.h **** 
 2219              		.loc 7 40 13 is_stmt 1 view .LVU556
 2220              	.LBB780:
 2221              	.LBI780:
 269:../../../libDaisy/src/daisy_core.h **** 
 2222              		.loc 10 269 15 view .LVU557
 269:../../../libDaisy/src/daisy_core.h **** 
 2223              		.loc 10 269 15 is_stmt 0 view .LVU558
 2224              	.LBE780:
  42:../../../libDaisy/src/dev/mpr121.h ****         }
 2225              		.loc 7 42 13 is_stmt 1 view .LVU559
  42:../../../libDaisy/src/dev/mpr121.h ****         }
 2226              		.loc 7 42 13 is_stmt 0 view .LVU560
 2227              	.LBE776:
 2228              	.LBE775:
 2229              	.LBE774:
 2230              	.LBE773:
 2231              	.LBE772:
 2232              	.LBB789:
 2233              	.LBI789:
  20:../../../libDaisy/src/dev/mpr121.h ****     ~Mpr121I2CTransport() {}
 2234              		.loc 7 20 5 is_stmt 1 view .LVU561
 2235              	.LBB790:
 2236              	.LBB791:
 2237              	.LBI791:
  29:../../../libDaisy/src/per/i2c.h ****     {
  30:../../../libDaisy/src/per/i2c.h ****         /** Specifies whether the interface will operate in master or slave mode. */
  31:../../../libDaisy/src/per/i2c.h ****         enum class Mode
  32:../../../libDaisy/src/per/i2c.h ****         {
  33:../../../libDaisy/src/per/i2c.h ****             I2C_MASTER,
ARM GAS  /var/folders/yw/6_x9gyn52jjg4jtn_wsryx_80000gp/T//cc8YnlWV.s 			page 74


  34:../../../libDaisy/src/per/i2c.h ****             I2C_SLAVE,
  35:../../../libDaisy/src/per/i2c.h ****         };
  36:../../../libDaisy/src/per/i2c.h **** 
  37:../../../libDaisy/src/per/i2c.h ****         /** Specifices the internal peripheral to use (these are mapped to different pins on the ha
  38:../../../libDaisy/src/per/i2c.h ****         enum class Peripheral
  39:../../../libDaisy/src/per/i2c.h ****         {
  40:../../../libDaisy/src/per/i2c.h ****             I2C_1 = 0, /**< & */
  41:../../../libDaisy/src/per/i2c.h ****             I2C_2,     /**< & */
  42:../../../libDaisy/src/per/i2c.h ****             I2C_3,     /**< & */
  43:../../../libDaisy/src/per/i2c.h ****             I2C_4,     /**< & */
  44:../../../libDaisy/src/per/i2c.h ****         };
  45:../../../libDaisy/src/per/i2c.h **** 
  46:../../../libDaisy/src/per/i2c.h ****         /** Rate at which the clock/data will be sent/received. The device being used will have max
  47:../../../libDaisy/src/per/i2c.h ****          *  1MHZ Mode is currently 886kHz
  48:../../../libDaisy/src/per/i2c.h ****          */
  49:../../../libDaisy/src/per/i2c.h ****         enum class Speed
  50:../../../libDaisy/src/per/i2c.h ****         {
  51:../../../libDaisy/src/per/i2c.h ****             I2C_100KHZ, /**< & */
  52:../../../libDaisy/src/per/i2c.h ****             I2C_400KHZ, /**< & */
  53:../../../libDaisy/src/per/i2c.h ****             I2C_1MHZ,   /**< & */
  54:../../../libDaisy/src/per/i2c.h ****         };
  55:../../../libDaisy/src/per/i2c.h **** 
  56:../../../libDaisy/src/per/i2c.h ****         Peripheral periph; /**< & */
  57:../../../libDaisy/src/per/i2c.h ****         struct
  58:../../../libDaisy/src/per/i2c.h ****         {
  59:../../../libDaisy/src/per/i2c.h ****             dsy_gpio_pin scl; /**< & */
  60:../../../libDaisy/src/per/i2c.h ****             dsy_gpio_pin sda; /**< & */
  61:../../../libDaisy/src/per/i2c.h ****         } pin_config;         /**< & */
  62:../../../libDaisy/src/per/i2c.h **** 
  63:../../../libDaisy/src/per/i2c.h ****         Speed speed; /**< & */
  64:../../../libDaisy/src/per/i2c.h ****         Mode  mode;  /**< & */
  65:../../../libDaisy/src/per/i2c.h ****         // 0x10 is chosen as a default to avoid conflicts with reserved addresses
  66:../../../libDaisy/src/per/i2c.h ****         uint8_t address = 0x10; /**< & */
  67:../../../libDaisy/src/per/i2c.h ****     };
  68:../../../libDaisy/src/per/i2c.h **** 
  69:../../../libDaisy/src/per/i2c.h ****     /** Return values for I2C functions. */
  70:../../../libDaisy/src/per/i2c.h ****     enum class Result
  71:../../../libDaisy/src/per/i2c.h ****     {
  72:../../../libDaisy/src/per/i2c.h ****         OK, /**< & */
  73:../../../libDaisy/src/per/i2c.h ****         ERR /**< & */
  74:../../../libDaisy/src/per/i2c.h ****     };
  75:../../../libDaisy/src/per/i2c.h **** 
  76:../../../libDaisy/src/per/i2c.h ****     enum class Direction
  77:../../../libDaisy/src/per/i2c.h ****     {
  78:../../../libDaisy/src/per/i2c.h ****         TRANSMIT, /**< & */
  79:../../../libDaisy/src/per/i2c.h ****         RECEIVE,  /**< & */
  80:../../../libDaisy/src/per/i2c.h ****     };
  81:../../../libDaisy/src/per/i2c.h **** 
  82:../../../libDaisy/src/per/i2c.h ****     I2CHandle() : pimpl_(nullptr) {}
 2238              		.loc 9 82 5 view .LVU562
 2239              		.loc 9 82 5 is_stmt 0 view .LVU563
 2240              	.LBE791:
 2241              	.LBB792:
 2242              	.LBI792:
  34:../../../libDaisy/src/dev/mpr121.h ****         {
 2243              		.loc 7 34 9 is_stmt 1 view .LVU564
 2244              	.LBB793:
ARM GAS  /var/folders/yw/6_x9gyn52jjg4jtn_wsryx_80000gp/T//cc8YnlWV.s 			page 75


 2245              	.LBB794:
 2246              	.LBB795:
 2247              	.LBI795:
 272:../../../libDaisy/src/daisy_core.h **** 
 2248              		.loc 10 272 15 view .LVU565
 272:../../../libDaisy/src/daisy_core.h **** 
 2249              		.loc 10 272 15 is_stmt 0 view .LVU566
 2250              	.LBE795:
 2251              	.LBB796:
 2252              	.LBI796:
 272:../../../libDaisy/src/daisy_core.h **** 
 2253              		.loc 10 272 15 is_stmt 1 view .LVU567
 272:../../../libDaisy/src/daisy_core.h **** 
 2254              		.loc 10 272 15 is_stmt 0 view .LVU568
 2255              	.LBE796:
  36:../../../libDaisy/src/dev/mpr121.h ****             speed  = I2CHandle::Config::Speed::I2C_400KHZ;
 2256              		.loc 7 36 13 is_stmt 1 view .LVU569
  37:../../../libDaisy/src/dev/mpr121.h **** 
 2257              		.loc 7 37 13 view .LVU570
  39:../../../libDaisy/src/dev/mpr121.h ****             sda = Pin(PORTB, 9);
 2258              		.loc 7 39 13 view .LVU571
 2259              	.LBB797:
 2260              	.LBI797:
 269:../../../libDaisy/src/daisy_core.h **** 
 2261              		.loc 10 269 15 view .LVU572
 269:../../../libDaisy/src/daisy_core.h **** 
 2262              		.loc 10 269 15 is_stmt 0 view .LVU573
 2263              	.LBE797:
  40:../../../libDaisy/src/dev/mpr121.h **** 
 2264              		.loc 7 40 13 is_stmt 1 view .LVU574
 2265              	.LBB798:
 2266              	.LBI798:
 269:../../../libDaisy/src/daisy_core.h **** 
 2267              		.loc 10 269 15 view .LVU575
 269:../../../libDaisy/src/daisy_core.h **** 
 2268              		.loc 10 269 15 is_stmt 0 view .LVU576
 2269              	.LBE798:
  42:../../../libDaisy/src/dev/mpr121.h ****         }
 2270              		.loc 7 42 13 is_stmt 1 view .LVU577
 2271              	.LBE794:
 2272              	.LBE793:
 2273              	.LBE792:
 2274              	.LBE790:
 2275              	.LBE789:
 2276              	.LBB803:
 2277              	.LBB787:
 2278              	.LBB785:
 2279              	.LBB783:
 2280              	.LBB781:
  36:../../../libDaisy/src/dev/mpr121.h ****             speed  = I2CHandle::Config::Speed::I2C_400KHZ;
 2281              		.loc 7 36 20 is_stmt 0 view .LVU578
 2282 0014 1048     		ldr	r0, .L56+12
  37:../../../libDaisy/src/dev/mpr121.h **** 
 2283              		.loc 7 37 20 view .LVU579
 2284 0016 0121     		movs	r1, #1
 2285              	.LBE781:
 2286              	.LBE783:
ARM GAS  /var/folders/yw/6_x9gyn52jjg4jtn_wsryx_80000gp/T//cc8YnlWV.s 			page 76


 2287              	.LBE785:
 2288              	.LBE787:
 2289              	.LBE803:
  90:../../../libDaisy/src/dev/mpr121.h ****     ~Mpr121() {}
 2290              		.loc 7 90 5 view .LVU580
 2291 0018 104B     		ldr	r3, .L56+16
 2292              	.LBE771:
 2293              	.LBE770:
  18:mpr121Test.cpp **** Oscillator osc;
 2294              		.loc 8 18 11 view .LVU581
 2295 001a 0D4A     		ldr	r2, .L56+4
 2296              	.LBB808:
 2297              	.LBB806:
 2298              	.LBB804:
 2299              	.LBB788:
 2300              	.LBB786:
 2301              	.LBB784:
 2302              	.LBB782:
  36:../../../libDaisy/src/dev/mpr121.h ****             speed  = I2CHandle::Config::Speed::I2C_400KHZ;
 2303              		.loc 7 36 20 view .LVU582
 2304 001c 0460     		str	r4, [r0]
 2305              	.LBE782:
 2306              	.LBE784:
 2307              	.LBE786:
 2308              	.LBE788:
 2309              	.LBE804:
  90:../../../libDaisy/src/dev/mpr121.h ****     ~Mpr121() {}
 2310              		.loc 7 90 5 view .LVU583
 2311 001e C0E90113 		strd	r1, r3, [r0, #4]
 2312 0022 C0E90813 		strd	r1, r3, [r0, #32]
 2313 0026 5A23     		movs	r3, #90
 2314              	.LBE806:
 2315              	.LBE808:
  18:mpr121Test.cpp **** Oscillator osc;
 2316              		.loc 8 18 11 view .LVU584
 2317 0028 0D49     		ldr	r1, .L56+20
 2318              	.LBB809:
 2319              	.LBB807:
  90:../../../libDaisy/src/dev/mpr121.h ****     ~Mpr121() {}
 2320              		.loc 7 90 5 view .LVU585
 2321 002a 0361     		str	r3, [r0, #16]
 2322 002c C362     		str	r3, [r0, #44]
 2323              	.LVL128:
  90:../../../libDaisy/src/dev/mpr121.h ****     ~Mpr121() {}
 2324              		.loc 7 90 5 view .LVU586
 2325 002e 40F20C63 		movw	r3, #1548
 2326              	.LBB805:
 2327              	.LBB802:
 2328              	.LBB801:
 2329              	.LBB800:
 2330              	.LBB799:
  36:../../../libDaisy/src/dev/mpr121.h ****             speed  = I2CHandle::Config::Speed::I2C_400KHZ;
 2331              		.loc 7 36 20 view .LVU587
 2332 0032 C0E90644 		strd	r4, r4, [r0, #24]
 2333              	.LBE799:
 2334              	.LBE800:
 2335              	.LBE801:
ARM GAS  /var/folders/yw/6_x9gyn52jjg4jtn_wsryx_80000gp/T//cc8YnlWV.s 			page 77


 2336              	.LBE802:
 2337              	.LBE805:
  90:../../../libDaisy/src/dev/mpr121.h ****     ~Mpr121() {}
 2338              		.loc 7 90 5 view .LVU588
 2339 0036 4361     		str	r3, [r0, #20]
 2340              	.LBE807:
 2341              	.LBE809:
  18:mpr121Test.cpp **** Oscillator osc;
 2342              		.loc 8 18 11 view .LVU589
 2343 0038 FFF7FEFF 		bl	__aeabi_atexit
 2344              	.LVL129:
 2345              	.LBB810:
 2346              	.LBI810:
  15:../../../DaisySP/Source/Synthesis/oscillator.h ****     ~Oscillator() {}
 2347              		.loc 6 15 5 is_stmt 1 view .LVU590
  15:../../../DaisySP/Source/Synthesis/oscillator.h ****     ~Oscillator() {}
 2348              		.loc 6 15 5 is_stmt 0 view .LVU591
 2349              	.LBE810:
  19:mpr121Test.cpp **** 
 2350              		.loc 8 19 12 view .LVU592
 2351 003c 044A     		ldr	r2, .L56+4
 2352 003e 0949     		ldr	r1, .L56+24
 2353 0040 0948     		ldr	r0, .L56+28
 2354              	.LBE811:
 2355              	.LBE813:
 2356              		.loc 8 120 1 view .LVU593
 2357 0042 BDE81040 		pop	{r4, lr}
 2358              		.cfi_restore 14
 2359              		.cfi_restore 4
 2360              		.cfi_def_cfa_offset 0
 2361              	.LBB814:
 2362              	.LBB812:
  19:mpr121Test.cpp **** 
 2363              		.loc 8 19 12 view .LVU594
 2364 0046 FFF7FEBF 		b	__aeabi_atexit
 2365              	.LVL130:
 2366              	.L57:
 2367 004a 00BF     		.align	2
 2368              	.L56:
 2369 004c 00000000 		.word	.LANCHOR1
 2370 0050 00000000 		.word	__dso_handle
 2371 0054 00000000 		.word	_ZN5daisy9DaisySeedD1Ev
 2372 0058 00000000 		.word	.LANCHOR2
 2373 005c 01080109 		.word	151062529
 2374 0060 00000000 		.word	_ZN5daisy6Mpr121INS_18Mpr121I2CTransportEED1Ev
 2375 0064 00000000 		.word	_ZN7daisysp10OscillatorD1Ev
 2376 0068 00000000 		.word	.LANCHOR0
 2377              	.LBE812:
 2378              	.LBE814:
 2379              		.cfi_endproc
 2380              	.LFE5367:
 2382              		.section	.init_array,"aw",%init_array
 2383              		.align	2
 2384 0000 00000000 		.word	_GLOBAL__sub_I_scale(target1)
 2385              		.global	osc
 2386              		.global	mpr121
 2387              		.global	hw
ARM GAS  /var/folders/yw/6_x9gyn52jjg4jtn_wsryx_80000gp/T//cc8YnlWV.s 			page 78


 2388              		.global	scale
 2389              		.section	.bss.hw,"aw",%nobits
 2390              		.align	2
 2391              		.set	.LANCHOR1,. + 0
 2394              	hw:
 2395 0000 00000000 		.space	60
 2395      00000000 
 2395      00000000 
 2395      00000000 
 2395      00000000 
 2396              		.section	.bss.mpr121,"aw",%nobits
 2397              		.align	2
 2398              		.set	.LANCHOR2,. + 0
 2401              	mpr121:
 2402 0000 00000000 		.space	52
 2402      00000000 
 2402      00000000 
 2402      00000000 
 2402      00000000 
 2403              		.section	.bss.osc,"aw",%nobits
 2404              		.align	2
 2405              		.set	.LANCHOR0,. + 0
 2408              	osc:
 2409 0000 00000000 		.space	48
 2409      00000000 
 2409      00000000 
 2409      00000000 
 2409      00000000 
 2410              		.section	.data.scale,"aw"
 2411              		.align	3
 2412              		.set	.LANCHOR3,. + 0
 2415              	scale:
 2416 0000 52B81E85 		.word	-2061584302
 2417 0004 EB596040 		.word	1080056299
 2418 0008 7B14AE47 		.word	1202590843
 2419 000c E1526140 		.word	1080120033
 2420 0010 C3F5285C 		.word	1546188227
 2421 0014 8F5A6240 		.word	1080187535
 2422 0018 52B81E85 		.word	-2061584302
 2423 001c EB716340 		.word	1080259051
 2424 0020 52B81E85 		.word	-2061584302
 2425 0024 EB996440 		.word	1080334827
 2426 0028 EC51B81E 		.word	515396076
 2427 002c 85D36540 		.word	1080415109
 2428 0030 00000000 		.word	0
 2429 0034 00206740 		.word	1080500224
 2430 0038 00000000 		.word	0
 2431 003c 00806840 		.word	1080590336
 2432 0040 CDCCCCCC 		.word	-858993459
 2433 0044 CCF46940 		.word	1080685772
 2434 0048 00000000 		.word	0
 2435 004c 00806B40 		.word	1080786944
 2436 0050 C3F5285C 		.word	1546188227
 2437 0054 8F226D40 		.word	1080894095
 2438 0058 AE47E17A 		.word	2061584302
 2439 005c 14DE6E40 		.word	1081007636
 2440 0060 AE47E17A 		.word	2061584302
ARM GAS  /var/folders/yw/6_x9gyn52jjg4jtn_wsryx_80000gp/T//cc8YnlWV.s 			page 79


 2441 0064 145A7040 		.word	1081104916
 2442 0068 7B14AE47 		.word	1202590843
 2443 006c E1527140 		.word	1081168609
 2444 0070 C3F5285C 		.word	1546188227
 2445 0074 8F5A7240 		.word	1081236111
 2446 0078 AE47E17A 		.word	2061584302
 2447 007c 14727340 		.word	1081307668
 2448 0080 AE47E17A 		.word	2061584302
 2449 0084 149A7440 		.word	1081383444
 2450 0088 48E17A14 		.word	343597384
 2451 008c AED37540 		.word	1081463726
 2452 0090 A4703D0A 		.word	171798692
 2453 0094 D71F7740 		.word	1081548759
 2454 0098 00000000 		.word	0
 2455 009c 00807840 		.word	1081638912
 2456 00a0 CDCCCCCC 		.word	-858993459
 2457 00a4 CCF47940 		.word	1081734348
 2458 00a8 00000000 		.word	0
 2459 00ac 00807B40 		.word	1081835520
 2460 00b0 C3F5285C 		.word	1546188227
 2461 00b4 8F227D40 		.word	1081942671
 2462 00b8 AE47E17A 		.word	2061584302
 2463 00bc 14DE7E40 		.word	1082056212
 2464 00c0 00000000 		.word	0
 2465 00c4 005A8040 		.word	1082153472
 2466 00c8 295C8FC2 		.word	-1030792151
 2467 00cc F5528140 		.word	1082217205
 2468 00d0 713D0AD7 		.word	-687194767
 2469 00d4 A35A8240 		.word	1082284707
 2470 00d8 00000000 		.word	0
 2471 00dc 00728340 		.word	1082356224
 2472 00e0 AE47E17A 		.word	2061584302
 2473 00e4 149A8440 		.word	1082432020
 2474 00e8 48E17A14 		.word	343597384
 2475 00ec AED38540 		.word	1082512302
 2476 00f0 52B81E85 		.word	-2061584302
 2477 00f4 EB1F8740 		.word	1082597355
 2478 00f8 52B81E85 		.word	-2061584302
 2479 00fc EB7F8840 		.word	1082687467
 2480 0100 7B14AE47 		.word	1202590843
 2481 0104 E1F48940 		.word	1082782945
 2482 0108 00000000 		.word	0
 2483 010c 00808B40 		.word	1082884096
 2484 0110 713D0AD7 		.word	-687194767
 2485 0114 A3228D40 		.word	1082991267
 2486 0118 5C8FC2F5 		.word	-171798692
 2487 011c 28DE8E40 		.word	1083104808
 2488              		.text
 2489              	.Letext0:
 2490              		.file 13 "/Library/DaisyToolchain/0.2.0/arm/arm-none-eabi/include/machine/_default_types.h"
 2491              		.file 14 "/Library/DaisyToolchain/0.2.0/arm/arm-none-eabi/include/sys/_stdint.h"
 2492              		.file 15 "/Library/DaisyToolchain/0.2.0/arm/arm-none-eabi/include/stdint.h"
 2493              		.file 16 "/Library/DaisyToolchain/0.2.0/arm/lib/gcc/arm-none-eabi/10.3.1/include/stddef.h"
 2494              		.file 17 "/Library/DaisyToolchain/0.2.0/arm/arm-none-eabi/include/c++/10.3.1/cmath"
 2495              		.file 18 "/Library/DaisyToolchain/0.2.0/arm/arm-none-eabi/include/c++/10.3.1/bits/std_abs.h"
 2496              		.file 19 "/Library/DaisyToolchain/0.2.0/arm/arm-none-eabi/include/c++/10.3.1/cstdlib"
 2497              		.file 20 "/Library/DaisyToolchain/0.2.0/arm/arm-none-eabi/include/c++/10.3.1/cstdint"
ARM GAS  /var/folders/yw/6_x9gyn52jjg4jtn_wsryx_80000gp/T//cc8YnlWV.s 			page 80


 2498              		.file 21 "/Library/DaisyToolchain/0.2.0/arm/arm-none-eabi/include/c++/10.3.1/type_traits"
 2499              		.file 22 "/Library/DaisyToolchain/0.2.0/arm/arm-none-eabi/include/c++/10.3.1/debug/debug.h"
 2500              		.file 23 "/Library/DaisyToolchain/0.2.0/arm/arm-none-eabi/include/c++/10.3.1/arm-none-eabi/thumb/v
 2501              		.file 24 "/Library/DaisyToolchain/0.2.0/arm/arm-none-eabi/include/c++/10.3.1/bits/algorithmfwd.h"
 2502              		.file 25 "/Library/DaisyToolchain/0.2.0/arm/arm-none-eabi/include/c++/10.3.1/bits/stl_pair.h"
 2503              		.file 26 "/Library/DaisyToolchain/0.2.0/arm/arm-none-eabi/include/c++/10.3.1/bits/exception_ptr.h"
 2504              		.file 27 "/Library/DaisyToolchain/0.2.0/arm/arm-none-eabi/include/c++/10.3.1/cstdarg"
 2505              		.file 28 "/Library/DaisyToolchain/0.2.0/arm/arm-none-eabi/include/c++/10.3.1/cstdio"
 2506              		.file 29 "/Library/DaisyToolchain/0.2.0/arm/arm-none-eabi/include/c++/10.3.1/cstring"
 2507              		.file 30 "/Library/DaisyToolchain/0.2.0/arm/arm-none-eabi/include/c++/10.3.1/cwchar"
 2508              		.file 31 "/Library/DaisyToolchain/0.2.0/arm/arm-none-eabi/include/c++/10.3.1/clocale"
 2509              		.file 32 "/Library/DaisyToolchain/0.2.0/arm/arm-none-eabi/include/c++/10.3.1/bits/basic_string.h"
 2510              		.file 33 "/Library/DaisyToolchain/0.2.0/arm/arm-none-eabi/include/c++/10.3.1/bits/stl_iterator.h"
 2511              		.file 34 "/Library/DaisyToolchain/0.2.0/arm/arm-none-eabi/include/c++/10.3.1/bits/predefined_ops.h
 2512              		.file 35 "/Library/DaisyToolchain/0.2.0/arm/arm-none-eabi/include/sys/_types.h"
 2513              		.file 36 "/Library/DaisyToolchain/0.2.0/arm/arm-none-eabi/include/sys/reent.h"
 2514              		.file 37 "/Library/DaisyToolchain/0.2.0/arm/arm-none-eabi/include/sys/lock.h"
 2515              		.file 38 "/Library/DaisyToolchain/0.2.0/arm/arm-none-eabi/include/math.h"
 2516              		.file 39 "/Library/DaisyToolchain/0.2.0/arm/arm-none-eabi/include/stdlib.h"
 2517              		.file 40 "/Library/DaisyToolchain/0.2.0/arm/arm-none-eabi/include/c++/10.3.1/math.h"
 2518              		.file 41 "/Library/DaisyToolchain/0.2.0/arm/arm-none-eabi/include/c++/10.3.1/stdlib.h"
 2519              		.file 42 "../../../libDaisy/src/per/tim.h"
 2520              		.file 43 "../../../libDaisy/src/per/sai.h"
 2521              		.file 44 "../../../libDaisy/src/hid/logger_impl.h"
 2522              		.file 45 "../../../libDaisy/src/util/wav_format.h"
 2523              		.file 46 "../../../libDaisy/src/dev/max11300.h"
 2524              		.file 47 "../../../libDaisy/src/hid/logger.h"
 2525              		.file 48 "../../../libDaisy/src/per/gpio.h"
 2526              		.file 49 "../../../libDaisy/src/dev/sdram.h"
 2527              		.file 50 "/Library/DaisyToolchain/0.2.0/arm/lib/gcc/arm-none-eabi/10.3.1/include/stdarg.h"
 2528              		.file 51 "/Library/DaisyToolchain/0.2.0/arm/arm-none-eabi/include/stdio.h"
 2529              		.file 52 "/Library/DaisyToolchain/0.2.0/arm/arm-none-eabi/include/string.h"
 2530              		.file 53 "../../../DaisySP/Source/Control/adenv.h"
 2531              		.file 54 "../../../DaisySP/Source/Utility/dsp.h"
 2532              		.file 55 "/Library/DaisyToolchain/0.2.0/arm/arm-none-eabi/include/wchar.h"
 2533              		.file 56 "/Library/DaisyToolchain/0.2.0/arm/arm-none-eabi/include/locale.h"
 2534              		.file 57 "<built-in>"
 2535              		.file 58 "../../../libDaisy/src/dev/sr_595.h"
ARM GAS  /var/folders/yw/6_x9gyn52jjg4jtn_wsryx_80000gp/T//cc8YnlWV.s 			page 81


DEFINED SYMBOLS
                            *ABS*:0000000000000000 mpr121Test.cpp
/var/folders/yw/6_x9gyn52jjg4jtn_wsryx_80000gp/T//cc8YnlWV.s:19     .text._ZN5daisy9DaisySeedD2Ev:0000000000000000 $t
/var/folders/yw/6_x9gyn52jjg4jtn_wsryx_80000gp/T//cc8YnlWV.s:26     .text._ZN5daisy9DaisySeedD2Ev:0000000000000000 _ZN5daisy9DaisySeedD2Ev
/var/folders/yw/6_x9gyn52jjg4jtn_wsryx_80000gp/T//cc8YnlWV.s:26     .text._ZN5daisy9DaisySeedD2Ev:0000000000000000 _ZN5daisy9DaisySeedD1Ev
/var/folders/yw/6_x9gyn52jjg4jtn_wsryx_80000gp/T//cc8YnlWV.s:67     .text._ZN7daisysp10OscillatorD2Ev:0000000000000000 $t
/var/folders/yw/6_x9gyn52jjg4jtn_wsryx_80000gp/T//cc8YnlWV.s:74     .text._ZN7daisysp10OscillatorD2Ev:0000000000000000 _ZN7daisysp10OscillatorD2Ev
/var/folders/yw/6_x9gyn52jjg4jtn_wsryx_80000gp/T//cc8YnlWV.s:74     .text._ZN7daisysp10OscillatorD2Ev:0000000000000000 _ZN7daisysp10OscillatorD1Ev
/var/folders/yw/6_x9gyn52jjg4jtn_wsryx_80000gp/T//cc8YnlWV.s:91     .text._ZN5daisy6Mpr121INS_18Mpr121I2CTransportEED2Ev:0000000000000000 $t
/var/folders/yw/6_x9gyn52jjg4jtn_wsryx_80000gp/T//cc8YnlWV.s:98     .text._ZN5daisy6Mpr121INS_18Mpr121I2CTransportEED2Ev:0000000000000000 _ZN5daisy6Mpr121INS_18Mpr121I2CTransportEED2Ev
/var/folders/yw/6_x9gyn52jjg4jtn_wsryx_80000gp/T//cc8YnlWV.s:98     .text._ZN5daisy6Mpr121INS_18Mpr121I2CTransportEED2Ev:0000000000000000 _ZN5daisy6Mpr121INS_18Mpr121I2CTransportEED1Ev
/var/folders/yw/6_x9gyn52jjg4jtn_wsryx_80000gp/T//cc8YnlWV.s:120    .text._ZL13AudioCallbackPKfPfj:0000000000000000 $t
/var/folders/yw/6_x9gyn52jjg4jtn_wsryx_80000gp/T//cc8YnlWV.s:126    .text._ZL13AudioCallbackPKfPfj:0000000000000000 _ZL13AudioCallbackPKfPfj
/var/folders/yw/6_x9gyn52jjg4jtn_wsryx_80000gp/T//cc8YnlWV.s:195    .text._ZL13AudioCallbackPKfPfj:0000000000000028 $d
/var/folders/yw/6_x9gyn52jjg4jtn_wsryx_80000gp/T//cc8YnlWV.s:200    .text._ZN5daisy6Mpr121INS_18Mpr121I2CTransportEE13WriteRegisterEhh:0000000000000000 $t
/var/folders/yw/6_x9gyn52jjg4jtn_wsryx_80000gp/T//cc8YnlWV.s:207    .text._ZN5daisy6Mpr121INS_18Mpr121I2CTransportEE13WriteRegisterEhh:0000000000000000 _ZN5daisy6Mpr121INS_18Mpr121I2CTransportEE13WriteRegisterEhh
/var/folders/yw/6_x9gyn52jjg4jtn_wsryx_80000gp/T//cc8YnlWV.s:577    .rodata.main.str1.4:0000000000000000 $d
/var/folders/yw/6_x9gyn52jjg4jtn_wsryx_80000gp/T//cc8YnlWV.s:581    .text.startup.main:0000000000000000 $t
/var/folders/yw/6_x9gyn52jjg4jtn_wsryx_80000gp/T//cc8YnlWV.s:588    .text.startup.main:0000000000000000 main
/var/folders/yw/6_x9gyn52jjg4jtn_wsryx_80000gp/T//cc8YnlWV.s:1763   .text.startup.main:0000000000000338 $d
/var/folders/yw/6_x9gyn52jjg4jtn_wsryx_80000gp/T//cc8YnlWV.s:1774   .text.startup.main:0000000000000358 $t
/var/folders/yw/6_x9gyn52jjg4jtn_wsryx_80000gp/T//cc8YnlWV.s:1988   .text.startup.main:00000000000003ee $d
/var/folders/yw/6_x9gyn52jjg4jtn_wsryx_80000gp/T//cc8YnlWV.s:1995   .text.startup.main:00000000000003f4 $t
/var/folders/yw/6_x9gyn52jjg4jtn_wsryx_80000gp/T//cc8YnlWV.s:2068   .text.startup.main:000000000000042c $d
/var/folders/yw/6_x9gyn52jjg4jtn_wsryx_80000gp/T//cc8YnlWV.s:2078   .text.startup._GLOBAL__sub_I_scale:0000000000000000 $t
/var/folders/yw/6_x9gyn52jjg4jtn_wsryx_80000gp/T//cc8YnlWV.s:2084   .text.startup._GLOBAL__sub_I_scale:0000000000000000 _GLOBAL__sub_I_scale
/var/folders/yw/6_x9gyn52jjg4jtn_wsryx_80000gp/T//cc8YnlWV.s:2369   .text.startup._GLOBAL__sub_I_scale:000000000000004c $d
/var/folders/yw/6_x9gyn52jjg4jtn_wsryx_80000gp/T//cc8YnlWV.s:2383   .init_array:0000000000000000 $d
/var/folders/yw/6_x9gyn52jjg4jtn_wsryx_80000gp/T//cc8YnlWV.s:2408   .bss.osc:0000000000000000 osc
/var/folders/yw/6_x9gyn52jjg4jtn_wsryx_80000gp/T//cc8YnlWV.s:2401   .bss.mpr121:0000000000000000 mpr121
/var/folders/yw/6_x9gyn52jjg4jtn_wsryx_80000gp/T//cc8YnlWV.s:2394   .bss.hw:0000000000000000 hw
/var/folders/yw/6_x9gyn52jjg4jtn_wsryx_80000gp/T//cc8YnlWV.s:2415   .data.scale:0000000000000000 scale
/var/folders/yw/6_x9gyn52jjg4jtn_wsryx_80000gp/T//cc8YnlWV.s:2390   .bss.hw:0000000000000000 $d
/var/folders/yw/6_x9gyn52jjg4jtn_wsryx_80000gp/T//cc8YnlWV.s:2397   .bss.mpr121:0000000000000000 $d
/var/folders/yw/6_x9gyn52jjg4jtn_wsryx_80000gp/T//cc8YnlWV.s:2404   .bss.osc:0000000000000000 $d
/var/folders/yw/6_x9gyn52jjg4jtn_wsryx_80000gp/T//cc8YnlWV.s:2411   .data.scale:0000000000000000 $d
                           .group:0000000000000000 _ZN5daisy9DaisySeedD5Ev
                           .group:0000000000000000 _ZN7daisysp10OscillatorD5Ev
                           .group:0000000000000000 _ZN5daisy6Mpr121INS_18Mpr121I2CTransportEED5Ev

UNDEFINED SYMBOLS
_ZN7daisysp10Oscillator7ProcessEv
_ZN5daisy9I2CHandle16TransmitBlockingEtPhtm
_ZN5daisy9I2CHandle15ReceiveBlockingEtPhtm
_ZN5daisy9DaisySeed4InitEb
_ZN5daisy6LoggerILNS_17LoggerDestinationE1EE8StartLogEb
_ZN5daisy9DaisySeed17SetAudioBlockSizeEj
_ZN5daisy9DaisySeed18SetAudioSampleRateENS_9SaiHandle6Config10SampleRateE
_ZN5daisy9DaisySeed10StartAudioEPFvPKfPfjE
_ZN5daisy9DaisySeed15AudioSampleRateEv
_ZN7daisysp10Oscillator12CalcPhaseIncEf
_ZN5daisy9I2CHandle4InitERKNS0_6ConfigE
_ZN5daisy6System5DelayEm
_ZN5daisy6LoggerILNS_17LoggerDestinationE1EE9PrintLineEPKcz
__aeabi_atexit
__dso_handle
