ARM GAS  /var/folders/yw/6_x9gyn52jjg4jtn_wsryx_80000gp/T//ccNwO1Mk.s 			page 1


   1              		.cpu cortex-m7
   2              		.arch armv7e-m
   3              		.fpu fpv5-d16
   4              		.eabi_attribute 28, 1
   5              		.eabi_attribute 20, 1
   6              		.eabi_attribute 21, 1
   7              		.eabi_attribute 23, 3
   8              		.eabi_attribute 24, 1
   9              		.eabi_attribute 25, 1
  10              		.eabi_attribute 26, 1
  11              		.eabi_attribute 30, 2
  12              		.eabi_attribute 34, 1
  13              		.eabi_attribute 18, 4
  14              		.file	"mpr121Test.cpp"
  15              		.text
  16              	.Ltext0:
  17              		.cfi_sections	.debug_frame
  18              		.section	.text._ZN5daisy9DaisySeedD2Ev,"axG",%progbits,_ZN5daisy9DaisySeedD5Ev,comdat
  19              		.align	1
  20              		.p2align 2,,3
  21              		.weak	_ZN5daisy9DaisySeedD2Ev
  22              		.syntax unified
  23              		.thumb
  24              		.thumb_func
  26              	_ZN5daisy9DaisySeedD2Ev:
  27              	.LVL0:
  28              	.LFB2529:
  29              		.file 1 "../../../libDaisy/src/daisy_seed.h"
   1:../../../libDaisy/src/daisy_seed.h **** #pragma once
   2:../../../libDaisy/src/daisy_seed.h **** #ifndef DSY_SEED_H
   3:../../../libDaisy/src/daisy_seed.h **** #define DSY_SEED_H
   4:../../../libDaisy/src/daisy_seed.h **** 
   5:../../../libDaisy/src/daisy_seed.h **** #include "daisy.h"
   6:../../../libDaisy/src/daisy_seed.h **** 
   7:../../../libDaisy/src/daisy_seed.h **** //Uncomment this out if you're still using the rev2 hardware
   8:../../../libDaisy/src/daisy_seed.h **** //#define SEED_REV2
   9:../../../libDaisy/src/daisy_seed.h **** 
  10:../../../libDaisy/src/daisy_seed.h **** namespace daisy
  11:../../../libDaisy/src/daisy_seed.h **** {
  12:../../../libDaisy/src/daisy_seed.h **** /**
  13:../../../libDaisy/src/daisy_seed.h ****    @brief This is the higher-level interface for the Daisy board. \n 
  14:../../../libDaisy/src/daisy_seed.h ****     All basic peripheral configuration/initialization is setup here. \n
  15:../../../libDaisy/src/daisy_seed.h **** 
  16:../../../libDaisy/src/daisy_seed.h ****    @ingroup boards
  17:../../../libDaisy/src/daisy_seed.h **** */
  18:../../../libDaisy/src/daisy_seed.h **** class DaisySeed
  19:../../../libDaisy/src/daisy_seed.h **** {
  20:../../../libDaisy/src/daisy_seed.h ****   public:
  21:../../../libDaisy/src/daisy_seed.h ****     DaisySeed() {}
  22:../../../libDaisy/src/daisy_seed.h ****     ~DaisySeed() {}
  30              		.loc 1 22 5 view -0
  31              		.cfi_startproc
  32              		@ args = 0, pretend = 0, frame = 0
  33              		@ frame_needed = 0, uses_anonymous_args = 0
  34              		@ link register save eliminated.
  35              	.LBB204:
  36              	.LBI204:
ARM GAS  /var/folders/yw/6_x9gyn52jjg4jtn_wsryx_80000gp/T//ccNwO1Mk.s 			page 2


  37              		.file 2 "../../../libDaisy/src/sys/system.h"
   1:../../../libDaisy/src/sys/system.h **** #ifndef DSY_SYSTEM_H
   2:../../../libDaisy/src/sys/system.h **** #define DSY_SYSTEM_H
   3:../../../libDaisy/src/sys/system.h **** 
   4:../../../libDaisy/src/sys/system.h **** #ifndef UNIT_TEST // for unit tests, a dummy implementation is provided below
   5:../../../libDaisy/src/sys/system.h **** 
   6:../../../libDaisy/src/sys/system.h **** #include <cstdint>
   7:../../../libDaisy/src/sys/system.h **** #include "per/tim.h"
   8:../../../libDaisy/src/sys/system.h **** 
   9:../../../libDaisy/src/sys/system.h **** namespace daisy
  10:../../../libDaisy/src/sys/system.h **** {
  11:../../../libDaisy/src/sys/system.h **** /** A handle for interacting with the Core System. 
  12:../../../libDaisy/src/sys/system.h ****  ** This includes the Clock tree, MPU, global DMA initialization,
  13:../../../libDaisy/src/sys/system.h ****  ** cache handling, and any other necessary global initiailzation
  14:../../../libDaisy/src/sys/system.h ****  **
  15:../../../libDaisy/src/sys/system.h ****  ** @author shensley
  16:../../../libDaisy/src/sys/system.h ****  ** @ingroup system
  17:../../../libDaisy/src/sys/system.h ****  */
  18:../../../libDaisy/src/sys/system.h **** class System
  19:../../../libDaisy/src/sys/system.h **** {
  20:../../../libDaisy/src/sys/system.h ****   public:
  21:../../../libDaisy/src/sys/system.h ****     /** Contains settings for initializing the System */
  22:../../../libDaisy/src/sys/system.h ****     struct Config
  23:../../../libDaisy/src/sys/system.h ****     {
  24:../../../libDaisy/src/sys/system.h ****         /** Specifies the system clock frequency that feeds APB/AHB clocks, etc. */
  25:../../../libDaisy/src/sys/system.h ****         enum class SysClkFreq
  26:../../../libDaisy/src/sys/system.h ****         {
  27:../../../libDaisy/src/sys/system.h ****             FREQ_400MHZ,
  28:../../../libDaisy/src/sys/system.h ****             FREQ_480MHZ,
  29:../../../libDaisy/src/sys/system.h ****         };
  30:../../../libDaisy/src/sys/system.h **** 
  31:../../../libDaisy/src/sys/system.h ****         /** Method to call on the struct to set to defaults
  32:../../../libDaisy/src/sys/system.h ****          ** CPU Freq set to 400MHz
  33:../../../libDaisy/src/sys/system.h ****          ** Cache Enabled 
  34:../../../libDaisy/src/sys/system.h ****          ** */
  35:../../../libDaisy/src/sys/system.h ****         void Defaults()
  36:../../../libDaisy/src/sys/system.h ****         {
  37:../../../libDaisy/src/sys/system.h ****             cpu_freq    = SysClkFreq::FREQ_400MHZ;
  38:../../../libDaisy/src/sys/system.h ****             use_dcache  = true;
  39:../../../libDaisy/src/sys/system.h ****             use_icache  = true;
  40:../../../libDaisy/src/sys/system.h ****             skip_clocks = false;
  41:../../../libDaisy/src/sys/system.h ****         }
  42:../../../libDaisy/src/sys/system.h **** 
  43:../../../libDaisy/src/sys/system.h ****         /** Method to call on the struct to set to boost mode:
  44:../../../libDaisy/src/sys/system.h ****          ** CPU Freq set to 480MHz
  45:../../../libDaisy/src/sys/system.h ****          ** Cache Enabled 
  46:../../../libDaisy/src/sys/system.h ****          ** */
  47:../../../libDaisy/src/sys/system.h ****         void Boost()
  48:../../../libDaisy/src/sys/system.h ****         {
  49:../../../libDaisy/src/sys/system.h ****             cpu_freq    = SysClkFreq::FREQ_480MHZ;
  50:../../../libDaisy/src/sys/system.h ****             use_dcache  = true;
  51:../../../libDaisy/src/sys/system.h ****             use_icache  = true;
  52:../../../libDaisy/src/sys/system.h ****             skip_clocks = false;
  53:../../../libDaisy/src/sys/system.h ****         }
  54:../../../libDaisy/src/sys/system.h **** 
  55:../../../libDaisy/src/sys/system.h ****         SysClkFreq cpu_freq;
  56:../../../libDaisy/src/sys/system.h ****         bool       use_dcache;
ARM GAS  /var/folders/yw/6_x9gyn52jjg4jtn_wsryx_80000gp/T//ccNwO1Mk.s 			page 3


  57:../../../libDaisy/src/sys/system.h ****         bool       use_icache;
  58:../../../libDaisy/src/sys/system.h ****         bool       skip_clocks;
  59:../../../libDaisy/src/sys/system.h ****     };
  60:../../../libDaisy/src/sys/system.h **** 
  61:../../../libDaisy/src/sys/system.h ****     /** Describes the different regions of memory available to the Daisy
  62:../../../libDaisy/src/sys/system.h ****      * 
  63:../../../libDaisy/src/sys/system.h ****      */
  64:../../../libDaisy/src/sys/system.h ****     enum MemoryRegion
  65:../../../libDaisy/src/sys/system.h ****     {
  66:../../../libDaisy/src/sys/system.h ****         INTERNAL_FLASH = 0,
  67:../../../libDaisy/src/sys/system.h ****         ITCMRAM,
  68:../../../libDaisy/src/sys/system.h ****         DTCMRAM,
  69:../../../libDaisy/src/sys/system.h ****         SRAM_D1,
  70:../../../libDaisy/src/sys/system.h ****         SRAM_D2,
  71:../../../libDaisy/src/sys/system.h ****         SRAM_D3,
  72:../../../libDaisy/src/sys/system.h ****         SDRAM,
  73:../../../libDaisy/src/sys/system.h ****         QSPI,
  74:../../../libDaisy/src/sys/system.h ****         INVALID_ADDRESS,
  75:../../../libDaisy/src/sys/system.h ****     };
  76:../../../libDaisy/src/sys/system.h **** 
  77:../../../libDaisy/src/sys/system.h ****     System() {}
  78:../../../libDaisy/src/sys/system.h ****     ~System() {}
  38              		.loc 2 78 5 view .LVU1
  39              		.loc 2 78 5 is_stmt 0 view .LVU2
  40              	.LBE204:
  41              	.LBB205:
  42              	.LBI205:
  43              		.file 3 "../../../libDaisy/src/hid/usb.h"
   1:../../../libDaisy/src/hid/usb.h **** #pragma once
   2:../../../libDaisy/src/hid/usb.h **** #ifndef DSY_HID_USB_H
   3:../../../libDaisy/src/hid/usb.h **** #define DSY_HID_USB_H
   4:../../../libDaisy/src/hid/usb.h **** #include <stdint.h>
   5:../../../libDaisy/src/hid/usb.h **** #include <stdlib.h>
   6:../../../libDaisy/src/hid/usb.h **** 
   7:../../../libDaisy/src/hid/usb.h **** namespace daisy
   8:../../../libDaisy/src/hid/usb.h **** /** @addtogroup human_interface
   9:../../../libDaisy/src/hid/usb.h ****     @{
  10:../../../libDaisy/src/hid/usb.h **** */
  11:../../../libDaisy/src/hid/usb.h **** 
  12:../../../libDaisy/src/hid/usb.h **** {
  13:../../../libDaisy/src/hid/usb.h **** /** 
  14:../../../libDaisy/src/hid/usb.h ****     @brief Interface for initializing and using the USB Peripherals on the daisy
  15:../../../libDaisy/src/hid/usb.h ****     @author Stephen Hensley
  16:../../../libDaisy/src/hid/usb.h ****     @date December 2019
  17:../../../libDaisy/src/hid/usb.h **** */
  18:../../../libDaisy/src/hid/usb.h **** class UsbHandle
  19:../../../libDaisy/src/hid/usb.h **** {
  20:../../../libDaisy/src/hid/usb.h ****   public:
  21:../../../libDaisy/src/hid/usb.h ****     /** Return values for USBHandle Functions */
  22:../../../libDaisy/src/hid/usb.h ****     enum class Result
  23:../../../libDaisy/src/hid/usb.h ****     {
  24:../../../libDaisy/src/hid/usb.h ****         OK,
  25:../../../libDaisy/src/hid/usb.h ****         ERR,
  26:../../../libDaisy/src/hid/usb.h ****     };
  27:../../../libDaisy/src/hid/usb.h **** 
  28:../../../libDaisy/src/hid/usb.h ****     /** Specified which of the two USB Peripherals to initialize. */
  29:../../../libDaisy/src/hid/usb.h ****     enum UsbPeriph
ARM GAS  /var/folders/yw/6_x9gyn52jjg4jtn_wsryx_80000gp/T//ccNwO1Mk.s 			page 4


  30:../../../libDaisy/src/hid/usb.h ****     {
  31:../../../libDaisy/src/hid/usb.h ****         FS_INTERNAL, /**< Internal pin */
  32:../../../libDaisy/src/hid/usb.h ****         FS_EXTERNAL, /**< FS External D+ pin is Pin 38 (GPIO32). FS External D- pin is Pin 37 (GPIO
  33:../../../libDaisy/src/hid/usb.h ****         FS_BOTH,     /**< Both */
  34:../../../libDaisy/src/hid/usb.h ****     };
  35:../../../libDaisy/src/hid/usb.h **** 
  36:../../../libDaisy/src/hid/usb.h **** 
  37:../../../libDaisy/src/hid/usb.h ****     /** Function called upon reception of a buffer */
  38:../../../libDaisy/src/hid/usb.h ****     typedef void (*ReceiveCallback)(uint8_t* buff, uint32_t* len);
  39:../../../libDaisy/src/hid/usb.h **** 
  40:../../../libDaisy/src/hid/usb.h ****     UsbHandle() {}
  41:../../../libDaisy/src/hid/usb.h **** 
  42:../../../libDaisy/src/hid/usb.h ****     ~UsbHandle() {}
  44              		.loc 3 42 5 is_stmt 1 view .LVU3
  45              		.loc 3 42 5 is_stmt 0 view .LVU4
  46              	.LBE205:
  47              	.LBB206:
  48              	.LBI206:
  49              		.file 4 "../../../libDaisy/src/per/adc.h"
   1:../../../libDaisy/src/per/adc.h **** #pragma once
   2:../../../libDaisy/src/per/adc.h **** #ifndef DSY_ADC_H
   3:../../../libDaisy/src/per/adc.h **** #define DSY_ADC_H /**< Macro */
   4:../../../libDaisy/src/per/adc.h **** #include <stdint.h>
   5:../../../libDaisy/src/per/adc.h **** #include <stdlib.h>
   6:../../../libDaisy/src/per/adc.h **** #include "daisy_core.h"
   7:../../../libDaisy/src/per/adc.h **** #include "per/gpio.h"
   8:../../../libDaisy/src/per/adc.h **** 
   9:../../../libDaisy/src/per/adc.h **** #define DSY_ADC_MAX_CHANNELS 16 /**< Maximum number of ADC channels */
  10:../../../libDaisy/src/per/adc.h **** 
  11:../../../libDaisy/src/per/adc.h **** namespace daisy
  12:../../../libDaisy/src/per/adc.h **** {
  13:../../../libDaisy/src/per/adc.h **** /** @addtogroup per_analog
  14:../../../libDaisy/src/per/adc.h ****     @{
  15:../../../libDaisy/src/per/adc.h **** */
  16:../../../libDaisy/src/per/adc.h **** 
  17:../../../libDaisy/src/per/adc.h **** /* While there may not be many configuration options here,
  18:../../../libDaisy/src/per/adc.h **** using a struct like this allows us to add more configuration
  19:../../../libDaisy/src/per/adc.h **** later without breaking existing functionality.
  20:../../../libDaisy/src/per/adc.h **** */
  21:../../../libDaisy/src/per/adc.h **** 
  22:../../../libDaisy/src/per/adc.h **** /** @brief   Configuration Structure for an ADC Channel 
  23:../../../libDaisy/src/per/adc.h ****  *  @details This can be used to configure a a single input, 
  24:../../../libDaisy/src/per/adc.h ****  *           or a multiplexed input, allowing up to 8 inputs on 
  25:../../../libDaisy/src/per/adc.h ****  *           one channel.
  26:../../../libDaisy/src/per/adc.h ****  *  @note    Sharing data lines to multiple muxes _is_ possible, but
  27:../../../libDaisy/src/per/adc.h ****  *           each channel sharing data lines must be set to the maximum
  28:../../../libDaisy/src/per/adc.h ****  *           number of channels, even if some multiplexers have fewer
  29:../../../libDaisy/src/per/adc.h ****  *           inputs connected.
  30:../../../libDaisy/src/per/adc.h **** */
  31:../../../libDaisy/src/per/adc.h **** struct AdcChannelConfig
  32:../../../libDaisy/src/per/adc.h **** {
  33:../../../libDaisy/src/per/adc.h ****     /** Which pin to use for multiplexing */
  34:../../../libDaisy/src/per/adc.h ****     enum MuxPin
  35:../../../libDaisy/src/per/adc.h ****     {
  36:../../../libDaisy/src/per/adc.h ****         MUX_SEL_0,    /**< & */
  37:../../../libDaisy/src/per/adc.h ****         MUX_SEL_1,    /**< & */
  38:../../../libDaisy/src/per/adc.h ****         MUX_SEL_2,    /**< & */
ARM GAS  /var/folders/yw/6_x9gyn52jjg4jtn_wsryx_80000gp/T//ccNwO1Mk.s 			page 5


  39:../../../libDaisy/src/per/adc.h ****         MUX_SEL_LAST, /**< & */
  40:../../../libDaisy/src/per/adc.h ****     };
  41:../../../libDaisy/src/per/adc.h **** 
  42:../../../libDaisy/src/per/adc.h ****     /** Initializes a single ADC pin as an ADC. 
  43:../../../libDaisy/src/per/adc.h ****     \param pin Pin to init.
  44:../../../libDaisy/src/per/adc.h ****      */
  45:../../../libDaisy/src/per/adc.h ****     void InitSingle(dsy_gpio_pin pin);
  46:../../../libDaisy/src/per/adc.h **** 
  47:../../../libDaisy/src/per/adc.h ****     /** 
  48:../../../libDaisy/src/per/adc.h ****     Initializes a single ADC pin as a Multiplexed ADC.
  49:../../../libDaisy/src/per/adc.h ****     Requires a CD405X Multiplexer connected to the pin.
  50:../../../libDaisy/src/per/adc.h ****     You only need to supply the mux pins that are required,
  51:../../../libDaisy/src/per/adc.h ****     e.g. a 4052 mux would only require mux_0 and mux_1.
  52:../../../libDaisy/src/per/adc.h ****     Internal Callbacks handle the pin addressing.
  53:../../../libDaisy/src/per/adc.h ****     \param mux_channels must be 1-8
  54:../../../libDaisy/src/per/adc.h ****     \param mux_0 First mux pin
  55:../../../libDaisy/src/per/adc.h ****     \param mux_1 Second mux pin
  56:../../../libDaisy/src/per/adc.h ****     \param mux_2 Third mux pin
  57:../../../libDaisy/src/per/adc.h ****     \param adc_pin &
  58:../../../libDaisy/src/per/adc.h ****     */
  59:../../../libDaisy/src/per/adc.h ****     void InitMux(dsy_gpio_pin adc_pin,
  60:../../../libDaisy/src/per/adc.h ****                  size_t       mux_channels,
  61:../../../libDaisy/src/per/adc.h ****                  dsy_gpio_pin mux_0,
  62:../../../libDaisy/src/per/adc.h ****                  dsy_gpio_pin mux_1 = {DSY_GPIOX, 0},
  63:../../../libDaisy/src/per/adc.h ****                  dsy_gpio_pin mux_2 = {DSY_GPIOX, 0});
  64:../../../libDaisy/src/per/adc.h **** 
  65:../../../libDaisy/src/per/adc.h ****     dsy_gpio pin_;                   /**< & */
  66:../../../libDaisy/src/per/adc.h ****     dsy_gpio mux_pin_[MUX_SEL_LAST]; /**< & */
  67:../../../libDaisy/src/per/adc.h ****     uint8_t  mux_channels_;          /**< & */
  68:../../../libDaisy/src/per/adc.h **** };
  69:../../../libDaisy/src/per/adc.h **** 
  70:../../../libDaisy/src/per/adc.h **** /**
  71:../../../libDaisy/src/per/adc.h ****    @brief Handler for analog to digital conversion
  72:../../../libDaisy/src/per/adc.h **** */
  73:../../../libDaisy/src/per/adc.h **** class AdcHandle
  74:../../../libDaisy/src/per/adc.h **** {
  75:../../../libDaisy/src/per/adc.h ****   public:
  76:../../../libDaisy/src/per/adc.h ****     /** Supported oversampling amounts */
  77:../../../libDaisy/src/per/adc.h ****     enum OverSampling
  78:../../../libDaisy/src/per/adc.h ****     {
  79:../../../libDaisy/src/per/adc.h ****         OVS_NONE, /**< & */
  80:../../../libDaisy/src/per/adc.h ****         OVS_4,    /**< & */
  81:../../../libDaisy/src/per/adc.h ****         OVS_8,    /**< & */
  82:../../../libDaisy/src/per/adc.h ****         OVS_16,   /**< & */
  83:../../../libDaisy/src/per/adc.h ****         OVS_32,   /**< & */
  84:../../../libDaisy/src/per/adc.h ****         OVS_64,   /**< & */
  85:../../../libDaisy/src/per/adc.h ****         OVS_128,  /**< & */
  86:../../../libDaisy/src/per/adc.h ****         OVS_256,  /**< & */
  87:../../../libDaisy/src/per/adc.h ****         OVS_512,  /**< & */
  88:../../../libDaisy/src/per/adc.h ****         OVS_1024, /**< & */
  89:../../../libDaisy/src/per/adc.h ****         OVS_LAST, /**< & */
  90:../../../libDaisy/src/per/adc.h ****     };
  91:../../../libDaisy/src/per/adc.h **** 
  92:../../../libDaisy/src/per/adc.h ****     AdcHandle() {}
  93:../../../libDaisy/src/per/adc.h ****     ~AdcHandle() {}
  50              		.loc 4 93 5 is_stmt 1 view .LVU5
  51              		.loc 4 93 5 is_stmt 0 view .LVU6
ARM GAS  /var/folders/yw/6_x9gyn52jjg4jtn_wsryx_80000gp/T//ccNwO1Mk.s 			page 6


  52              	.LBE206:
  53              	.LBB207:
  54              	.LBI207:
  55              		.file 5 "../../../libDaisy/src/hid/audio.h"
   1:../../../libDaisy/src/hid/audio.h **** #ifndef DSY_AUDIO_H
   2:../../../libDaisy/src/hid/audio.h **** #define DSY_AUDIO_H /**< & */
   3:../../../libDaisy/src/hid/audio.h **** 
   4:../../../libDaisy/src/hid/audio.h **** #include "per/sai.h"
   5:../../../libDaisy/src/hid/audio.h **** 
   6:../../../libDaisy/src/hid/audio.h **** namespace daisy
   7:../../../libDaisy/src/hid/audio.h **** {
   8:../../../libDaisy/src/hid/audio.h **** /** @brief Audio Engine Handle
   9:../../../libDaisy/src/hid/audio.h ****  *  @ingroup audio 
  10:../../../libDaisy/src/hid/audio.h ****  *  @details This class allows for higher level access to an audio engine.
  11:../../../libDaisy/src/hid/audio.h ****  *           If you're using a SOM like the DaisySeed or DaisyPatchSM (or any 
  12:../../../libDaisy/src/hid/audio.h ****  *            board that includes one of those objects) then the intialization
  13:../../../libDaisy/src/hid/audio.h ****  *            is already taken  care of.
  14:../../../libDaisy/src/hid/audio.h ****  *           If you're setting up your own custom hardware, or need to make changes
  15:../../../libDaisy/src/hid/audio.h ****  *           you will have to take the following steps:
  16:../../../libDaisy/src/hid/audio.h ****  *             1. Create and Initialize an SaiHandle or two depending on your requirements
  17:../../../libDaisy/src/hid/audio.h ****  *             2. Initialize the Audio Handle with the desired settings and the Initialized SaiHand
  18:../../../libDaisy/src/hid/audio.h ****  *             3. If the connected codec requires special configuration or initialization, do so
  19:../../../libDaisy/src/hid/audio.h ****  *             4. Write a callback method using either the AudioCallback or the InterleavingAudioCa
  20:../../../libDaisy/src/hid/audio.h ****  *             5. Start the Audio using one of the StartAudio function
  21:../../../libDaisy/src/hid/audio.h ****  */
  22:../../../libDaisy/src/hid/audio.h **** class AudioHandle
  23:../../../libDaisy/src/hid/audio.h **** {
  24:../../../libDaisy/src/hid/audio.h ****   public:
  25:../../../libDaisy/src/hid/audio.h ****     /** Manually configurable details about the Audio Engine */
  26:../../../libDaisy/src/hid/audio.h ****     /** TODO: Figure out how to get samplerate in here. */
  27:../../../libDaisy/src/hid/audio.h ****     struct Config
  28:../../../libDaisy/src/hid/audio.h ****     {
  29:../../../libDaisy/src/hid/audio.h ****         /** number of samples to process per callback */
  30:../../../libDaisy/src/hid/audio.h ****         size_t blocksize;
  31:../../../libDaisy/src/hid/audio.h **** 
  32:../../../libDaisy/src/hid/audio.h ****         /**< Sample rate of audio */
  33:../../../libDaisy/src/hid/audio.h ****         SaiHandle::Config::SampleRate samplerate;
  34:../../../libDaisy/src/hid/audio.h **** 
  35:../../../libDaisy/src/hid/audio.h ****         /** factor for adjustment before and after callback for hardware that may have extra headro
  36:../../../libDaisy/src/hid/audio.h ****         float postgain;
  37:../../../libDaisy/src/hid/audio.h **** 
  38:../../../libDaisy/src/hid/audio.h ****         /** factor for additional one-sided compensation to audio path for hardware that may
  39:../../../libDaisy/src/hid/audio.h ****          *  have unequal input/output ranges
  40:../../../libDaisy/src/hid/audio.h ****          */
  41:../../../libDaisy/src/hid/audio.h ****         float output_compensation;
  42:../../../libDaisy/src/hid/audio.h **** 
  43:../../../libDaisy/src/hid/audio.h ****         /** Sets default values for config struct */
  44:../../../libDaisy/src/hid/audio.h ****         Config()
  45:../../../libDaisy/src/hid/audio.h ****         : blocksize(48),
  46:../../../libDaisy/src/hid/audio.h ****           samplerate(SaiHandle::Config::SampleRate::SAI_48KHZ),
  47:../../../libDaisy/src/hid/audio.h ****           postgain(1.f),
  48:../../../libDaisy/src/hid/audio.h ****           output_compensation(1.f)
  49:../../../libDaisy/src/hid/audio.h ****         {
  50:../../../libDaisy/src/hid/audio.h ****         }
  51:../../../libDaisy/src/hid/audio.h ****     };
  52:../../../libDaisy/src/hid/audio.h **** 
  53:../../../libDaisy/src/hid/audio.h ****     enum class Result
ARM GAS  /var/folders/yw/6_x9gyn52jjg4jtn_wsryx_80000gp/T//ccNwO1Mk.s 			page 7


  54:../../../libDaisy/src/hid/audio.h ****     {
  55:../../../libDaisy/src/hid/audio.h ****         OK,
  56:../../../libDaisy/src/hid/audio.h ****         ERR,
  57:../../../libDaisy/src/hid/audio.h ****     };
  58:../../../libDaisy/src/hid/audio.h **** 
  59:../../../libDaisy/src/hid/audio.h ****     /** Non-Interleaving input buffer
  60:../../../libDaisy/src/hid/audio.h ****      * Buffer arranged by float[chn][sample] 
  61:../../../libDaisy/src/hid/audio.h ****      * const so that the user can't modify the input
  62:../../../libDaisy/src/hid/audio.h ****      */
  63:../../../libDaisy/src/hid/audio.h ****     typedef const float* const* InputBuffer;
  64:../../../libDaisy/src/hid/audio.h **** 
  65:../../../libDaisy/src/hid/audio.h ****     /** Non-Interleaving output buffer
  66:../../../libDaisy/src/hid/audio.h ****      * Arranged by float[chn][sample] 
  67:../../../libDaisy/src/hid/audio.h ****      */
  68:../../../libDaisy/src/hid/audio.h ****     typedef float** OutputBuffer;
  69:../../../libDaisy/src/hid/audio.h **** 
  70:../../../libDaisy/src/hid/audio.h ****     /** Type for a Non-Interleaving audio callback 
  71:../../../libDaisy/src/hid/audio.h ****      * Non-Interleaving audio callbacks in daisy will be of this type
  72:../../../libDaisy/src/hid/audio.h ****      */
  73:../../../libDaisy/src/hid/audio.h ****     typedef void (*AudioCallback)(InputBuffer  in,
  74:../../../libDaisy/src/hid/audio.h ****                                   OutputBuffer out,
  75:../../../libDaisy/src/hid/audio.h ****                                   size_t       size);
  76:../../../libDaisy/src/hid/audio.h **** 
  77:../../../libDaisy/src/hid/audio.h ****     /** Interleaving Input buffer
  78:../../../libDaisy/src/hid/audio.h ****      ** audio is prepared as { L0, R0, L1, R1, . . . LN, RN }]
  79:../../../libDaisy/src/hid/audio.h ****      ** this is const, as the user shouldn't modify it
  80:../../../libDaisy/src/hid/audio.h ****     */
  81:../../../libDaisy/src/hid/audio.h ****     typedef const float* InterleavingInputBuffer;
  82:../../../libDaisy/src/hid/audio.h **** 
  83:../../../libDaisy/src/hid/audio.h ****     /** Interleaving Output buffer 
  84:../../../libDaisy/src/hid/audio.h ****      ** audio is prepared as { L0, R0, L1, R1, . . . LN, RN }
  85:../../../libDaisy/src/hid/audio.h ****     */
  86:../../../libDaisy/src/hid/audio.h ****     typedef float* InterleavingOutputBuffer;
  87:../../../libDaisy/src/hid/audio.h **** 
  88:../../../libDaisy/src/hid/audio.h ****     /** Interleaving Audio Callback 
  89:../../../libDaisy/src/hid/audio.h ****      * Interleaving audio callbacks in daisy must be of this type
  90:../../../libDaisy/src/hid/audio.h ****      */
  91:../../../libDaisy/src/hid/audio.h ****     typedef void (*InterleavingAudioCallback)(InterleavingInputBuffer  in,
  92:../../../libDaisy/src/hid/audio.h ****                                               InterleavingOutputBuffer out,
  93:../../../libDaisy/src/hid/audio.h ****                                               size_t                   size);
  94:../../../libDaisy/src/hid/audio.h **** 
  95:../../../libDaisy/src/hid/audio.h ****     AudioHandle() : pimpl_(nullptr) {}
  96:../../../libDaisy/src/hid/audio.h ****     ~AudioHandle() {}
  56              		.loc 5 96 5 is_stmt 1 view .LVU7
  57              		.loc 5 96 5 is_stmt 0 view .LVU8
  58              	.LBE207:
  59              		.loc 1 22 19 view .LVU9
  60 0000 7047     		bx	lr
  61              		.cfi_endproc
  62              	.LFE2529:
  64              		.weak	_ZN5daisy9DaisySeedD1Ev
  65              		.thumb_set _ZN5daisy9DaisySeedD1Ev,_ZN5daisy9DaisySeedD2Ev
  66 0002 00BF     		.section	.text._ZN7daisysp10OscillatorD2Ev,"axG",%progbits,_ZN7daisysp10OscillatorD5Ev,comdat
  67              		.align	1
  68              		.p2align 2,,3
  69              		.weak	_ZN7daisysp10OscillatorD2Ev
  70              		.syntax unified
ARM GAS  /var/folders/yw/6_x9gyn52jjg4jtn_wsryx_80000gp/T//ccNwO1Mk.s 			page 8


  71              		.thumb
  72              		.thumb_func
  74              	_ZN7daisysp10OscillatorD2Ev:
  75              	.LVL1:
  76              	.LFB4219:
  77              		.file 6 "../../../DaisySP/Source/Synthesis/oscillator.h"
   1:../../../DaisySP/Source/Synthesis/oscillator.h **** #pragma once
   2:../../../DaisySP/Source/Synthesis/oscillator.h **** #ifndef DSY_OSCILLATOR_H
   3:../../../DaisySP/Source/Synthesis/oscillator.h **** #define DSY_OSCILLATOR_H
   4:../../../DaisySP/Source/Synthesis/oscillator.h **** #include <stdint.h>
   5:../../../DaisySP/Source/Synthesis/oscillator.h **** #include "Utility/dsp.h"
   6:../../../DaisySP/Source/Synthesis/oscillator.h **** #ifdef __cplusplus
   7:../../../DaisySP/Source/Synthesis/oscillator.h **** 
   8:../../../DaisySP/Source/Synthesis/oscillator.h **** namespace daisysp
   9:../../../DaisySP/Source/Synthesis/oscillator.h **** {
  10:../../../DaisySP/Source/Synthesis/oscillator.h **** /** Synthesis of several waveforms, including polyBLEP bandlimited waveforms.
  11:../../../DaisySP/Source/Synthesis/oscillator.h **** */
  12:../../../DaisySP/Source/Synthesis/oscillator.h **** class Oscillator
  13:../../../DaisySP/Source/Synthesis/oscillator.h **** {
  14:../../../DaisySP/Source/Synthesis/oscillator.h ****   public:
  15:../../../DaisySP/Source/Synthesis/oscillator.h ****     Oscillator() {}
  16:../../../DaisySP/Source/Synthesis/oscillator.h ****     ~Oscillator() {}
  78              		.loc 6 16 5 is_stmt 1 view -0
  79              		.cfi_startproc
  80              		@ args = 0, pretend = 0, frame = 0
  81              		@ frame_needed = 0, uses_anonymous_args = 0
  82              		@ link register save eliminated.
  83              		.loc 6 16 20 is_stmt 0 view .LVU11
  84 0000 7047     		bx	lr
  85              		.cfi_endproc
  86              	.LFE4219:
  88              		.weak	_ZN7daisysp10OscillatorD1Ev
  89              		.thumb_set _ZN7daisysp10OscillatorD1Ev,_ZN7daisysp10OscillatorD2Ev
  90 0002 00BF     		.section	.text._Z13AudioCallbackPKPKfPPfj,"ax",%progbits
  91              		.align	1
  92              		.p2align 2,,3
  93              		.global	_Z13AudioCallbackPKPKfPPfj
  94              		.syntax unified
  95              		.thumb
  96              		.thumb_func
  98              	_Z13AudioCallbackPKPKfPPfj:
  99              	.LVL2:
 100              	.LFB4789:
 101              		.file 7 "mpr121Test.cpp"
   1:mpr121Test.cpp **** #include "daisy_seed.h"
   2:mpr121Test.cpp **** #include "daisysp.h"
   3:mpr121Test.cpp **** #include "mpr121.h"
   4:mpr121Test.cpp **** 
   5:mpr121Test.cpp **** using namespace daisy;
   6:mpr121Test.cpp **** using namespace daisysp;
   7:mpr121Test.cpp **** 
   8:mpr121Test.cpp **** // Define the frequencies for twelve keys chromatically
   9:mpr121Test.cpp **** double scale[] = {
  10:mpr121Test.cpp ****     261.63, // C
  11:mpr121Test.cpp ****     277.18, // C#
  12:mpr121Test.cpp ****     293.66, // D
  13:mpr121Test.cpp ****     311.13, // D#
ARM GAS  /var/folders/yw/6_x9gyn52jjg4jtn_wsryx_80000gp/T//ccNwO1Mk.s 			page 9


  14:mpr121Test.cpp ****     329.63, // E
  15:mpr121Test.cpp ****     349.23, // F
  16:mpr121Test.cpp ****     369.99, // F#
  17:mpr121Test.cpp ****     392.00, // G
  18:mpr121Test.cpp ****     415.30, // G#
  19:mpr121Test.cpp ****     440.00, // A
  20:mpr121Test.cpp ****     466.16, // A#
  21:mpr121Test.cpp ****     493.88  // B
  22:mpr121Test.cpp **** };
  23:mpr121Test.cpp **** 
  24:mpr121Test.cpp **** DaisySeed hw;
  25:mpr121Test.cpp **** Mpr121I2C mpr121;
  26:mpr121Test.cpp **** Oscillator osc;
  27:mpr121Test.cpp **** 
  28:mpr121Test.cpp **** void AudioCallback(AudioHandle::InputBuffer in, AudioHandle::OutputBuffer out, size_t size)
  29:mpr121Test.cpp **** {
 102              		.loc 7 29 1 is_stmt 1 view -0
 103              		.cfi_startproc
 104              		@ args = 0, pretend = 0, frame = 0
 105              		@ frame_needed = 0, uses_anonymous_args = 0
 106              		@ link register save eliminated.
  30:mpr121Test.cpp **** 	for (size_t i = 0; i < size; i++)
 107              		.loc 7 30 2 view .LVU13
 108              	.LBB208:
 109              		.loc 7 30 23 view .LVU14
 110 0000 9AB1     		cbz	r2, .L12
 111 0002 0368     		ldr	r3, [r0]
 112 0004 4068     		ldr	r0, [r0, #4]
 113              	.LVL3:
 114              		.loc 7 30 23 is_stmt 0 view .LVU15
 115 0006 03EB820C 		add	ip, r3, r2, lsl #2
 116              	.LBE208:
  29:mpr121Test.cpp **** 	for (size_t i = 0; i < size; i++)
 117              		.loc 7 29 1 view .LVU16
 118 000a 10B4     		push	{r4}
 119              		.cfi_def_cfa_offset 4
 120              		.cfi_offset 4, -4
 121 000c 0C68     		ldr	r4, [r1]
 122 000e 4968     		ldr	r1, [r1, #4]
 123              	.LVL4:
 124              	.L6:
 125              	.LBB209:
  31:mpr121Test.cpp **** 	{
  32:mpr121Test.cpp **** 		out[0][i] = in[0][i];
 126              		.loc 7 32 3 is_stmt 1 discriminator 2 view .LVU17
 127              		.loc 7 32 22 is_stmt 0 discriminator 2 view .LVU18
 128 0010 53F8042B 		ldr	r2, [r3], #4	@ float
 129              		.loc 7 32 13 discriminator 2 view .LVU19
 130 0014 44F8042B 		str	r2, [r4], #4	@ float
  33:mpr121Test.cpp **** 		out[1][i] = in[1][i];
 131              		.loc 7 33 3 is_stmt 1 discriminator 2 view .LVU20
  30:mpr121Test.cpp **** 	{
 132              		.loc 7 30 23 is_stmt 0 discriminator 2 view .LVU21
 133 0018 6345     		cmp	r3, ip
 134              		.loc 7 33 22 discriminator 2 view .LVU22
 135 001a 50F8042B 		ldr	r2, [r0], #4	@ float
 136              		.loc 7 33 13 discriminator 2 view .LVU23
ARM GAS  /var/folders/yw/6_x9gyn52jjg4jtn_wsryx_80000gp/T//ccNwO1Mk.s 			page 10


 137 001e 41F8042B 		str	r2, [r1], #4	@ float
  30:mpr121Test.cpp **** 	{
 138              		.loc 7 30 2 is_stmt 1 discriminator 2 view .LVU24
  30:mpr121Test.cpp **** 	{
 139              		.loc 7 30 23 discriminator 2 view .LVU25
 140 0022 F5D1     		bne	.L6
 141              	.LBE209:
  34:mpr121Test.cpp **** 	}
  35:mpr121Test.cpp **** }
 142              		.loc 7 35 1 is_stmt 0 view .LVU26
 143 0024 5DF8044B 		ldr	r4, [sp], #4
 144              		.cfi_restore 4
 145              		.cfi_def_cfa_offset 0
 146 0028 7047     		bx	lr
 147              	.LVL5:
 148              	.L12:
 149              		.loc 7 35 1 view .LVU27
 150 002a 7047     		bx	lr
 151              		.cfi_endproc
 152              	.LFE4789:
 154              		.section	.text._ZN5daisy6Mpr121INS_18Mpr121I2CTransportEED2Ev,"axG",%progbits,_ZN5daisy6Mpr121INS_
 155              		.align	1
 156              		.p2align 2,,3
 157              		.weak	_ZN5daisy6Mpr121INS_18Mpr121I2CTransportEED2Ev
 158              		.syntax unified
 159              		.thumb
 160              		.thumb_func
 162              	_ZN5daisy6Mpr121INS_18Mpr121I2CTransportEED2Ev:
 163              	.LVL6:
 164              	.LFB5365:
 165              		.file 8 "../../../libDaisy/src/dev/mpr121.h"
   1:../../../libDaisy/src/dev/mpr121.h **** #pragma once
   2:../../../libDaisy/src/dev/mpr121.h **** #ifndef DSY_MPR121_H
   3:../../../libDaisy/src/dev/mpr121.h **** #define DSY_MPR121_H
   4:../../../libDaisy/src/dev/mpr121.h **** 
   5:../../../libDaisy/src/dev/mpr121.h **** // The default I2C address
   6:../../../libDaisy/src/dev/mpr121.h **** #define MPR121_I2CADDR_DEFAULT 0x5A        ///< default I2C address
   7:../../../libDaisy/src/dev/mpr121.h **** #define MPR121_TOUCH_THRESHOLD_DEFAULT 12  ///< default touch threshold value
   8:../../../libDaisy/src/dev/mpr121.h **** #define MPR121_RELEASE_THRESHOLD_DEFAULT 6 ///< default relese threshold value
   9:../../../libDaisy/src/dev/mpr121.h **** 
  10:../../../libDaisy/src/dev/mpr121.h **** namespace daisy
  11:../../../libDaisy/src/dev/mpr121.h **** {
  12:../../../libDaisy/src/dev/mpr121.h **** /** @addtogroup external 
  13:../../../libDaisy/src/dev/mpr121.h ****     @{ 
  14:../../../libDaisy/src/dev/mpr121.h **** */
  15:../../../libDaisy/src/dev/mpr121.h **** 
  16:../../../libDaisy/src/dev/mpr121.h **** /** I2C Transport for MPR121 */
  17:../../../libDaisy/src/dev/mpr121.h **** class Mpr121I2CTransport
  18:../../../libDaisy/src/dev/mpr121.h **** {
  19:../../../libDaisy/src/dev/mpr121.h ****   public:
  20:../../../libDaisy/src/dev/mpr121.h ****     Mpr121I2CTransport() {}
  21:../../../libDaisy/src/dev/mpr121.h ****     ~Mpr121I2CTransport() {}
  22:../../../libDaisy/src/dev/mpr121.h **** 
  23:../../../libDaisy/src/dev/mpr121.h ****     struct Config
  24:../../../libDaisy/src/dev/mpr121.h ****     {
  25:../../../libDaisy/src/dev/mpr121.h ****         I2CHandle::Config::Peripheral periph;
  26:../../../libDaisy/src/dev/mpr121.h ****         I2CHandle::Config::Speed      speed;
ARM GAS  /var/folders/yw/6_x9gyn52jjg4jtn_wsryx_80000gp/T//ccNwO1Mk.s 			page 11


  27:../../../libDaisy/src/dev/mpr121.h ****         Pin                           scl;
  28:../../../libDaisy/src/dev/mpr121.h ****         Pin                           sda;
  29:../../../libDaisy/src/dev/mpr121.h **** 
  30:../../../libDaisy/src/dev/mpr121.h ****         I2CHandle::Config::Mode mode;
  31:../../../libDaisy/src/dev/mpr121.h **** 
  32:../../../libDaisy/src/dev/mpr121.h ****         uint8_t dev_addr;
  33:../../../libDaisy/src/dev/mpr121.h **** 
  34:../../../libDaisy/src/dev/mpr121.h ****         Config()
  35:../../../libDaisy/src/dev/mpr121.h ****         {
  36:../../../libDaisy/src/dev/mpr121.h ****             periph = I2CHandle::Config::Peripheral::I2C_1;
  37:../../../libDaisy/src/dev/mpr121.h ****             speed  = I2CHandle::Config::Speed::I2C_400KHZ;
  38:../../../libDaisy/src/dev/mpr121.h **** 
  39:../../../libDaisy/src/dev/mpr121.h ****             scl = Pin(PORTB, 8);
  40:../../../libDaisy/src/dev/mpr121.h ****             sda = Pin(PORTB, 9);
  41:../../../libDaisy/src/dev/mpr121.h **** 
  42:../../../libDaisy/src/dev/mpr121.h ****             dev_addr = MPR121_I2CADDR_DEFAULT;
  43:../../../libDaisy/src/dev/mpr121.h ****         }
  44:../../../libDaisy/src/dev/mpr121.h ****     };
  45:../../../libDaisy/src/dev/mpr121.h **** 
  46:../../../libDaisy/src/dev/mpr121.h ****     /** \return Did the transaction error? i.e. Return true if error, false if ok */
  47:../../../libDaisy/src/dev/mpr121.h ****     inline bool Init(Config config)
  48:../../../libDaisy/src/dev/mpr121.h ****     {
  49:../../../libDaisy/src/dev/mpr121.h ****         config_ = config;
  50:../../../libDaisy/src/dev/mpr121.h **** 
  51:../../../libDaisy/src/dev/mpr121.h ****         I2CHandle::Config i2c_conf;
  52:../../../libDaisy/src/dev/mpr121.h ****         i2c_conf.mode   = I2CHandle::Config::Mode::I2C_MASTER;
  53:../../../libDaisy/src/dev/mpr121.h ****         i2c_conf.periph = config.periph;
  54:../../../libDaisy/src/dev/mpr121.h ****         i2c_conf.speed  = config.speed;
  55:../../../libDaisy/src/dev/mpr121.h **** 
  56:../../../libDaisy/src/dev/mpr121.h ****         i2c_conf.pin_config.scl = config.scl;
  57:../../../libDaisy/src/dev/mpr121.h ****         i2c_conf.pin_config.sda = config.sda;
  58:../../../libDaisy/src/dev/mpr121.h **** 
  59:../../../libDaisy/src/dev/mpr121.h ****         return I2CHandle::Result::OK != i2c_.Init(i2c_conf);
  60:../../../libDaisy/src/dev/mpr121.h ****     }
  61:../../../libDaisy/src/dev/mpr121.h **** 
  62:../../../libDaisy/src/dev/mpr121.h ****     /** \return Did the transaction error? i.e. Return true if error, false if ok */
  63:../../../libDaisy/src/dev/mpr121.h ****     bool Write(uint8_t *data, uint16_t size)
  64:../../../libDaisy/src/dev/mpr121.h ****     {
  65:../../../libDaisy/src/dev/mpr121.h ****         return I2CHandle::Result::OK
  66:../../../libDaisy/src/dev/mpr121.h ****                != i2c_.TransmitBlocking(config_.dev_addr, data, size, 10);
  67:../../../libDaisy/src/dev/mpr121.h ****     }
  68:../../../libDaisy/src/dev/mpr121.h **** 
  69:../../../libDaisy/src/dev/mpr121.h ****     /** \return Did the transaction error? i.e. Return true if error, false if ok */
  70:../../../libDaisy/src/dev/mpr121.h ****     bool Read(uint8_t *data, uint16_t size)
  71:../../../libDaisy/src/dev/mpr121.h ****     {
  72:../../../libDaisy/src/dev/mpr121.h ****         return I2CHandle::Result::OK
  73:../../../libDaisy/src/dev/mpr121.h ****                != i2c_.ReceiveBlocking(config_.dev_addr, data, size, 10);
  74:../../../libDaisy/src/dev/mpr121.h ****     }
  75:../../../libDaisy/src/dev/mpr121.h **** 
  76:../../../libDaisy/src/dev/mpr121.h ****   private:
  77:../../../libDaisy/src/dev/mpr121.h ****     I2CHandle i2c_;
  78:../../../libDaisy/src/dev/mpr121.h ****     Config    config_;
  79:../../../libDaisy/src/dev/mpr121.h **** };
  80:../../../libDaisy/src/dev/mpr121.h **** 
  81:../../../libDaisy/src/dev/mpr121.h **** 
  82:../../../libDaisy/src/dev/mpr121.h **** /** @brief Device support for MPR121 12x Capacitive Touch Sensor
  83:../../../libDaisy/src/dev/mpr121.h ****     @author beserge
ARM GAS  /var/folders/yw/6_x9gyn52jjg4jtn_wsryx_80000gp/T//ccNwO1Mk.s 			page 12


  84:../../../libDaisy/src/dev/mpr121.h ****     @date December 2021
  85:../../../libDaisy/src/dev/mpr121.h **** */
  86:../../../libDaisy/src/dev/mpr121.h **** template <typename Transport>
  87:../../../libDaisy/src/dev/mpr121.h **** class Mpr121
  88:../../../libDaisy/src/dev/mpr121.h **** {
  89:../../../libDaisy/src/dev/mpr121.h ****   public:
  90:../../../libDaisy/src/dev/mpr121.h ****     Mpr121() {}
  91:../../../libDaisy/src/dev/mpr121.h ****     ~Mpr121() {}
 166              		.loc 8 91 5 is_stmt 1 view -0
 167              		.cfi_startproc
 168              		@ args = 0, pretend = 0, frame = 0
 169              		@ frame_needed = 0, uses_anonymous_args = 0
 170              		@ link register save eliminated.
 171              	.LBB210:
 172              	.LBI210:
  21:../../../libDaisy/src/dev/mpr121.h **** 
 173              		.loc 8 21 5 view .LVU29
  21:../../../libDaisy/src/dev/mpr121.h **** 
 174              		.loc 8 21 5 is_stmt 0 view .LVU30
 175              	.LBE210:
 176              		.loc 8 91 16 view .LVU31
 177 0000 7047     		bx	lr
 178              		.cfi_endproc
 179              	.LFE5365:
 181              		.weak	_ZN5daisy6Mpr121INS_18Mpr121I2CTransportEED1Ev
 182              		.thumb_set _ZN5daisy6Mpr121INS_18Mpr121I2CTransportEED1Ev,_ZN5daisy6Mpr121INS_18Mpr121I2CTransport
 183 0002 00BF     		.section	.text._ZN5daisy6Mpr121INS_18Mpr121I2CTransportEE13WriteRegisterEhh,"axG",%progbits,_ZN5da
 184              		.align	1
 185              		.p2align 2,,3
 186              		.weak	_ZN5daisy6Mpr121INS_18Mpr121I2CTransportEE13WriteRegisterEhh
 187              		.syntax unified
 188              		.thumb
 189              		.thumb_func
 191              	_ZN5daisy6Mpr121INS_18Mpr121I2CTransportEE13WriteRegisterEhh:
 192              	.LVL7:
 193              	.LFB5222:
  92:../../../libDaisy/src/dev/mpr121.h **** 
  93:../../../libDaisy/src/dev/mpr121.h ****     struct Config
  94:../../../libDaisy/src/dev/mpr121.h ****     {
  95:../../../libDaisy/src/dev/mpr121.h ****         typename Transport::Config transport_config;
  96:../../../libDaisy/src/dev/mpr121.h ****         uint8_t                    touch_threshold;
  97:../../../libDaisy/src/dev/mpr121.h ****         uint8_t                    release_threshold;
  98:../../../libDaisy/src/dev/mpr121.h **** 
  99:../../../libDaisy/src/dev/mpr121.h ****         Config()
 100:../../../libDaisy/src/dev/mpr121.h ****         {
 101:../../../libDaisy/src/dev/mpr121.h ****             touch_threshold   = MPR121_TOUCH_THRESHOLD_DEFAULT;
 102:../../../libDaisy/src/dev/mpr121.h ****             release_threshold = MPR121_RELEASE_THRESHOLD_DEFAULT;
 103:../../../libDaisy/src/dev/mpr121.h ****         }
 104:../../../libDaisy/src/dev/mpr121.h ****     };
 105:../../../libDaisy/src/dev/mpr121.h **** 
 106:../../../libDaisy/src/dev/mpr121.h ****     enum Result
 107:../../../libDaisy/src/dev/mpr121.h ****     {
 108:../../../libDaisy/src/dev/mpr121.h ****         OK = 0,
 109:../../../libDaisy/src/dev/mpr121.h ****         ERR
 110:../../../libDaisy/src/dev/mpr121.h ****     };
 111:../../../libDaisy/src/dev/mpr121.h **** 
 112:../../../libDaisy/src/dev/mpr121.h ****     /** Initialize the MPR121 device
ARM GAS  /var/folders/yw/6_x9gyn52jjg4jtn_wsryx_80000gp/T//ccNwO1Mk.s 			page 13


 113:../../../libDaisy/src/dev/mpr121.h ****         \param config Configuration settings
 114:../../../libDaisy/src/dev/mpr121.h ****     */
 115:../../../libDaisy/src/dev/mpr121.h ****     Result Init(Config config)
 116:../../../libDaisy/src/dev/mpr121.h ****     {
 117:../../../libDaisy/src/dev/mpr121.h ****         config_ = config;
 118:../../../libDaisy/src/dev/mpr121.h **** 
 119:../../../libDaisy/src/dev/mpr121.h ****         SetTransportErr(transport_.Init(config_.transport_config));
 120:../../../libDaisy/src/dev/mpr121.h **** 
 121:../../../libDaisy/src/dev/mpr121.h ****         // soft reset
 122:../../../libDaisy/src/dev/mpr121.h ****         WriteRegister(MPR121_SOFTRESET, 0x63);
 123:../../../libDaisy/src/dev/mpr121.h ****         System::Delay(1);
 124:../../../libDaisy/src/dev/mpr121.h **** 
 125:../../../libDaisy/src/dev/mpr121.h ****         WriteRegister(MPR121_ECR, 0x0);
 126:../../../libDaisy/src/dev/mpr121.h **** 
 127:../../../libDaisy/src/dev/mpr121.h ****         // this doesn't work for some reason...
 128:../../../libDaisy/src/dev/mpr121.h ****         // uint8_t c = ReadRegister8(MPR121_CONFIG2);
 129:../../../libDaisy/src/dev/mpr121.h **** 
 130:../../../libDaisy/src/dev/mpr121.h ****         // if(c != 0x24)
 131:../../../libDaisy/src/dev/mpr121.h ****         //     return ERR;
 132:../../../libDaisy/src/dev/mpr121.h **** 
 133:../../../libDaisy/src/dev/mpr121.h ****         SetThresholds(config_.touch_threshold, config_.release_threshold);
 134:../../../libDaisy/src/dev/mpr121.h ****         WriteRegister(MPR121_MHDR, 0x01);
 135:../../../libDaisy/src/dev/mpr121.h ****         WriteRegister(MPR121_NHDR, 0x01);
 136:../../../libDaisy/src/dev/mpr121.h ****         WriteRegister(MPR121_NCLR, 0x0E);
 137:../../../libDaisy/src/dev/mpr121.h ****         WriteRegister(MPR121_FDLR, 0x00);
 138:../../../libDaisy/src/dev/mpr121.h **** 
 139:../../../libDaisy/src/dev/mpr121.h ****         WriteRegister(MPR121_MHDF, 0x01);
 140:../../../libDaisy/src/dev/mpr121.h ****         WriteRegister(MPR121_NHDF, 0x05);
 141:../../../libDaisy/src/dev/mpr121.h ****         WriteRegister(MPR121_NCLF, 0x01);
 142:../../../libDaisy/src/dev/mpr121.h ****         WriteRegister(MPR121_FDLF, 0x00);
 143:../../../libDaisy/src/dev/mpr121.h **** 
 144:../../../libDaisy/src/dev/mpr121.h ****         WriteRegister(MPR121_NHDT, 0x00);
 145:../../../libDaisy/src/dev/mpr121.h ****         WriteRegister(MPR121_NCLT, 0x00);
 146:../../../libDaisy/src/dev/mpr121.h ****         WriteRegister(MPR121_FDLT, 0x00);
 147:../../../libDaisy/src/dev/mpr121.h **** 
 148:../../../libDaisy/src/dev/mpr121.h ****         WriteRegister(MPR121_DEBOUNCE, 0);
 149:../../../libDaisy/src/dev/mpr121.h ****         WriteRegister(MPR121_CONFIG1, 0x10); // default, 16uA charge current
 150:../../../libDaisy/src/dev/mpr121.h ****         WriteRegister(MPR121_CONFIG2, 0x20); // 0.5uS encoding, 1ms period
 151:../../../libDaisy/src/dev/mpr121.h **** 
 152:../../../libDaisy/src/dev/mpr121.h ****         // autoconfig
 153:../../../libDaisy/src/dev/mpr121.h ****         // WriteRegister(MPR121_AUTOCONFIG0, 0x0B);
 154:../../../libDaisy/src/dev/mpr121.h **** 
 155:../../../libDaisy/src/dev/mpr121.h ****         // correct values for Vdd = 3.3V
 156:../../../libDaisy/src/dev/mpr121.h ****         // WriteRegister(MPR121_UPLIMIT, 200);     // ((Vdd - 0.7)/Vdd) * 256
 157:../../../libDaisy/src/dev/mpr121.h ****         // WriteRegister(MPR121_TARGETLIMIT, 180); // UPLIMIT * 0.9
 158:../../../libDaisy/src/dev/mpr121.h ****         // WriteRegister(MPR121_LOWLIMIT, 130);    // UPLIMIT * 0.65
 159:../../../libDaisy/src/dev/mpr121.h ****         // autoconfig
 160:../../../libDaisy/src/dev/mpr121.h **** 
 161:../../../libDaisy/src/dev/mpr121.h ****         // enable X electrodes and start MPR121
 162:../../../libDaisy/src/dev/mpr121.h ****         uint8_t ECR_SETTING
 163:../../../libDaisy/src/dev/mpr121.h ****             = 0x80
 164:../../../libDaisy/src/dev/mpr121.h ****               + 12; // 5 bits for baseline tracking & proximity disabled + X
 165:../../../libDaisy/src/dev/mpr121.h ****                     // amount of electrodes running (12)
 166:../../../libDaisy/src/dev/mpr121.h ****         WriteRegister(MPR121_ECR,
 167:../../../libDaisy/src/dev/mpr121.h ****                       ECR_SETTING); // start with above ECR setting
 168:../../../libDaisy/src/dev/mpr121.h **** 
 169:../../../libDaisy/src/dev/mpr121.h ****         return GetTransportErr();
ARM GAS  /var/folders/yw/6_x9gyn52jjg4jtn_wsryx_80000gp/T//ccNwO1Mk.s 			page 14


 170:../../../libDaisy/src/dev/mpr121.h ****     }
 171:../../../libDaisy/src/dev/mpr121.h **** 
 172:../../../libDaisy/src/dev/mpr121.h ****     /** Set the touch and release thresholds for all 13 channels on the
 173:../../../libDaisy/src/dev/mpr121.h ****         device to the passed values.
 174:../../../libDaisy/src/dev/mpr121.h ****         \param      touch The touch threshold value from 0 to 255.
 175:../../../libDaisy/src/dev/mpr121.h ****         \param      release The release threshold from 0 to 255.
 176:../../../libDaisy/src/dev/mpr121.h ****     */
 177:../../../libDaisy/src/dev/mpr121.h ****     void SetThresholds(uint8_t touch, uint8_t release)
 178:../../../libDaisy/src/dev/mpr121.h ****     {
 179:../../../libDaisy/src/dev/mpr121.h ****         // set all thresholds (the same)
 180:../../../libDaisy/src/dev/mpr121.h ****         for(uint8_t i = 0; i < 12; i++)
 181:../../../libDaisy/src/dev/mpr121.h ****         {
 182:../../../libDaisy/src/dev/mpr121.h ****             WriteRegister(MPR121_TOUCHTH_0 + 2 * i, touch);
 183:../../../libDaisy/src/dev/mpr121.h ****             WriteRegister(MPR121_RELEASETH_0 + 2 * i, release);
 184:../../../libDaisy/src/dev/mpr121.h ****         }
 185:../../../libDaisy/src/dev/mpr121.h ****     }
 186:../../../libDaisy/src/dev/mpr121.h **** 
 187:../../../libDaisy/src/dev/mpr121.h **** 
 188:../../../libDaisy/src/dev/mpr121.h ****     /** Read the filtered data from channel t. The ADC raw data outputs
 189:../../../libDaisy/src/dev/mpr121.h ****         run through 3 levels of digital filtering to filter out the high
 190:../../../libDaisy/src/dev/mpr121.h ****         frequency and low frequency noise encountered. For detailed information on
 191:../../../libDaisy/src/dev/mpr121.h ****         this filtering see page 6 of the device datasheet.
 192:../../../libDaisy/src/dev/mpr121.h ****         \param      t the channel to read
 193:../../../libDaisy/src/dev/mpr121.h ****         \returns    the filtered reading as a 10 bit unsigned value
 194:../../../libDaisy/src/dev/mpr121.h ****     */
 195:../../../libDaisy/src/dev/mpr121.h ****     uint16_t FilteredData(uint8_t t)
 196:../../../libDaisy/src/dev/mpr121.h ****     {
 197:../../../libDaisy/src/dev/mpr121.h ****         if(t > 12)
 198:../../../libDaisy/src/dev/mpr121.h ****             return 0;
 199:../../../libDaisy/src/dev/mpr121.h ****         return ReadRegister16(MPR121_FILTDATA_0L + t * 2);
 200:../../../libDaisy/src/dev/mpr121.h ****     }
 201:../../../libDaisy/src/dev/mpr121.h **** 
 202:../../../libDaisy/src/dev/mpr121.h ****     /** Read the baseline value for the channel. The 3rd level filtered
 203:../../../libDaisy/src/dev/mpr121.h ****         result is internally 10bit but only high 8 bits are readable
 204:../../../libDaisy/src/dev/mpr121.h ****         from registers 0x1E~0x2A as the baseline value output for each channel.
 205:../../../libDaisy/src/dev/mpr121.h ****         \param      t the channel to read.
 206:../../../libDaisy/src/dev/mpr121.h ****         \returns    the baseline data that was read
 207:../../../libDaisy/src/dev/mpr121.h ****     */
 208:../../../libDaisy/src/dev/mpr121.h ****     uint16_t BaselineData(uint8_t t)
 209:../../../libDaisy/src/dev/mpr121.h ****     {
 210:../../../libDaisy/src/dev/mpr121.h ****         if(t > 12)
 211:../../../libDaisy/src/dev/mpr121.h ****             return 0;
 212:../../../libDaisy/src/dev/mpr121.h ****         uint16_t bl = ReadRegister8(MPR121_BASELINE_0 + t);
 213:../../../libDaisy/src/dev/mpr121.h ****         return (bl << 2);
 214:../../../libDaisy/src/dev/mpr121.h ****     }
 215:../../../libDaisy/src/dev/mpr121.h **** 
 216:../../../libDaisy/src/dev/mpr121.h ****     /** Read the touch status of all 13 channels as bit values in a 12 bit integer.
 217:../../../libDaisy/src/dev/mpr121.h ****         \returns    a 12 bit integer with each bit corresponding to the touch status
 218:../../../libDaisy/src/dev/mpr121.h ****         of a sensor. For example, if bit 0 is set then channel 0 of the
 219:../../../libDaisy/src/dev/mpr121.h ****         device is currently deemed to be touched.
 220:../../../libDaisy/src/dev/mpr121.h ****     */
 221:../../../libDaisy/src/dev/mpr121.h ****     uint16_t Touched()
 222:../../../libDaisy/src/dev/mpr121.h ****     {
 223:../../../libDaisy/src/dev/mpr121.h ****         uint16_t t = ReadRegister16(MPR121_TOUCHSTATUS_L);
 224:../../../libDaisy/src/dev/mpr121.h ****         return t & 0x0FFF;
 225:../../../libDaisy/src/dev/mpr121.h ****     }
 226:../../../libDaisy/src/dev/mpr121.h **** 
ARM GAS  /var/folders/yw/6_x9gyn52jjg4jtn_wsryx_80000gp/T//ccNwO1Mk.s 			page 15


 227:../../../libDaisy/src/dev/mpr121.h ****     /** Read the contents of an 8 bit device register.
 228:../../../libDaisy/src/dev/mpr121.h ****         \param      reg the register address to read from
 229:../../../libDaisy/src/dev/mpr121.h ****         \returns    the 8 bit value that was read.
 230:../../../libDaisy/src/dev/mpr121.h ****     */
 231:../../../libDaisy/src/dev/mpr121.h ****     uint8_t ReadRegister8(uint8_t reg)
 232:../../../libDaisy/src/dev/mpr121.h ****     {
 233:../../../libDaisy/src/dev/mpr121.h ****         uint8_t buff;
 234:../../../libDaisy/src/dev/mpr121.h ****         SetTransportErr(transport_.Write(&reg, 1));
 235:../../../libDaisy/src/dev/mpr121.h ****         SetTransportErr(transport_.Read(&buff, 1));
 236:../../../libDaisy/src/dev/mpr121.h **** 
 237:../../../libDaisy/src/dev/mpr121.h ****         return buff;
 238:../../../libDaisy/src/dev/mpr121.h ****     }
 239:../../../libDaisy/src/dev/mpr121.h **** 
 240:../../../libDaisy/src/dev/mpr121.h ****     /** Read the contents of a 16 bit device register.
 241:../../../libDaisy/src/dev/mpr121.h ****         \param      reg the register address to read from
 242:../../../libDaisy/src/dev/mpr121.h ****         \returns    the 16 bit value that was read.
 243:../../../libDaisy/src/dev/mpr121.h ****     */
 244:../../../libDaisy/src/dev/mpr121.h ****     uint16_t ReadRegister16(uint8_t reg)
 245:../../../libDaisy/src/dev/mpr121.h ****     {
 246:../../../libDaisy/src/dev/mpr121.h ****         uint16_t buff;
 247:../../../libDaisy/src/dev/mpr121.h ****         SetTransportErr(transport_.Write(&reg, 1));
 248:../../../libDaisy/src/dev/mpr121.h ****         SetTransportErr(transport_.Read((uint8_t *)&buff, 2));
 249:../../../libDaisy/src/dev/mpr121.h **** 
 250:../../../libDaisy/src/dev/mpr121.h ****         return buff;
 251:../../../libDaisy/src/dev/mpr121.h ****     }
 252:../../../libDaisy/src/dev/mpr121.h **** 
 253:../../../libDaisy/src/dev/mpr121.h ****     /** Writes 8-bits to the specified destination register
 254:../../../libDaisy/src/dev/mpr121.h ****         \param  reg the register address to write to
 255:../../../libDaisy/src/dev/mpr121.h ****         \param  value the value to write
 256:../../../libDaisy/src/dev/mpr121.h ****     */
 257:../../../libDaisy/src/dev/mpr121.h ****     void WriteRegister(uint8_t reg, uint8_t value)
 194              		.loc 8 257 10 is_stmt 1 view -0
 195              		.cfi_startproc
 196              		@ args = 0, pretend = 0, frame = 8
 197              		@ frame_needed = 0, uses_anonymous_args = 0
 198              		.loc 8 257 10 is_stmt 0 view .LVU33
 199 0000 2DE9F043 		push	{r4, r5, r6, r7, r8, r9, lr}
 200              		.cfi_def_cfa_offset 28
 201              		.cfi_offset 4, -28
 202              		.cfi_offset 5, -24
 203              		.cfi_offset 6, -20
 204              		.cfi_offset 7, -16
 205              		.cfi_offset 8, -12
 206              		.cfi_offset 9, -8
 207              		.cfi_offset 14, -4
 258:../../../libDaisy/src/dev/mpr121.h ****     {
 259:../../../libDaisy/src/dev/mpr121.h ****         // MPR121 must be put in Stop Mode to write to most registers
 260:../../../libDaisy/src/dev/mpr121.h ****         bool stop_required = true;
 261:../../../libDaisy/src/dev/mpr121.h **** 
 262:../../../libDaisy/src/dev/mpr121.h ****         // first get the current set value of the MPR121_ECR register
 263:../../../libDaisy/src/dev/mpr121.h ****         uint8_t ecr_reg = MPR121_ECR;
 264:../../../libDaisy/src/dev/mpr121.h ****         uint8_t buff[2] = {ecr_reg, 0x00};
 208              		.loc 8 264 17 view .LVU34
 209 0004 0023     		movs	r3, #0
 257:../../../libDaisy/src/dev/mpr121.h ****     {
 210              		.loc 8 257 10 view .LVU35
 211 0006 85B0     		sub	sp, sp, #20
ARM GAS  /var/folders/yw/6_x9gyn52jjg4jtn_wsryx_80000gp/T//ccNwO1Mk.s 			page 16


 212              		.cfi_def_cfa_offset 48
 213              	.LBB241:
 214              	.LBB242:
  66:../../../libDaisy/src/dev/mpr121.h ****     }
 215              		.loc 8 66 40 view .LVU36
 216 0008 00F11806 		add	r6, r0, #24
 217 000c 4FF00A08 		mov	r8, #10
 218              	.LBE242:
 219              	.LBE241:
 257:../../../libDaisy/src/dev/mpr121.h ****     {
 220              		.loc 8 257 10 view .LVU37
 221 0010 0446     		mov	r4, r0
 222              		.loc 8 264 17 view .LVU38
 223 0012 4FF05E09 		mov	r9, #94
 257:../../../libDaisy/src/dev/mpr121.h ****     {
 224              		.loc 8 257 10 view .LVU39
 225 0016 0D46     		mov	r5, r1
 226              		.loc 8 264 17 view .LVU40
 227 0018 8DF80D30 		strb	r3, [sp, #13]
 228              	.LBB246:
 229              	.LBB243:
  66:../../../libDaisy/src/dev/mpr121.h ****     }
 230              		.loc 8 66 40 view .LVU41
 231 001c CDF80080 		str	r8, [sp]
 232 0020 0123     		movs	r3, #1
 233 0022 90F82C10 		ldrb	r1, [r0, #44]	@ zero_extendqisi2
 234              	.LVL8:
  66:../../../libDaisy/src/dev/mpr121.h ****     }
 235              		.loc 8 66 40 view .LVU42
 236              	.LBE243:
 237              	.LBE246:
 257:../../../libDaisy/src/dev/mpr121.h ****     {
 238              		.loc 8 257 10 view .LVU43
 239 0026 1746     		mov	r7, r2
 240              	.LBB247:
 241              	.LBB244:
  66:../../../libDaisy/src/dev/mpr121.h ****     }
 242              		.loc 8 66 40 view .LVU44
 243 0028 3046     		mov	r0, r6
 244              	.LVL9:
  66:../../../libDaisy/src/dev/mpr121.h ****     }
 245              		.loc 8 66 40 view .LVU45
 246 002a 03AA     		add	r2, sp, #12
 247              	.LVL10:
  66:../../../libDaisy/src/dev/mpr121.h ****     }
 248              		.loc 8 66 40 view .LVU46
 249              	.LBE244:
 250              	.LBE247:
 251              		.loc 8 264 17 view .LVU47
 252 002c 8DF80C90 		strb	r9, [sp, #12]
 253              	.LVL11:
 254              	.LBB248:
 255              	.LBI241:
  63:../../../libDaisy/src/dev/mpr121.h ****     {
 256              		.loc 8 63 10 is_stmt 1 view .LVU48
 257              	.LBB245:
  65:../../../libDaisy/src/dev/mpr121.h ****                != i2c_.TransmitBlocking(config_.dev_addr, data, size, 10);
ARM GAS  /var/folders/yw/6_x9gyn52jjg4jtn_wsryx_80000gp/T//ccNwO1Mk.s 			page 17


 258              		.loc 8 65 9 view .LVU49
  66:../../../libDaisy/src/dev/mpr121.h ****     }
 259              		.loc 8 66 40 is_stmt 0 view .LVU50
 260 0030 FFF7FEFF 		bl	_ZN5daisy9I2CHandle16TransmitBlockingEtPhtm
 261              	.LVL12:
  66:../../../libDaisy/src/dev/mpr121.h ****     }
 262              		.loc 8 66 40 view .LVU51
 263              	.LBE245:
 264              	.LBE248:
 265              	.LBB249:
 266              	.LBI249:
 265:../../../libDaisy/src/dev/mpr121.h **** 
 266:../../../libDaisy/src/dev/mpr121.h ****         SetTransportErr(transport_.Write(buff, 1));
 267:../../../libDaisy/src/dev/mpr121.h **** 
 268:../../../libDaisy/src/dev/mpr121.h ****         uint8_t ecr_backup;
 269:../../../libDaisy/src/dev/mpr121.h ****         SetTransportErr(transport_.Read(&ecr_backup, 1));
 270:../../../libDaisy/src/dev/mpr121.h ****         if((reg == MPR121_ECR) || ((0x73 <= reg) && (reg <= 0x7A)))
 271:../../../libDaisy/src/dev/mpr121.h ****         {
 272:../../../libDaisy/src/dev/mpr121.h ****             stop_required = false;
 273:../../../libDaisy/src/dev/mpr121.h ****         }
 274:../../../libDaisy/src/dev/mpr121.h **** 
 275:../../../libDaisy/src/dev/mpr121.h ****         if(stop_required)
 276:../../../libDaisy/src/dev/mpr121.h ****         {
 277:../../../libDaisy/src/dev/mpr121.h ****             // clear this register to set stop mode
 278:../../../libDaisy/src/dev/mpr121.h ****             SetTransportErr(transport_.Write(buff, 2));
 279:../../../libDaisy/src/dev/mpr121.h ****         }
 280:../../../libDaisy/src/dev/mpr121.h **** 
 281:../../../libDaisy/src/dev/mpr121.h ****         buff[0] = reg;
 282:../../../libDaisy/src/dev/mpr121.h ****         buff[1] = value;
 283:../../../libDaisy/src/dev/mpr121.h ****         SetTransportErr(transport_.Write(buff, 2));
 284:../../../libDaisy/src/dev/mpr121.h **** 
 285:../../../libDaisy/src/dev/mpr121.h ****         if(stop_required)
 286:../../../libDaisy/src/dev/mpr121.h ****         {
 287:../../../libDaisy/src/dev/mpr121.h ****             // write back the previous set ECR settings
 288:../../../libDaisy/src/dev/mpr121.h ****             buff[0] = ecr_reg;
 289:../../../libDaisy/src/dev/mpr121.h ****             buff[1] = ecr_backup;
 290:../../../libDaisy/src/dev/mpr121.h ****             SetTransportErr(transport_.Write(buff, 2));
 291:../../../libDaisy/src/dev/mpr121.h ****         }
 292:../../../libDaisy/src/dev/mpr121.h ****     }
 293:../../../libDaisy/src/dev/mpr121.h **** 
 294:../../../libDaisy/src/dev/mpr121.h ****     /** Device register map */
 295:../../../libDaisy/src/dev/mpr121.h ****     enum RegMap
 296:../../../libDaisy/src/dev/mpr121.h ****     {
 297:../../../libDaisy/src/dev/mpr121.h ****         MPR121_TOUCHSTATUS_L = 0x00,
 298:../../../libDaisy/src/dev/mpr121.h ****         MPR121_TOUCHSTATUS_H = 0x01,
 299:../../../libDaisy/src/dev/mpr121.h ****         MPR121_FILTDATA_0L   = 0x04,
 300:../../../libDaisy/src/dev/mpr121.h ****         MPR121_FILTDATA_0H   = 0x05,
 301:../../../libDaisy/src/dev/mpr121.h ****         MPR121_BASELINE_0    = 0x1E,
 302:../../../libDaisy/src/dev/mpr121.h ****         MPR121_MHDR          = 0x2B,
 303:../../../libDaisy/src/dev/mpr121.h ****         MPR121_NHDR          = 0x2C,
 304:../../../libDaisy/src/dev/mpr121.h ****         MPR121_NCLR          = 0x2D,
 305:../../../libDaisy/src/dev/mpr121.h ****         MPR121_FDLR          = 0x2E,
 306:../../../libDaisy/src/dev/mpr121.h ****         MPR121_MHDF          = 0x2F,
 307:../../../libDaisy/src/dev/mpr121.h ****         MPR121_NHDF          = 0x30,
 308:../../../libDaisy/src/dev/mpr121.h ****         MPR121_NCLF          = 0x31,
 309:../../../libDaisy/src/dev/mpr121.h ****         MPR121_FDLF          = 0x32,
 310:../../../libDaisy/src/dev/mpr121.h ****         MPR121_NHDT          = 0x33,
ARM GAS  /var/folders/yw/6_x9gyn52jjg4jtn_wsryx_80000gp/T//ccNwO1Mk.s 			page 18


 311:../../../libDaisy/src/dev/mpr121.h ****         MPR121_NCLT          = 0x34,
 312:../../../libDaisy/src/dev/mpr121.h ****         MPR121_FDLT          = 0x35,
 313:../../../libDaisy/src/dev/mpr121.h **** 
 314:../../../libDaisy/src/dev/mpr121.h ****         MPR121_TOUCHTH_0    = 0x41,
 315:../../../libDaisy/src/dev/mpr121.h ****         MPR121_RELEASETH_0  = 0x42,
 316:../../../libDaisy/src/dev/mpr121.h ****         MPR121_DEBOUNCE     = 0x5B,
 317:../../../libDaisy/src/dev/mpr121.h ****         MPR121_CONFIG1      = 0x5C,
 318:../../../libDaisy/src/dev/mpr121.h ****         MPR121_CONFIG2      = 0x5D,
 319:../../../libDaisy/src/dev/mpr121.h ****         MPR121_CHARGECURR_0 = 0x5F,
 320:../../../libDaisy/src/dev/mpr121.h ****         MPR121_CHARGETIME_1 = 0x6C,
 321:../../../libDaisy/src/dev/mpr121.h ****         MPR121_ECR          = 0x5E,
 322:../../../libDaisy/src/dev/mpr121.h ****         MPR121_AUTOCONFIG0  = 0x7B,
 323:../../../libDaisy/src/dev/mpr121.h ****         MPR121_AUTOCONFIG1  = 0x7C,
 324:../../../libDaisy/src/dev/mpr121.h ****         MPR121_UPLIMIT      = 0x7D,
 325:../../../libDaisy/src/dev/mpr121.h ****         MPR121_LOWLIMIT     = 0x7E,
 326:../../../libDaisy/src/dev/mpr121.h ****         MPR121_TARGETLIMIT  = 0x7F,
 327:../../../libDaisy/src/dev/mpr121.h **** 
 328:../../../libDaisy/src/dev/mpr121.h ****         MPR121_GPIODIR    = 0x76,
 329:../../../libDaisy/src/dev/mpr121.h ****         MPR121_GPIOEN     = 0x77,
 330:../../../libDaisy/src/dev/mpr121.h ****         MPR121_GPIOSET    = 0x78,
 331:../../../libDaisy/src/dev/mpr121.h ****         MPR121_GPIOCLR    = 0x79,
 332:../../../libDaisy/src/dev/mpr121.h ****         MPR121_GPIOTOGGLE = 0x7A,
 333:../../../libDaisy/src/dev/mpr121.h **** 
 334:../../../libDaisy/src/dev/mpr121.h ****         MPR121_SOFTRESET = 0x80,
 335:../../../libDaisy/src/dev/mpr121.h ****     };
 336:../../../libDaisy/src/dev/mpr121.h **** 
 337:../../../libDaisy/src/dev/mpr121.h ****   private:
 338:../../../libDaisy/src/dev/mpr121.h ****     Config    config_;
 339:../../../libDaisy/src/dev/mpr121.h ****     Transport transport_;
 340:../../../libDaisy/src/dev/mpr121.h ****     bool      transport_error_;
 341:../../../libDaisy/src/dev/mpr121.h **** 
 342:../../../libDaisy/src/dev/mpr121.h ****     /** Set the global transport_error_ bool */
 343:../../../libDaisy/src/dev/mpr121.h ****     void SetTransportErr(bool err) { transport_error_ |= err; }
 267              		.loc 8 343 10 is_stmt 1 view .LVU52
 268              	.LBE249:
 269              	.LBB253:
 270              	.LBB254:
  73:../../../libDaisy/src/dev/mpr121.h ****     }
 271              		.loc 8 73 39 is_stmt 0 view .LVU53
 272 0034 CDF80080 		str	r8, [sp]
 273 0038 0DF10B02 		add	r2, sp, #11
 274              	.LBE254:
 275              	.LBE253:
 276              	.LBB258:
 277              	.LBB250:
 278              		.loc 8 343 55 view .LVU54
 279 003c 94F83030 		ldrb	r3, [r4, #48]	@ zero_extendqisi2
 280              	.LBE250:
 281              	.LBE258:
 282              	.LBB259:
 283              	.LBB255:
  73:../../../libDaisy/src/dev/mpr121.h ****     }
 284              		.loc 8 73 39 view .LVU55
 285 0040 94F82C10 		ldrb	r1, [r4, #44]	@ zero_extendqisi2
 286              	.LBE255:
 287              	.LBE259:
 288              	.LBB260:
ARM GAS  /var/folders/yw/6_x9gyn52jjg4jtn_wsryx_80000gp/T//ccNwO1Mk.s 			page 19


 289              	.LBB251:
 290              		.loc 8 343 55 view .LVU56
 291 0044 0028     		cmp	r0, #0
 292 0046 18BF     		it	ne
 293 0048 43F00103 		orrne	r3, r3, #1
 294              	.LBE251:
 295              	.LBE260:
 296              	.LBB261:
 297              	.LBB256:
  73:../../../libDaisy/src/dev/mpr121.h ****     }
 298              		.loc 8 73 39 view .LVU57
 299 004c 3046     		mov	r0, r6
 300              	.LVL13:
  73:../../../libDaisy/src/dev/mpr121.h ****     }
 301              		.loc 8 73 39 view .LVU58
 302              	.LBE256:
 303              	.LBE261:
 304              	.LBB262:
 305              	.LBB252:
 306              		.loc 8 343 55 view .LVU59
 307 004e 84F83030 		strb	r3, [r4, #48]
 308              	.LVL14:
 309              		.loc 8 343 55 view .LVU60
 310              	.LBE252:
 311              	.LBE262:
 312              	.LBB263:
 313              	.LBI253:
  70:../../../libDaisy/src/dev/mpr121.h ****     {
 314              		.loc 8 70 10 is_stmt 1 view .LVU61
 315              	.LBB257:
  72:../../../libDaisy/src/dev/mpr121.h ****                != i2c_.ReceiveBlocking(config_.dev_addr, data, size, 10);
 316              		.loc 8 72 9 view .LVU62
  73:../../../libDaisy/src/dev/mpr121.h ****     }
 317              		.loc 8 73 39 is_stmt 0 view .LVU63
 318 0052 0123     		movs	r3, #1
 319 0054 FFF7FEFF 		bl	_ZN5daisy9I2CHandle15ReceiveBlockingEtPhtm
 320              	.LVL15:
  73:../../../libDaisy/src/dev/mpr121.h ****     }
 321              		.loc 8 73 39 view .LVU64
 322              	.LBE257:
 323              	.LBE263:
 324              	.LBB264:
 325              	.LBI264:
 326              		.loc 8 343 10 is_stmt 1 view .LVU65
 327              	.LBB265:
 328              		.loc 8 343 55 is_stmt 0 view .LVU66
 329 0058 94F83030 		ldrb	r3, [r4, #48]	@ zero_extendqisi2
 330 005c 0028     		cmp	r0, #0
 331 005e 18BF     		it	ne
 332 0060 43F00103 		orrne	r3, r3, #1
 333 0064 84F83030 		strb	r3, [r4, #48]
 334              	.LVL16:
 335              		.loc 8 343 55 view .LVU67
 336              	.LBE265:
 337              	.LBE264:
 270:../../../libDaisy/src/dev/mpr121.h ****         {
 338              		.loc 8 270 50 view .LVU68
ARM GAS  /var/folders/yw/6_x9gyn52jjg4jtn_wsryx_80000gp/T//ccNwO1Mk.s 			page 20


 339 0068 A5F17303 		sub	r3, r5, #115
 270:../../../libDaisy/src/dev/mpr121.h ****         {
 340              		.loc 8 270 9 view .LVU69
 341 006c 072B     		cmp	r3, #7
 342 006e 01D9     		bls	.L17
 343 0070 4D45     		cmp	r5, r9
 344 0072 17D1     		bne	.L21
 345              	.L17:
 346              	.LVL17:
 347              	.LBB266:
 348              	.LBB267:
  66:../../../libDaisy/src/dev/mpr121.h ****     }
 349              		.loc 8 66 40 view .LVU70
 350 0074 0A23     		movs	r3, #10
 351 0076 03AA     		add	r2, sp, #12
 352 0078 3046     		mov	r0, r6
 353              	.LBE267:
 354              	.LBE266:
 281:../../../libDaisy/src/dev/mpr121.h ****         buff[1] = value;
 355              		.loc 8 281 17 view .LVU71
 356 007a 8DF80C50 		strb	r5, [sp, #12]
 357              	.LBB276:
 358              	.LBB268:
  66:../../../libDaisy/src/dev/mpr121.h ****     }
 359              		.loc 8 66 40 view .LVU72
 360 007e 0093     		str	r3, [sp]
 361 0080 0223     		movs	r3, #2
 362              	.LBE268:
 363              	.LBE276:
 282:../../../libDaisy/src/dev/mpr121.h ****         SetTransportErr(transport_.Write(buff, 2));
 364              		.loc 8 282 17 view .LVU73
 365 0082 8DF80D70 		strb	r7, [sp, #13]
 366              	.LVL18:
 367              	.LBB277:
 368              	.LBI266:
  63:../../../libDaisy/src/dev/mpr121.h ****     {
 369              		.loc 8 63 10 is_stmt 1 view .LVU74
 370              	.LBB269:
  65:../../../libDaisy/src/dev/mpr121.h ****                != i2c_.TransmitBlocking(config_.dev_addr, data, size, 10);
 371              		.loc 8 65 9 view .LVU75
 372              	.L20:
  66:../../../libDaisy/src/dev/mpr121.h ****     }
 373              		.loc 8 66 40 is_stmt 0 view .LVU76
 374 0086 94F82C10 		ldrb	r1, [r4, #44]	@ zero_extendqisi2
 375 008a FFF7FEFF 		bl	_ZN5daisy9I2CHandle16TransmitBlockingEtPhtm
 376              	.LVL19:
  66:../../../libDaisy/src/dev/mpr121.h ****     }
 377              		.loc 8 66 40 view .LVU77
 378              	.LBE269:
 379              	.LBE277:
 380              	.LBB278:
 381              	.LBI278:
 382              		.loc 8 343 10 is_stmt 1 view .LVU78
 383              	.LBB279:
 384              		.loc 8 343 55 is_stmt 0 view .LVU79
 385 008e 94F83030 		ldrb	r3, [r4, #48]	@ zero_extendqisi2
 386 0092 0028     		cmp	r0, #0
ARM GAS  /var/folders/yw/6_x9gyn52jjg4jtn_wsryx_80000gp/T//ccNwO1Mk.s 			page 21


 387 0094 18BF     		it	ne
 388 0096 43F00103 		orrne	r3, r3, #1
 389 009a 84F83030 		strb	r3, [r4, #48]
 390              	.LVL20:
 391              		.loc 8 343 55 view .LVU80
 392              	.LBE279:
 393              	.LBE278:
 292:../../../libDaisy/src/dev/mpr121.h **** 
 394              		.loc 8 292 5 view .LVU81
 395 009e 05B0     		add	sp, sp, #20
 396              		.cfi_remember_state
 397              		.cfi_def_cfa_offset 28
 398              		@ sp needed
 399 00a0 BDE8F083 		pop	{r4, r5, r6, r7, r8, r9, pc}
 400              	.LVL21:
 401              	.L21:
 402              		.cfi_restore_state
 403              	.LBB283:
 404              	.LBI283:
  63:../../../libDaisy/src/dev/mpr121.h ****     {
 405              		.loc 8 63 10 is_stmt 1 view .LVU82
 406              	.LBB284:
  65:../../../libDaisy/src/dev/mpr121.h ****                != i2c_.TransmitBlocking(config_.dev_addr, data, size, 10);
 407              		.loc 8 65 9 view .LVU83
  66:../../../libDaisy/src/dev/mpr121.h ****     }
 408              		.loc 8 66 40 is_stmt 0 view .LVU84
 409 00a4 0223     		movs	r3, #2
 410 00a6 03AA     		add	r2, sp, #12
 411              	.LVL22:
  66:../../../libDaisy/src/dev/mpr121.h ****     }
 412              		.loc 8 66 40 view .LVU85
 413 00a8 CDF80080 		str	r8, [sp]
 414 00ac 3046     		mov	r0, r6
 415 00ae 94F82C10 		ldrb	r1, [r4, #44]	@ zero_extendqisi2
 416 00b2 FFF7FEFF 		bl	_ZN5daisy9I2CHandle16TransmitBlockingEtPhtm
 417              	.LVL23:
  66:../../../libDaisy/src/dev/mpr121.h ****     }
 418              		.loc 8 66 40 view .LVU86
 419              	.LBE284:
 420              	.LBE283:
 421              	.LBB285:
 422              	.LBI285:
 423              		.loc 8 343 10 is_stmt 1 view .LVU87
 424              	.LBE285:
 425              	.LBB289:
 426              	.LBB270:
  66:../../../libDaisy/src/dev/mpr121.h ****     }
 427              		.loc 8 66 40 is_stmt 0 view .LVU88
 428 00b6 CDF80080 		str	r8, [sp]
 429              	.LBE270:
 430              	.LBE289:
 431              	.LBB290:
 432              	.LBB286:
 433              		.loc 8 343 55 view .LVU89
 434 00ba 94F83030 		ldrb	r3, [r4, #48]	@ zero_extendqisi2
 435              	.LBE286:
 436              	.LBE290:
ARM GAS  /var/folders/yw/6_x9gyn52jjg4jtn_wsryx_80000gp/T//ccNwO1Mk.s 			page 22


 437              	.LBB291:
 438              	.LBB271:
  66:../../../libDaisy/src/dev/mpr121.h ****     }
 439              		.loc 8 66 40 view .LVU90
 440 00be 03AA     		add	r2, sp, #12
 441 00c0 94F82C10 		ldrb	r1, [r4, #44]	@ zero_extendqisi2
 442              	.LBE271:
 443              	.LBE291:
 444              	.LBB292:
 445              	.LBB287:
 446              		.loc 8 343 55 view .LVU91
 447 00c4 0028     		cmp	r0, #0
 448 00c6 18BF     		it	ne
 449 00c8 43F00103 		orrne	r3, r3, #1
 450              	.LBE287:
 451              	.LBE292:
 452              	.LBB293:
 453              	.LBB272:
  66:../../../libDaisy/src/dev/mpr121.h ****     }
 454              		.loc 8 66 40 view .LVU92
 455 00cc 3046     		mov	r0, r6
 456              	.LVL24:
  66:../../../libDaisy/src/dev/mpr121.h ****     }
 457              		.loc 8 66 40 view .LVU93
 458              	.LBE272:
 459              	.LBE293:
 281:../../../libDaisy/src/dev/mpr121.h ****         buff[1] = value;
 460              		.loc 8 281 17 view .LVU94
 461 00ce 8DF80C50 		strb	r5, [sp, #12]
 462              	.LBB294:
 463              	.LBB288:
 464              		.loc 8 343 55 view .LVU95
 465 00d2 84F83030 		strb	r3, [r4, #48]
 466              	.LVL25:
 467              		.loc 8 343 55 view .LVU96
 468              	.LBE288:
 469              	.LBE294:
 470              	.LBB295:
  63:../../../libDaisy/src/dev/mpr121.h ****     {
 471              		.loc 8 63 10 is_stmt 1 view .LVU97
 472              	.LBB273:
  65:../../../libDaisy/src/dev/mpr121.h ****                != i2c_.TransmitBlocking(config_.dev_addr, data, size, 10);
 473              		.loc 8 65 9 view .LVU98
  66:../../../libDaisy/src/dev/mpr121.h ****     }
 474              		.loc 8 66 40 is_stmt 0 view .LVU99
 475 00d6 0223     		movs	r3, #2
 476              	.LBE273:
 477              	.LBE295:
 282:../../../libDaisy/src/dev/mpr121.h ****         SetTransportErr(transport_.Write(buff, 2));
 478              		.loc 8 282 17 view .LVU100
 479 00d8 8DF80D70 		strb	r7, [sp, #13]
 480              	.LBB296:
 481              	.LBB274:
  66:../../../libDaisy/src/dev/mpr121.h ****     }
 482              		.loc 8 66 40 view .LVU101
 483 00dc FFF7FEFF 		bl	_ZN5daisy9I2CHandle16TransmitBlockingEtPhtm
 484              	.LVL26:
ARM GAS  /var/folders/yw/6_x9gyn52jjg4jtn_wsryx_80000gp/T//ccNwO1Mk.s 			page 23


  66:../../../libDaisy/src/dev/mpr121.h ****     }
 485              		.loc 8 66 40 view .LVU102
 486              	.LBE274:
 487              	.LBE296:
 488              	.LBB297:
 489              	.LBB298:
 490 00e0 CDF80080 		str	r8, [sp]
 491              	.LBE298:
 492              	.LBE297:
 493              	.LBB303:
 494              	.LBB275:
 495 00e4 0546     		mov	r5, r0
 496              	.LVL27:
  66:../../../libDaisy/src/dev/mpr121.h ****     }
 497              		.loc 8 66 40 view .LVU103
 498              	.LBE275:
 499              	.LBE303:
 500              	.LBB304:
 501              		.loc 8 343 10 is_stmt 1 view .LVU104
 502              	.LBB280:
 503              		.loc 8 343 55 is_stmt 0 view .LVU105
 504 00e6 94F83010 		ldrb	r1, [r4, #48]	@ zero_extendqisi2
 505              	.LBE280:
 506              	.LBE304:
 507              	.LBB305:
 508              	.LBB299:
  66:../../../libDaisy/src/dev/mpr121.h ****     }
 509              		.loc 8 66 40 view .LVU106
 510 00ea 03AA     		add	r2, sp, #12
 511              	.LBE299:
 512              	.LBE305:
 289:../../../libDaisy/src/dev/mpr121.h ****             SetTransportErr(transport_.Write(buff, 2));
 513              		.loc 8 289 21 view .LVU107
 514 00ec 9DF80B30 		ldrb	r3, [sp, #11]	@ zero_extendqisi2
 515              	.LBB306:
 516              	.LBB300:
  66:../../../libDaisy/src/dev/mpr121.h ****     }
 517              		.loc 8 66 40 view .LVU108
 518 00f0 3046     		mov	r0, r6
 519              	.LVL28:
  66:../../../libDaisy/src/dev/mpr121.h ****     }
 520              		.loc 8 66 40 view .LVU109
 521              	.LBE300:
 522              	.LBE306:
 523              	.LBB307:
 524              	.LBB281:
 525              		.loc 8 343 55 view .LVU110
 526 00f2 002D     		cmp	r5, #0
 527 00f4 18BF     		it	ne
 528 00f6 41F00101 		orrne	r1, r1, #1
 529              	.LBE281:
 530              	.LBE307:
 288:../../../libDaisy/src/dev/mpr121.h ****             buff[1] = ecr_backup;
 531              		.loc 8 288 21 view .LVU111
 532 00fa 8DF80C90 		strb	r9, [sp, #12]
 289:../../../libDaisy/src/dev/mpr121.h ****             SetTransportErr(transport_.Write(buff, 2));
 533              		.loc 8 289 21 view .LVU112
ARM GAS  /var/folders/yw/6_x9gyn52jjg4jtn_wsryx_80000gp/T//ccNwO1Mk.s 			page 24


 534 00fe 8DF80D30 		strb	r3, [sp, #13]
 535              	.LBB308:
 536              	.LBB301:
  66:../../../libDaisy/src/dev/mpr121.h ****     }
 537              		.loc 8 66 40 view .LVU113
 538 0102 0223     		movs	r3, #2
 539              	.LBE301:
 540              	.LBE308:
 541              	.LBB309:
 542              	.LBB282:
 543              		.loc 8 343 55 view .LVU114
 544 0104 84F83010 		strb	r1, [r4, #48]
 545              	.LVL29:
 546              		.loc 8 343 55 view .LVU115
 547              	.LBE282:
 548              	.LBE309:
 549              	.LBB310:
 550              	.LBI297:
  63:../../../libDaisy/src/dev/mpr121.h ****     {
 551              		.loc 8 63 10 is_stmt 1 view .LVU116
 552              	.LBB302:
  65:../../../libDaisy/src/dev/mpr121.h ****                != i2c_.TransmitBlocking(config_.dev_addr, data, size, 10);
 553              		.loc 8 65 9 view .LVU117
 554 0108 BDE7     		b	.L20
 555              	.LBE302:
 556              	.LBE310:
 557              		.cfi_endproc
 558              	.LFE5222:
 560 010a 00BF     		.section	.rodata.main.str1.4,"aMS",%progbits,1
 561              		.align	2
 562              	.LC0:
 563 0000 4368616E 		.ascii	"Channel %d touched\000"
 563      6E656C20 
 563      25642074 
 563      6F756368 
 563      656400
 564              		.section	.text.startup.main,"ax",%progbits
 565              		.align	1
 566              		.p2align 2,,3
 567              		.global	main
 568              		.syntax unified
 569              		.thumb
 570              		.thumb_func
 572              	main:
 573              	.LFB4790:
  36:mpr121Test.cpp **** 
  37:mpr121Test.cpp **** int main(void)
  38:mpr121Test.cpp **** {
 574              		.loc 7 38 1 view -0
 575              		.cfi_startproc
 576              		@ args = 0, pretend = 0, frame = 40
 577              		@ frame_needed = 0, uses_anonymous_args = 0
  39:mpr121Test.cpp **** 	hw.Init();
 578              		.loc 7 39 2 view .LVU119
  38:mpr121Test.cpp **** 	hw.Init();
 579              		.loc 7 38 1 is_stmt 0 view .LVU120
 580 0000 2DE9F04F 		push	{r4, r5, r6, r7, r8, r9, r10, fp, lr}
ARM GAS  /var/folders/yw/6_x9gyn52jjg4jtn_wsryx_80000gp/T//ccNwO1Mk.s 			page 25


 581              		.cfi_def_cfa_offset 36
 582              		.cfi_offset 4, -36
 583              		.cfi_offset 5, -32
 584              		.cfi_offset 6, -28
 585              		.cfi_offset 7, -24
 586              		.cfi_offset 8, -20
 587              		.cfi_offset 9, -16
 588              		.cfi_offset 10, -12
 589              		.cfi_offset 11, -8
 590              		.cfi_offset 14, -4
 591              		.loc 7 39 9 view .LVU121
 592 0004 0021     		movs	r1, #0
 593 0006 CD48     		ldr	r0, .L41
 594              	.LBB418:
 595              	.LBB419:
  17:../../../DaisySP/Source/Synthesis/oscillator.h ****     /** Choices for output waveforms, POLYBLEP are appropriately labeled. Others are naive forms.
  18:../../../DaisySP/Source/Synthesis/oscillator.h ****     */
  19:../../../DaisySP/Source/Synthesis/oscillator.h ****     enum
  20:../../../DaisySP/Source/Synthesis/oscillator.h ****     {
  21:../../../DaisySP/Source/Synthesis/oscillator.h ****         WAVE_SIN,
  22:../../../DaisySP/Source/Synthesis/oscillator.h ****         WAVE_TRI,
  23:../../../DaisySP/Source/Synthesis/oscillator.h ****         WAVE_SAW,
  24:../../../DaisySP/Source/Synthesis/oscillator.h ****         WAVE_RAMP,
  25:../../../DaisySP/Source/Synthesis/oscillator.h ****         WAVE_SQUARE,
  26:../../../DaisySP/Source/Synthesis/oscillator.h ****         WAVE_POLYBLEP_TRI,
  27:../../../DaisySP/Source/Synthesis/oscillator.h ****         WAVE_POLYBLEP_SAW,
  28:../../../DaisySP/Source/Synthesis/oscillator.h ****         WAVE_POLYBLEP_SQUARE,
  29:../../../DaisySP/Source/Synthesis/oscillator.h ****         WAVE_LAST,
  30:../../../DaisySP/Source/Synthesis/oscillator.h ****     };
  31:../../../DaisySP/Source/Synthesis/oscillator.h **** 
  32:../../../DaisySP/Source/Synthesis/oscillator.h **** 
  33:../../../DaisySP/Source/Synthesis/oscillator.h ****     /** Initializes the Oscillator
  34:../../../DaisySP/Source/Synthesis/oscillator.h **** 
  35:../../../DaisySP/Source/Synthesis/oscillator.h ****         \param sample_rate - sample rate of the audio engine being run, and the frequency that the 
  36:../../../DaisySP/Source/Synthesis/oscillator.h **** 
  37:../../../DaisySP/Source/Synthesis/oscillator.h ****         Defaults:
  38:../../../DaisySP/Source/Synthesis/oscillator.h ****         - freq_ = 100 Hz
  39:../../../DaisySP/Source/Synthesis/oscillator.h ****         - amp_ = 0.5
  40:../../../DaisySP/Source/Synthesis/oscillator.h ****         - waveform_ = sine wave.
  41:../../../DaisySP/Source/Synthesis/oscillator.h ****     */
  42:../../../DaisySP/Source/Synthesis/oscillator.h ****     void Init(float sample_rate)
  43:../../../DaisySP/Source/Synthesis/oscillator.h ****     {
  44:../../../DaisySP/Source/Synthesis/oscillator.h ****         sr_        = sample_rate;
 596              		.loc 6 44 20 view .LVU122
 597 0008 CD4F     		ldr	r7, .L41+4
  45:../../../DaisySP/Source/Synthesis/oscillator.h ****         sr_recip_  = 1.0f / sample_rate;
  46:../../../DaisySP/Source/Synthesis/oscillator.h ****         freq_      = 100.0f;
  47:../../../DaisySP/Source/Synthesis/oscillator.h ****         amp_       = 0.5f;
  48:../../../DaisySP/Source/Synthesis/oscillator.h ****         pw_        = 0.5f;
  49:../../../DaisySP/Source/Synthesis/oscillator.h ****         pw_rad_    = pw_ * TWOPI_F;
  50:../../../DaisySP/Source/Synthesis/oscillator.h ****         phase_     = 0.0f;
  51:../../../DaisySP/Source/Synthesis/oscillator.h ****         phase_inc_ = CalcPhaseInc(freq_);
  52:../../../DaisySP/Source/Synthesis/oscillator.h ****         waveform_  = WAVE_SIN;
 598              		.loc 6 52 20 view .LVU123
 599 000a 4FF00008 		mov	r8, #0
 600              	.LBE419:
 601              	.LBE418:
ARM GAS  /var/folders/yw/6_x9gyn52jjg4jtn_wsryx_80000gp/T//ccNwO1Mk.s 			page 26


 602              	.LBB424:
 603              	.LBB425:
 117:../../../libDaisy/src/dev/mpr121.h **** 
 604              		.loc 8 117 9 view .LVU124
 605 000e CD4E     		ldr	r6, .L41+8
 606 0010 4FF00109 		mov	r9, #1
 133:../../../libDaisy/src/dev/mpr121.h ****         WriteRegister(MPR121_MHDR, 0x01);
 607              		.loc 8 133 22 view .LVU125
 608 0014 4125     		movs	r5, #65
 609              	.LBB426:
 610              	.LBB427:
  49:../../../libDaisy/src/dev/mpr121.h **** 
 611              		.loc 8 49 17 view .LVU126
 612 0016 06F11C04 		add	r4, r6, #28
 613              	.LBE427:
 614              	.LBE426:
 615              	.LBE425:
 616              	.LBE424:
  38:mpr121Test.cpp **** 	hw.Init();
 617              		.loc 7 38 1 view .LVU127
 618 001a 2DED028B 		vpush.64	{d8}
 619              		.cfi_def_cfa_offset 44
 620              		.cfi_offset 80, -44
 621              		.cfi_offset 81, -40
 622 001e 8DB0     		sub	sp, sp, #52
 623              		.cfi_def_cfa_offset 96
 624              	.LBB607:
 625              	.LBB420:
  45:../../../DaisySP/Source/Synthesis/oscillator.h ****         freq_      = 100.0f;
 626              		.loc 6 45 27 view .LVU128
 627 0020 B7EE008A 		vmov.f32	s16, #1.0e+0
 628              	.LBE420:
 629              	.LBE607:
 630              		.loc 7 39 9 view .LVU129
 631 0024 FFF7FEFF 		bl	_ZN5daisy9DaisySeed4InitEb
 632              	.LVL30:
  40:mpr121Test.cpp ****     hw.StartLog();
 633              		.loc 7 40 5 is_stmt 1 view .LVU130
 634              	.LBB608:
 635              	.LBI608:
  23:../../../libDaisy/src/daisy_seed.h **** 
  24:../../../libDaisy/src/daisy_seed.h ****     /** This function used to provide a pre-initialization configuraiton 
  25:../../../libDaisy/src/daisy_seed.h ****      *  it has since been deprecated, and does nothing.
  26:../../../libDaisy/src/daisy_seed.h ****      */
  27:../../../libDaisy/src/daisy_seed.h ****     void Configure();
  28:../../../libDaisy/src/daisy_seed.h **** 
  29:../../../libDaisy/src/daisy_seed.h ****     /** 
  30:../../../libDaisy/src/daisy_seed.h ****     Initializes the Daisy Seed and the following peripherals:
  31:../../../libDaisy/src/daisy_seed.h ****     SDRAM, QSPI, 24-bit 48kHz Audio via AK4556, Internal USB,
  32:../../../libDaisy/src/daisy_seed.h ****     as well as the built-in LED and Testpoint.
  33:../../../libDaisy/src/daisy_seed.h **** 
  34:../../../libDaisy/src/daisy_seed.h ****     ADCs, DACs, and other special peripherals (such as I2C, SPI, etc.)
  35:../../../libDaisy/src/daisy_seed.h ****     can be initialized using their specific initializers within libdaisy
  36:../../../libDaisy/src/daisy_seed.h ****     for a specific application.
  37:../../../libDaisy/src/daisy_seed.h ****     */
  38:../../../libDaisy/src/daisy_seed.h ****     void Init(bool boost = false);
  39:../../../libDaisy/src/daisy_seed.h **** 
ARM GAS  /var/folders/yw/6_x9gyn52jjg4jtn_wsryx_80000gp/T//ccNwO1Mk.s 			page 27


  40:../../../libDaisy/src/daisy_seed.h ****     /** 
  41:../../../libDaisy/src/daisy_seed.h ****     Deinitializes all peripherals automatically handled by `Init`.
  42:../../../libDaisy/src/daisy_seed.h ****     */
  43:../../../libDaisy/src/daisy_seed.h ****     void DeInit();
  44:../../../libDaisy/src/daisy_seed.h **** 
  45:../../../libDaisy/src/daisy_seed.h ****     /** 
  46:../../../libDaisy/src/daisy_seed.h ****     Wait some ms before going on.
  47:../../../libDaisy/src/daisy_seed.h ****     \param del Delay time in ms.
  48:../../../libDaisy/src/daisy_seed.h ****     */
  49:../../../libDaisy/src/daisy_seed.h ****     void DelayMs(size_t del);
  50:../../../libDaisy/src/daisy_seed.h **** 
  51:../../../libDaisy/src/daisy_seed.h ****     /** 
  52:../../../libDaisy/src/daisy_seed.h ****     Returns the gpio_pin corresponding to the index 0-31.
  53:../../../libDaisy/src/daisy_seed.h ****     For the given GPIO on the Daisy Seed (labeled 1-32 in docs).
  54:../../../libDaisy/src/daisy_seed.h ****     */
  55:../../../libDaisy/src/daisy_seed.h ****     static dsy_gpio_pin GetPin(uint8_t pin_idx);
  56:../../../libDaisy/src/daisy_seed.h **** 
  57:../../../libDaisy/src/daisy_seed.h ****     /** Begins the audio for the seeds builtin audio.
  58:../../../libDaisy/src/daisy_seed.h ****     the specified callback will get called whenever
  59:../../../libDaisy/src/daisy_seed.h ****     new data is ready to be prepared.
  60:../../../libDaisy/src/daisy_seed.h ****     */
  61:../../../libDaisy/src/daisy_seed.h ****     void StartAudio(AudioHandle::InterleavingAudioCallback cb);
  62:../../../libDaisy/src/daisy_seed.h **** 
  63:../../../libDaisy/src/daisy_seed.h ****     /** Begins the audio for the seeds builtin audio.
  64:../../../libDaisy/src/daisy_seed.h ****     the specified callback will get called whenever
  65:../../../libDaisy/src/daisy_seed.h ****     new data is ready to be prepared.
  66:../../../libDaisy/src/daisy_seed.h ****     This will use the newer non-interleaved callback.
  67:../../../libDaisy/src/daisy_seed.h ****     */
  68:../../../libDaisy/src/daisy_seed.h ****     void StartAudio(AudioHandle::AudioCallback cb);
  69:../../../libDaisy/src/daisy_seed.h **** 
  70:../../../libDaisy/src/daisy_seed.h ****     /** Changes to a new interleaved callback
  71:../../../libDaisy/src/daisy_seed.h ****      */
  72:../../../libDaisy/src/daisy_seed.h ****     void ChangeAudioCallback(AudioHandle::InterleavingAudioCallback cb);
  73:../../../libDaisy/src/daisy_seed.h **** 
  74:../../../libDaisy/src/daisy_seed.h ****     /** Changes to a new multichannel callback
  75:../../../libDaisy/src/daisy_seed.h ****      */
  76:../../../libDaisy/src/daisy_seed.h ****     void ChangeAudioCallback(AudioHandle::AudioCallback cb);
  77:../../../libDaisy/src/daisy_seed.h **** 
  78:../../../libDaisy/src/daisy_seed.h ****     /** Stops the audio if it is running. */
  79:../../../libDaisy/src/daisy_seed.h ****     void StopAudio();
  80:../../../libDaisy/src/daisy_seed.h **** 
  81:../../../libDaisy/src/daisy_seed.h ****     /** Updates the Audio Sample Rate, and reinitializes.
  82:../../../libDaisy/src/daisy_seed.h ****      ** Audio must be stopped for this to work.
  83:../../../libDaisy/src/daisy_seed.h ****      */
  84:../../../libDaisy/src/daisy_seed.h ****     void SetAudioSampleRate(SaiHandle::Config::SampleRate samplerate);
  85:../../../libDaisy/src/daisy_seed.h **** 
  86:../../../libDaisy/src/daisy_seed.h ****     /** Returns the audio sample rate in Hz as a floating point number.
  87:../../../libDaisy/src/daisy_seed.h ****      */
  88:../../../libDaisy/src/daisy_seed.h ****     float AudioSampleRate();
  89:../../../libDaisy/src/daisy_seed.h **** 
  90:../../../libDaisy/src/daisy_seed.h ****     /** Sets the number of samples processed per channel by the audio callback.
  91:../../../libDaisy/src/daisy_seed.h ****      */
  92:../../../libDaisy/src/daisy_seed.h ****     void SetAudioBlockSize(size_t blocksize);
  93:../../../libDaisy/src/daisy_seed.h **** 
  94:../../../libDaisy/src/daisy_seed.h ****     /** Returns the number of samples per channel in a block of audio. */
  95:../../../libDaisy/src/daisy_seed.h ****     size_t AudioBlockSize();
  96:../../../libDaisy/src/daisy_seed.h **** 
ARM GAS  /var/folders/yw/6_x9gyn52jjg4jtn_wsryx_80000gp/T//ccNwO1Mk.s 			page 28


  97:../../../libDaisy/src/daisy_seed.h ****     /** Returns the rate in Hz that the Audio callback is called */
  98:../../../libDaisy/src/daisy_seed.h ****     float AudioCallbackRate() const;
  99:../../../libDaisy/src/daisy_seed.h **** 
 100:../../../libDaisy/src/daisy_seed.h ****     /** Sets the state of the built in LED
 101:../../../libDaisy/src/daisy_seed.h ****      */
 102:../../../libDaisy/src/daisy_seed.h ****     void SetLed(bool state);
 103:../../../libDaisy/src/daisy_seed.h **** 
 104:../../../libDaisy/src/daisy_seed.h ****     /** Sets the state of the test point near pin 10
 105:../../../libDaisy/src/daisy_seed.h ****      */
 106:../../../libDaisy/src/daisy_seed.h ****     void SetTestPoint(bool state);
 107:../../../libDaisy/src/daisy_seed.h **** 
 108:../../../libDaisy/src/daisy_seed.h ****     /** Print formatted debug log message
 109:../../../libDaisy/src/daisy_seed.h ****      */
 110:../../../libDaisy/src/daisy_seed.h ****     template <typename... VA>
 111:../../../libDaisy/src/daisy_seed.h ****     static void Print(const char* format, VA... va)
 112:../../../libDaisy/src/daisy_seed.h ****     {
 113:../../../libDaisy/src/daisy_seed.h ****         Log::Print(format, va...);
 114:../../../libDaisy/src/daisy_seed.h ****     }
 115:../../../libDaisy/src/daisy_seed.h **** 
 116:../../../libDaisy/src/daisy_seed.h ****     /** Print formatted debug log message with automatic line termination
 117:../../../libDaisy/src/daisy_seed.h ****     */
 118:../../../libDaisy/src/daisy_seed.h ****     template <typename... VA>
 119:../../../libDaisy/src/daisy_seed.h ****     static void PrintLine(const char* format, VA... va)
 120:../../../libDaisy/src/daisy_seed.h ****     {
 121:../../../libDaisy/src/daisy_seed.h ****         Log::PrintLine(format, va...);
 122:../../../libDaisy/src/daisy_seed.h ****     }
 123:../../../libDaisy/src/daisy_seed.h **** 
 124:../../../libDaisy/src/daisy_seed.h ****     /** Start the logging session. Optionally wait for terminal connection before proceeding.
 125:../../../libDaisy/src/daisy_seed.h ****     */
 126:../../../libDaisy/src/daisy_seed.h ****     static void StartLog(bool wait_for_pc = false)
 636              		.loc 1 126 17 view .LVU131
 637              	.LBB609:
 127:../../../libDaisy/src/daisy_seed.h ****     {
 128:../../../libDaisy/src/daisy_seed.h ****         Log::StartLog(wait_for_pc);
 638              		.loc 1 128 9 view .LVU132
 639              		.loc 1 128 22 is_stmt 0 view .LVU133
 640 0028 0020     		movs	r0, #0
 641 002a FFF7FEFF 		bl	_ZN5daisy6LoggerILNS_17LoggerDestinationE1EE8StartLogEb
 642              	.LVL31:
 643              		.loc 1 128 22 view .LVU134
 644              	.LBE609:
 645              	.LBE608:
  41:mpr121Test.cpp **** 	hw.SetAudioBlockSize(4); // number of samples handled per callback
 646              		.loc 7 41 2 is_stmt 1 view .LVU135
 647              		.loc 7 41 22 is_stmt 0 view .LVU136
 648 002e 0421     		movs	r1, #4
 649 0030 C248     		ldr	r0, .L41
 650 0032 FFF7FEFF 		bl	_ZN5daisy9DaisySeed17SetAudioBlockSizeEj
 651              	.LVL32:
  42:mpr121Test.cpp **** 	hw.SetAudioSampleRate(SaiHandle::Config::SampleRate::SAI_48KHZ);
 652              		.loc 7 42 2 is_stmt 1 view .LVU137
 653              		.loc 7 42 23 is_stmt 0 view .LVU138
 654 0036 0321     		movs	r1, #3
 655 0038 C048     		ldr	r0, .L41
 656 003a FFF7FEFF 		bl	_ZN5daisy9DaisySeed18SetAudioSampleRateENS_9SaiHandle6Config10SampleRateE
 657              	.LVL33:
  43:mpr121Test.cpp **** 	hw.StartAudio(AudioCallback);
ARM GAS  /var/folders/yw/6_x9gyn52jjg4jtn_wsryx_80000gp/T//ccNwO1Mk.s 			page 29


 658              		.loc 7 43 2 is_stmt 1 view .LVU139
 659              		.loc 7 43 15 is_stmt 0 view .LVU140
 660 003e C249     		ldr	r1, .L41+12
 661 0040 BE48     		ldr	r0, .L41
 662 0042 FFF7FEFF 		bl	_ZN5daisy9DaisySeed10StartAudioEPFvPKPKfPPfjE
 663              	.LVL34:
  44:mpr121Test.cpp **** 
  45:mpr121Test.cpp ****     //How many samples we'll output per second
  46:mpr121Test.cpp ****     float samplerate = hw.AudioSampleRate();
 664              		.loc 7 46 5 is_stmt 1 view .LVU141
 665              		.loc 7 46 42 is_stmt 0 view .LVU142
 666 0046 BD48     		ldr	r0, .L41
 667 0048 FFF7FEFF 		bl	_ZN5daisy9DaisySeed15AudioSampleRateEv
 668              	.LVL35:
 669 004c F0EE407A 		vmov.f32	s15, s0
 670              	.LVL36:
  47:mpr121Test.cpp **** 
  48:mpr121Test.cpp **** 	// Initialize MPR121 with I2C configuration
  49:mpr121Test.cpp ****     Mpr121I2C::Config mprConfig;
 671              		.loc 7 49 5 is_stmt 1 view .LVU143
 672              	.LBB610:
 673              	.LBI610:
  99:../../../libDaisy/src/dev/mpr121.h ****         {
 674              		.loc 8 99 9 view .LVU144
 675              	.LBB611:
 676              	.LBI611:
  34:../../../libDaisy/src/dev/mpr121.h ****         {
 677              		.loc 8 34 9 view .LVU145
 678              	.LBB612:
 679              	.LBI612:
 680              		.file 9 "../../../libDaisy/src/daisy_core.h"
   1:../../../libDaisy/src/daisy_core.h **** #pragma once
   2:../../../libDaisy/src/daisy_core.h **** #ifndef DSY_CORE_HW_H
   3:../../../libDaisy/src/daisy_core.h **** #define DSY_CORE_HW_H /**< & */
   4:../../../libDaisy/src/daisy_core.h **** #include <stdint.h>
   5:../../../libDaisy/src/daisy_core.h **** #include <stdlib.h>
   6:../../../libDaisy/src/daisy_core.h **** 
   7:../../../libDaisy/src/daisy_core.h **** #if defined(_MSC_VER)
   8:../../../libDaisy/src/daisy_core.h **** #define FORCE_INLINE __forceinline /**< & */
   9:../../../libDaisy/src/daisy_core.h **** #elif defined(__clang__)
  10:../../../libDaisy/src/daisy_core.h **** #define FORCE_INLINE inline __attribute__((always_inline)) /**< & */
  11:../../../libDaisy/src/daisy_core.h **** #pragma clang diagnostic ignored "-Wduplicate-decl-specifier"
  12:../../../libDaisy/src/daisy_core.h **** #elif defined(__GNUC__)
  13:../../../libDaisy/src/daisy_core.h **** #define FORCE_INLINE inline __attribute__((always_inline)) /**< & */
  14:../../../libDaisy/src/daisy_core.h **** #else
  15:../../../libDaisy/src/daisy_core.h **** #error unknown compiler
  16:../../../libDaisy/src/daisy_core.h **** #endif
  17:../../../libDaisy/src/daisy_core.h **** 
  18:../../../libDaisy/src/daisy_core.h **** /** @addtogroup utility
  19:../../../libDaisy/src/daisy_core.h ****     @{
  20:../../../libDaisy/src/daisy_core.h **** */
  21:../../../libDaisy/src/daisy_core.h **** 
  22:../../../libDaisy/src/daisy_core.h **** /** Macro for area of memory that is configured as cacheless
  23:../../../libDaisy/src/daisy_core.h **** This should be used primarily for DMA buffers, and the like.
  24:../../../libDaisy/src/daisy_core.h **** */
  25:../../../libDaisy/src/daisy_core.h **** #define DMA_BUFFER_MEM_SECTION __attribute__((section(".sram1_bss")))
  26:../../../libDaisy/src/daisy_core.h **** /** 
ARM GAS  /var/folders/yw/6_x9gyn52jjg4jtn_wsryx_80000gp/T//ccNwO1Mk.s 			page 30


  27:../../../libDaisy/src/daisy_core.h **** THE DTCM RAM section is also non-cached. However, is not suitable 
  28:../../../libDaisy/src/daisy_core.h **** for DMA transfers. Performance is on par with internal SRAM w/ 
  29:../../../libDaisy/src/daisy_core.h **** cache enabled.
  30:../../../libDaisy/src/daisy_core.h **** */
  31:../../../libDaisy/src/daisy_core.h **** #define DTCM_MEM_SECTION __attribute__((section(".dtcmram_bss")))
  32:../../../libDaisy/src/daisy_core.h **** 
  33:../../../libDaisy/src/daisy_core.h **** #define FBIPMAX 0.999985f             /**< close to 1.0f-LSB at 16 bit */
  34:../../../libDaisy/src/daisy_core.h **** #define FBIPMIN (-FBIPMAX)            /**< - (1 - LSB) */
  35:../../../libDaisy/src/daisy_core.h **** #define U82F_SCALE 0.0078740f         /**< 1 / 127 */
  36:../../../libDaisy/src/daisy_core.h **** #define F2U8_SCALE 127.0f             /**< 128 - 1 */
  37:../../../libDaisy/src/daisy_core.h **** #define S82F_SCALE 0.0078125f         /**< 1 / (2**7) */
  38:../../../libDaisy/src/daisy_core.h **** #define F2S8_SCALE 127.0f             /**< (2 ** 7) - 1 */
  39:../../../libDaisy/src/daisy_core.h **** #define S162F_SCALE 3.0517578125e-05f /**< 1 / (2** 15) */
  40:../../../libDaisy/src/daisy_core.h **** #define F2S16_SCALE 32767.0f          /**< (2 ** 15) - 1 */
  41:../../../libDaisy/src/daisy_core.h **** #define F2S24_SCALE 8388608.0f        /**< 2 ** 23 */
  42:../../../libDaisy/src/daisy_core.h **** #define S242F_SCALE 1.192092896e-07f  /**< 1 / (2 ** 23) */
  43:../../../libDaisy/src/daisy_core.h **** #define S24SIGN 0x800000              /**< 2 ** 23 */
  44:../../../libDaisy/src/daisy_core.h **** #define S322F_SCALE 4.6566129e-10f    /**< 1 / (2** 31) */
  45:../../../libDaisy/src/daisy_core.h **** #define F2S32_SCALE 2147483647.f      /**< (2 ** 31) - 1 */
  46:../../../libDaisy/src/daisy_core.h **** 
  47:../../../libDaisy/src/daisy_core.h **** 
  48:../../../libDaisy/src/daisy_core.h **** /** shorthand macro for simplifying the reading of the left 
  49:../../../libDaisy/src/daisy_core.h ****  *  channel of a non-interleaved output buffer named out */
  50:../../../libDaisy/src/daisy_core.h **** #define OUT_L out[0]
  51:../../../libDaisy/src/daisy_core.h **** 
  52:../../../libDaisy/src/daisy_core.h **** /** shorthand macro for simplifying the reading of the right 
  53:../../../libDaisy/src/daisy_core.h ****  *  channel of a non-interleaved output buffer named out */
  54:../../../libDaisy/src/daisy_core.h **** #define OUT_R out[1]
  55:../../../libDaisy/src/daisy_core.h **** 
  56:../../../libDaisy/src/daisy_core.h **** /** shorthand macro for simplifying the reading of the left 
  57:../../../libDaisy/src/daisy_core.h ****  *  channel of a non-interleaved input buffer named in */
  58:../../../libDaisy/src/daisy_core.h **** #define IN_L in[0]
  59:../../../libDaisy/src/daisy_core.h **** 
  60:../../../libDaisy/src/daisy_core.h **** /** shorthand macro for simplifying the reading of the right 
  61:../../../libDaisy/src/daisy_core.h ****  *  channel of a non-interleaved input buffer named in */
  62:../../../libDaisy/src/daisy_core.h **** #define IN_R in[1]
  63:../../../libDaisy/src/daisy_core.h **** 
  64:../../../libDaisy/src/daisy_core.h **** /** 
  65:../../../libDaisy/src/daisy_core.h ****     Computes cube.
  66:../../../libDaisy/src/daisy_core.h ****     \param x Number to be cubed
  67:../../../libDaisy/src/daisy_core.h ****     \return x ^ 3
  68:../../../libDaisy/src/daisy_core.h **** */
  69:../../../libDaisy/src/daisy_core.h **** FORCE_INLINE float cube(float x)
  70:../../../libDaisy/src/daisy_core.h **** {
  71:../../../libDaisy/src/daisy_core.h ****     return (x * x) * x;
  72:../../../libDaisy/src/daisy_core.h **** }
  73:../../../libDaisy/src/daisy_core.h **** 
  74:../../../libDaisy/src/daisy_core.h **** /** 
  75:../../../libDaisy/src/daisy_core.h ****     Converts unsigned 8-bit to float
  76:../../../libDaisy/src/daisy_core.h ****     \param x Number to be scaled.
  77:../../../libDaisy/src/daisy_core.h ****     \return Scaled number.
  78:../../../libDaisy/src/daisy_core.h **** */
  79:../../../libDaisy/src/daisy_core.h **** FORCE_INLINE float u82f(uint8_t x)
  80:../../../libDaisy/src/daisy_core.h **** {
  81:../../../libDaisy/src/daisy_core.h ****     return ((float)x - 127.f) * U82F_SCALE;
  82:../../../libDaisy/src/daisy_core.h **** }
  83:../../../libDaisy/src/daisy_core.h **** 
ARM GAS  /var/folders/yw/6_x9gyn52jjg4jtn_wsryx_80000gp/T//ccNwO1Mk.s 			page 31


  84:../../../libDaisy/src/daisy_core.h **** /**
  85:../../../libDaisy/src/daisy_core.h ****     Converts float to unsigned 8-bit
  86:../../../libDaisy/src/daisy_core.h **** */
  87:../../../libDaisy/src/daisy_core.h **** FORCE_INLINE uint8_t f2u8(float x)
  88:../../../libDaisy/src/daisy_core.h **** {
  89:../../../libDaisy/src/daisy_core.h ****     x = x <= FBIPMIN ? FBIPMIN : x;
  90:../../../libDaisy/src/daisy_core.h ****     x = x >= FBIPMAX ? FBIPMAX : x;
  91:../../../libDaisy/src/daisy_core.h ****     return (uint8_t)((x * F2U8_SCALE) + F2U8_SCALE);
  92:../../../libDaisy/src/daisy_core.h **** }
  93:../../../libDaisy/src/daisy_core.h **** 
  94:../../../libDaisy/src/daisy_core.h **** 
  95:../../../libDaisy/src/daisy_core.h **** /** 
  96:../../../libDaisy/src/daisy_core.h ****     Converts Signed 8-bit to float
  97:../../../libDaisy/src/daisy_core.h ****     \param x Number to be scaled.
  98:../../../libDaisy/src/daisy_core.h ****     \return Scaled number.
  99:../../../libDaisy/src/daisy_core.h **** */
 100:../../../libDaisy/src/daisy_core.h **** FORCE_INLINE float s82f(int8_t x)
 101:../../../libDaisy/src/daisy_core.h **** {
 102:../../../libDaisy/src/daisy_core.h ****     return (float)x * S82F_SCALE;
 103:../../../libDaisy/src/daisy_core.h **** }
 104:../../../libDaisy/src/daisy_core.h **** 
 105:../../../libDaisy/src/daisy_core.h **** /**
 106:../../../libDaisy/src/daisy_core.h ****     Converts float to Signed 8-bit
 107:../../../libDaisy/src/daisy_core.h **** */
 108:../../../libDaisy/src/daisy_core.h **** FORCE_INLINE int8_t f2s8(float x)
 109:../../../libDaisy/src/daisy_core.h **** {
 110:../../../libDaisy/src/daisy_core.h ****     x = x <= FBIPMIN ? FBIPMIN : x;
 111:../../../libDaisy/src/daisy_core.h ****     x = x >= FBIPMAX ? FBIPMAX : x;
 112:../../../libDaisy/src/daisy_core.h ****     return (int32_t)(x * F2S8_SCALE);
 113:../../../libDaisy/src/daisy_core.h **** }
 114:../../../libDaisy/src/daisy_core.h **** 
 115:../../../libDaisy/src/daisy_core.h **** /** 
 116:../../../libDaisy/src/daisy_core.h ****     Converts Signed 16-bit to float
 117:../../../libDaisy/src/daisy_core.h ****     \param x Number to be scaled.
 118:../../../libDaisy/src/daisy_core.h ****     \return Scaled number.
 119:../../../libDaisy/src/daisy_core.h **** */
 120:../../../libDaisy/src/daisy_core.h **** FORCE_INLINE float s162f(int16_t x)
 121:../../../libDaisy/src/daisy_core.h **** {
 122:../../../libDaisy/src/daisy_core.h ****     return (float)x * S162F_SCALE;
 123:../../../libDaisy/src/daisy_core.h **** }
 124:../../../libDaisy/src/daisy_core.h **** 
 125:../../../libDaisy/src/daisy_core.h **** /**
 126:../../../libDaisy/src/daisy_core.h ****     Converts float to Signed 16-bit
 127:../../../libDaisy/src/daisy_core.h **** */
 128:../../../libDaisy/src/daisy_core.h **** FORCE_INLINE int16_t f2s16(float x)
 129:../../../libDaisy/src/daisy_core.h **** {
 130:../../../libDaisy/src/daisy_core.h ****     x = x <= FBIPMIN ? FBIPMIN : x;
 131:../../../libDaisy/src/daisy_core.h ****     x = x >= FBIPMAX ? FBIPMAX : x;
 132:../../../libDaisy/src/daisy_core.h ****     return (int32_t)(x * F2S16_SCALE);
 133:../../../libDaisy/src/daisy_core.h **** }
 134:../../../libDaisy/src/daisy_core.h **** 
 135:../../../libDaisy/src/daisy_core.h **** /**
 136:../../../libDaisy/src/daisy_core.h ****     Converts Signed 24-bit to float
 137:../../../libDaisy/src/daisy_core.h ****  */
 138:../../../libDaisy/src/daisy_core.h **** FORCE_INLINE float s242f(int32_t x)
 139:../../../libDaisy/src/daisy_core.h **** {
 140:../../../libDaisy/src/daisy_core.h ****     x = (x ^ S24SIGN) - S24SIGN; //sign extend aka ((x<<8)>>8)
ARM GAS  /var/folders/yw/6_x9gyn52jjg4jtn_wsryx_80000gp/T//ccNwO1Mk.s 			page 32


 141:../../../libDaisy/src/daisy_core.h ****     return (float)x * S242F_SCALE;
 142:../../../libDaisy/src/daisy_core.h **** }
 143:../../../libDaisy/src/daisy_core.h **** /**
 144:../../../libDaisy/src/daisy_core.h ****     Converts float to Signed 24-bit
 145:../../../libDaisy/src/daisy_core.h ****  */
 146:../../../libDaisy/src/daisy_core.h **** FORCE_INLINE int32_t f2s24(float x)
 147:../../../libDaisy/src/daisy_core.h **** {
 148:../../../libDaisy/src/daisy_core.h ****     x = x <= FBIPMIN ? FBIPMIN : x;
 149:../../../libDaisy/src/daisy_core.h ****     x = x >= FBIPMAX ? FBIPMAX : x;
 150:../../../libDaisy/src/daisy_core.h ****     return (int32_t)(x * F2S24_SCALE);
 151:../../../libDaisy/src/daisy_core.h **** }
 152:../../../libDaisy/src/daisy_core.h **** 
 153:../../../libDaisy/src/daisy_core.h **** /**
 154:../../../libDaisy/src/daisy_core.h ****     Converts Signed 32-bit to float
 155:../../../libDaisy/src/daisy_core.h ****  */
 156:../../../libDaisy/src/daisy_core.h **** FORCE_INLINE float s322f(int32_t x)
 157:../../../libDaisy/src/daisy_core.h **** {
 158:../../../libDaisy/src/daisy_core.h ****     return (float)x * S322F_SCALE;
 159:../../../libDaisy/src/daisy_core.h **** }
 160:../../../libDaisy/src/daisy_core.h **** /**
 161:../../../libDaisy/src/daisy_core.h ****     Converts float to Signed 24-bit
 162:../../../libDaisy/src/daisy_core.h ****  */
 163:../../../libDaisy/src/daisy_core.h **** FORCE_INLINE int32_t f2s32(float x)
 164:../../../libDaisy/src/daisy_core.h **** {
 165:../../../libDaisy/src/daisy_core.h ****     x = x <= FBIPMIN ? FBIPMIN : x;
 166:../../../libDaisy/src/daisy_core.h ****     x = x >= FBIPMAX ? FBIPMAX : x;
 167:../../../libDaisy/src/daisy_core.h ****     return (int32_t)(x * F2S32_SCALE);
 168:../../../libDaisy/src/daisy_core.h **** }
 169:../../../libDaisy/src/daisy_core.h **** 
 170:../../../libDaisy/src/daisy_core.h **** 
 171:../../../libDaisy/src/daisy_core.h **** /** Enums and a simple struct for defining a hardware pin on the MCU
 172:../../../libDaisy/src/daisy_core.h ****  *  These correlate with the stm32 datasheet, and are used to configure
 173:../../../libDaisy/src/daisy_core.h ****  *  the hardware.
 174:../../../libDaisy/src/daisy_core.h ****  * 
 175:../../../libDaisy/src/daisy_core.h ****  *  This along with the dsy_gpio_pin class should no longer be used.
 176:../../../libDaisy/src/daisy_core.h ****  *  They are available for backwards compatability. 
 177:../../../libDaisy/src/daisy_core.h ****  * 
 178:../../../libDaisy/src/daisy_core.h ****  *  Please use GPIOPort enum and the Pin struct instead.
 179:../../../libDaisy/src/daisy_core.h ****  */
 180:../../../libDaisy/src/daisy_core.h **** typedef enum
 181:../../../libDaisy/src/daisy_core.h **** {
 182:../../../libDaisy/src/daisy_core.h ****     DSY_GPIOA, /**< & */
 183:../../../libDaisy/src/daisy_core.h ****     DSY_GPIOB, /**< & */
 184:../../../libDaisy/src/daisy_core.h ****     DSY_GPIOC, /**< & */
 185:../../../libDaisy/src/daisy_core.h ****     DSY_GPIOD, /**< & */
 186:../../../libDaisy/src/daisy_core.h ****     DSY_GPIOE, /**< & */
 187:../../../libDaisy/src/daisy_core.h ****     DSY_GPIOF, /**< & */
 188:../../../libDaisy/src/daisy_core.h ****     DSY_GPIOG, /**< & */
 189:../../../libDaisy/src/daisy_core.h ****     DSY_GPIOH, /**< & */
 190:../../../libDaisy/src/daisy_core.h ****     DSY_GPIOI, /**< & */
 191:../../../libDaisy/src/daisy_core.h ****     DSY_GPIOJ, /**< & */
 192:../../../libDaisy/src/daisy_core.h ****     DSY_GPIOK, /**< & */
 193:../../../libDaisy/src/daisy_core.h ****     DSY_GPIOX, /** This is a non-existant port for unsupported bits of hardware. */
 194:../../../libDaisy/src/daisy_core.h ****     DSY_GPIO_LAST, /** Final enum member */
 195:../../../libDaisy/src/daisy_core.h **** } dsy_gpio_port;
 196:../../../libDaisy/src/daisy_core.h **** 
 197:../../../libDaisy/src/daisy_core.h **** /** Hardware define pins 
ARM GAS  /var/folders/yw/6_x9gyn52jjg4jtn_wsryx_80000gp/T//ccNwO1Mk.s 			page 33


 198:../../../libDaisy/src/daisy_core.h ****  *  
 199:../../../libDaisy/src/daisy_core.h ****  *  The dsy_gpio_pin struct should no longer be used, and is only available for
 200:../../../libDaisy/src/daisy_core.h ****  *  backwards compatability.
 201:../../../libDaisy/src/daisy_core.h ****  * 
 202:../../../libDaisy/src/daisy_core.h ****  *  Please use Pin struct instead.
 203:../../../libDaisy/src/daisy_core.h ****  */
 204:../../../libDaisy/src/daisy_core.h **** typedef struct
 205:../../../libDaisy/src/daisy_core.h **** {
 206:../../../libDaisy/src/daisy_core.h ****     dsy_gpio_port port; /**< & */
 207:../../../libDaisy/src/daisy_core.h ****     uint8_t       pin;  /**< number 0-15 */
 208:../../../libDaisy/src/daisy_core.h **** } dsy_gpio_pin;
 209:../../../libDaisy/src/daisy_core.h **** 
 210:../../../libDaisy/src/daisy_core.h **** /** Helper for creating pins from port/pin combos easily
 211:../../../libDaisy/src/daisy_core.h ****  * 
 212:../../../libDaisy/src/daisy_core.h ****  *  The dsy_gpio_pin struct should no longer be used, and is only available for
 213:../../../libDaisy/src/daisy_core.h ****  *  backwards compatability.
 214:../../../libDaisy/src/daisy_core.h ****  * 
 215:../../../libDaisy/src/daisy_core.h ****  *  Please use Pin struct instead.
 216:../../../libDaisy/src/daisy_core.h **** */
 217:../../../libDaisy/src/daisy_core.h **** FORCE_INLINE dsy_gpio_pin dsy_pin(dsy_gpio_port port, uint8_t pin)
 218:../../../libDaisy/src/daisy_core.h **** {
 219:../../../libDaisy/src/daisy_core.h ****     dsy_gpio_pin p;
 220:../../../libDaisy/src/daisy_core.h ****     p.port = port;
 221:../../../libDaisy/src/daisy_core.h ****     p.pin  = pin;
 222:../../../libDaisy/src/daisy_core.h ****     return p;
 223:../../../libDaisy/src/daisy_core.h **** }
 224:../../../libDaisy/src/daisy_core.h **** 
 225:../../../libDaisy/src/daisy_core.h **** /** Helper for testing sameness of two dsy_gpio_pins
 226:../../../libDaisy/src/daisy_core.h ****  *  \return    1 if same, 0 if different
 227:../../../libDaisy/src/daisy_core.h ****  * 
 228:../../../libDaisy/src/daisy_core.h ****  *  The dsy_gpio_pin struct should no longer be used, and is only available for
 229:../../../libDaisy/src/daisy_core.h ****  *  backwards compatability.
 230:../../../libDaisy/src/daisy_core.h ****  * 
 231:../../../libDaisy/src/daisy_core.h ****  *  Please use Pin struct instead.
 232:../../../libDaisy/src/daisy_core.h ****  */
 233:../../../libDaisy/src/daisy_core.h **** FORCE_INLINE uint8_t dsy_pin_cmp(dsy_gpio_pin *a, dsy_gpio_pin *b)
 234:../../../libDaisy/src/daisy_core.h **** {
 235:../../../libDaisy/src/daisy_core.h ****     return ((a->port == b->port) && (a->pin == b->pin));
 236:../../../libDaisy/src/daisy_core.h **** }
 237:../../../libDaisy/src/daisy_core.h **** 
 238:../../../libDaisy/src/daisy_core.h **** #ifdef __cplusplus
 239:../../../libDaisy/src/daisy_core.h **** 
 240:../../../libDaisy/src/daisy_core.h **** namespace daisy
 241:../../../libDaisy/src/daisy_core.h **** {
 242:../../../libDaisy/src/daisy_core.h **** /** @brief GPIO Port names */
 243:../../../libDaisy/src/daisy_core.h **** enum GPIOPort
 244:../../../libDaisy/src/daisy_core.h **** {
 245:../../../libDaisy/src/daisy_core.h ****     PORTA, /**< Port A */
 246:../../../libDaisy/src/daisy_core.h ****     PORTB, /**< Port B */
 247:../../../libDaisy/src/daisy_core.h ****     PORTC, /**< Port C */
 248:../../../libDaisy/src/daisy_core.h ****     PORTD, /**< Port D */
 249:../../../libDaisy/src/daisy_core.h ****     PORTE, /**< Port E */
 250:../../../libDaisy/src/daisy_core.h ****     PORTF, /**< Port F */
 251:../../../libDaisy/src/daisy_core.h ****     PORTG, /**< Port G */
 252:../../../libDaisy/src/daisy_core.h ****     PORTH, /**< Port H */
 253:../../../libDaisy/src/daisy_core.h ****     PORTI, /**< Port I */
 254:../../../libDaisy/src/daisy_core.h ****     PORTJ, /**< Port J */
ARM GAS  /var/folders/yw/6_x9gyn52jjg4jtn_wsryx_80000gp/T//ccNwO1Mk.s 			page 34


 255:../../../libDaisy/src/daisy_core.h ****     PORTK, /**< Port K */
 256:../../../libDaisy/src/daisy_core.h ****     PORTX, /**< Used as a dummy port to signal an invalid pin. */
 257:../../../libDaisy/src/daisy_core.h **** };
 258:../../../libDaisy/src/daisy_core.h **** 
 259:../../../libDaisy/src/daisy_core.h **** /** @brief representation of hardware port/pin combination */
 260:../../../libDaisy/src/daisy_core.h **** struct Pin
 261:../../../libDaisy/src/daisy_core.h **** {
 262:../../../libDaisy/src/daisy_core.h ****     GPIOPort port;
 263:../../../libDaisy/src/daisy_core.h ****     uint8_t  pin;
 264:../../../libDaisy/src/daisy_core.h **** 
 265:../../../libDaisy/src/daisy_core.h ****     /** @brief Constructor creates a valid pin. 
 266:../../../libDaisy/src/daisy_core.h ****      *  @param pt GPIOPort between PA, and PK corresponding to STM32 Port.
 267:../../../libDaisy/src/daisy_core.h ****      *  @param pn pin number in range of 0-15
 268:../../../libDaisy/src/daisy_core.h ****     */
 269:../../../libDaisy/src/daisy_core.h ****     constexpr Pin(const GPIOPort pt, const uint8_t pn) : port(pt), pin(pn) {}
 270:../../../libDaisy/src/daisy_core.h **** 
 271:../../../libDaisy/src/daisy_core.h ****     /** @brief Basic Constructor creates an invalid Pin object */
 272:../../../libDaisy/src/daisy_core.h ****     constexpr Pin() : port(PORTX), pin(255) {}
 681              		.loc 9 272 15 view .LVU146
 682              		.loc 9 272 15 is_stmt 0 view .LVU147
 683              	.LBE612:
 684              	.LBB613:
 685              	.LBI613:
 686              		.loc 9 272 15 is_stmt 1 view .LVU148
 687              		.loc 9 272 15 is_stmt 0 view .LVU149
 688              	.LBE613:
 689              	.LBE611:
 690              	.LBE610:
  36:../../../libDaisy/src/dev/mpr121.h ****             speed  = I2CHandle::Config::Speed::I2C_400KHZ;
 691              		.loc 8 36 13 is_stmt 1 view .LVU150
  37:../../../libDaisy/src/dev/mpr121.h **** 
 692              		.loc 8 37 13 view .LVU151
  39:../../../libDaisy/src/dev/mpr121.h ****             sda = Pin(PORTB, 9);
 693              		.loc 8 39 13 view .LVU152
 694              	.LBB618:
 695              	.LBB616:
 696              	.LBB614:
 697              	.LBI614:
 269:../../../libDaisy/src/daisy_core.h **** 
 698              		.loc 9 269 15 view .LVU153
 269:../../../libDaisy/src/daisy_core.h **** 
 699              		.loc 9 269 15 is_stmt 0 view .LVU154
 700              	.LBE614:
 701              	.LBE616:
 702              	.LBE618:
  40:../../../libDaisy/src/dev/mpr121.h **** 
 703              		.loc 8 40 13 is_stmt 1 view .LVU155
 704              	.LBB619:
 705              	.LBB617:
 706              	.LBB615:
 707              	.LBI615:
 269:../../../libDaisy/src/daisy_core.h **** 
 708              		.loc 9 269 15 view .LVU156
 269:../../../libDaisy/src/daisy_core.h **** 
 709              		.loc 9 269 15 is_stmt 0 view .LVU157
 710              	.LBE615:
 711              	.LBE617:
ARM GAS  /var/folders/yw/6_x9gyn52jjg4jtn_wsryx_80000gp/T//ccNwO1Mk.s 			page 35


 712              	.LBE619:
  42:../../../libDaisy/src/dev/mpr121.h ****         }
 713              		.loc 8 42 13 is_stmt 1 view .LVU158
  50:mpr121Test.cpp ****     mprConfig.transport_config.periph = I2CHandle::Config::Peripheral::I2C_1;
 714              		.loc 7 50 5 view .LVU159
  51:mpr121Test.cpp ****     mprConfig.transport_config.speed = I2CHandle::Config::Speed::I2C_400KHZ;
 715              		.loc 7 51 5 view .LVU160
  52:mpr121Test.cpp ****     mprConfig.transport_config.scl = Pin(PORTB,6);  // Replace with your SCL pin
 716              		.loc 7 52 5 view .LVU161
 717              	.LBB620:
 718              	.LBI620:
 269:../../../libDaisy/src/daisy_core.h **** 
 719              		.loc 9 269 15 view .LVU162
 269:../../../libDaisy/src/daisy_core.h **** 
 720              		.loc 9 269 15 is_stmt 0 view .LVU163
 721              	.LBE620:
  53:mpr121Test.cpp ****     mprConfig.transport_config.sda = Pin(PORTB,7);  // Replace with your SDA pin
 722              		.loc 7 53 5 is_stmt 1 view .LVU164
 723              	.LBB621:
 724              	.LBI621:
 269:../../../libDaisy/src/daisy_core.h **** 
 725              		.loc 9 269 15 view .LVU165
 269:../../../libDaisy/src/daisy_core.h **** 
 726              		.loc 9 269 15 is_stmt 0 view .LVU166
 727              	.LBE621:
  54:mpr121Test.cpp **** 
  55:mpr121Test.cpp **** 	// Set additional MPR121 configuration if needed
  56:mpr121Test.cpp ****     mprConfig.touch_threshold = 12;
 728              		.loc 7 56 5 is_stmt 1 view .LVU167
  57:mpr121Test.cpp ****     mprConfig.release_threshold = 6;
 729              		.loc 7 57 5 view .LVU168
  58:mpr121Test.cpp **** 
  59:mpr121Test.cpp ****     //Set up oscillator
  60:mpr121Test.cpp ****     osc.Init(samplerate);
 730              		.loc 7 60 5 view .LVU169
 731              	.LBB622:
 732              	.LBI418:
  42:../../../DaisySP/Source/Synthesis/oscillator.h ****     {
 733              		.loc 6 42 10 view .LVU170
 734              	.LBB421:
  44:../../../DaisySP/Source/Synthesis/oscillator.h ****         sr_recip_  = 1.0f / sample_rate;
 735              		.loc 6 44 9 view .LVU171
  46:../../../DaisySP/Source/Synthesis/oscillator.h ****         amp_       = 0.5f;
 736              		.loc 6 46 20 is_stmt 0 view .LVU172
 737 0050 9FEDBE7A 		vldr.32	s14, .L41+16
  47:../../../DaisySP/Source/Synthesis/oscillator.h ****         pw_        = 0.5f;
 738              		.loc 6 47 20 view .LVU173
 739 0054 4FF07C53 		mov	r3, #1056964608
  49:../../../DaisySP/Source/Synthesis/oscillator.h ****         phase_     = 0.0f;
 740              		.loc 6 49 20 view .LVU174
 741 0058 BD49     		ldr	r1, .L41+20
  50:../../../DaisySP/Source/Synthesis/oscillator.h ****         phase_inc_ = CalcPhaseInc(freq_);
 742              		.loc 6 50 20 view .LVU175
 743 005a 0022     		movs	r2, #0
  45:../../../DaisySP/Source/Synthesis/oscillator.h ****         freq_      = 100.0f;
 744              		.loc 6 45 27 view .LVU176
 745 005c C8EE276A 		vdiv.f32	s13, s16, s15
ARM GAS  /var/folders/yw/6_x9gyn52jjg4jtn_wsryx_80000gp/T//ccNwO1Mk.s 			page 36


  51:../../../DaisySP/Source/Synthesis/oscillator.h ****         waveform_  = WAVE_SIN;
 746              		.loc 6 51 34 view .LVU177
 747 0060 3846     		mov	r0, r7
  46:../../../DaisySP/Source/Synthesis/oscillator.h ****         amp_       = 0.5f;
 748              		.loc 6 46 20 view .LVU178
 749 0062 87ED027A 		vstr.32	s14, [r7, #8]
  49:../../../DaisySP/Source/Synthesis/oscillator.h ****         phase_     = 0.0f;
 750              		.loc 6 49 20 view .LVU179
 751 0066 3961     		str	r1, [r7, #16]	@ float
  50:../../../DaisySP/Source/Synthesis/oscillator.h ****         phase_inc_ = CalcPhaseInc(freq_);
 752              		.loc 6 50 20 view .LVU180
 753 0068 FA61     		str	r2, [r7, #28]	@ float
  44:../../../DaisySP/Source/Synthesis/oscillator.h ****         sr_recip_  = 1.0f / sample_rate;
 754              		.loc 6 44 20 view .LVU181
 755 006a C7ED057A 		vstr.32	s15, [r7, #20]
  45:../../../DaisySP/Source/Synthesis/oscillator.h ****         freq_      = 100.0f;
 756              		.loc 6 45 9 is_stmt 1 view .LVU182
  51:../../../DaisySP/Source/Synthesis/oscillator.h ****         waveform_  = WAVE_SIN;
 757              		.loc 6 51 34 is_stmt 0 view .LVU183
 758 006e B0EE470A 		vmov.f32	s0, s14
 759              	.LVL37:
  47:../../../DaisySP/Source/Synthesis/oscillator.h ****         pw_        = 0.5f;
 760              		.loc 6 47 20 view .LVU184
 761 0072 7B60     		str	r3, [r7, #4]	@ float
  48:../../../DaisySP/Source/Synthesis/oscillator.h ****         pw_rad_    = pw_ * TWOPI_F;
 762              		.loc 6 48 20 view .LVU185
 763 0074 FB60     		str	r3, [r7, #12]	@ float
  45:../../../DaisySP/Source/Synthesis/oscillator.h ****         freq_      = 100.0f;
 764              		.loc 6 45 20 view .LVU186
 765 0076 C7ED066A 		vstr.32	s13, [r7, #24]
  46:../../../DaisySP/Source/Synthesis/oscillator.h ****         amp_       = 0.5f;
 766              		.loc 6 46 9 is_stmt 1 view .LVU187
  47:../../../DaisySP/Source/Synthesis/oscillator.h ****         pw_        = 0.5f;
 767              		.loc 6 47 9 view .LVU188
  48:../../../DaisySP/Source/Synthesis/oscillator.h ****         pw_rad_    = pw_ * TWOPI_F;
 768              		.loc 6 48 9 view .LVU189
  49:../../../DaisySP/Source/Synthesis/oscillator.h ****         phase_     = 0.0f;
 769              		.loc 6 49 9 view .LVU190
  50:../../../DaisySP/Source/Synthesis/oscillator.h ****         phase_inc_ = CalcPhaseInc(freq_);
 770              		.loc 6 50 9 view .LVU191
  51:../../../DaisySP/Source/Synthesis/oscillator.h ****         waveform_  = WAVE_SIN;
 771              		.loc 6 51 9 view .LVU192
  51:../../../DaisySP/Source/Synthesis/oscillator.h ****         waveform_  = WAVE_SIN;
 772              		.loc 6 51 34 is_stmt 0 view .LVU193
 773 007a FFF7FEFF 		bl	_ZN7daisysp10Oscillator12CalcPhaseIncEf
 774              	.LVL38:
  51:../../../DaisySP/Source/Synthesis/oscillator.h ****         waveform_  = WAVE_SIN;
 775              		.loc 6 51 34 view .LVU194
 776 007e F0EE407A 		vmov.f32	s15, s0
  53:../../../DaisySP/Source/Synthesis/oscillator.h ****         eoc_       = true;
  54:../../../DaisySP/Source/Synthesis/oscillator.h ****         eor_       = true;
 777              		.loc 6 54 20 view .LVU195
 778 0082 40F20113 		movw	r3, #257
 779              	.LBE421:
 780              	.LBE622:
 781              	.LBB623:
 782              	.LBB624:
ARM GAS  /var/folders/yw/6_x9gyn52jjg4jtn_wsryx_80000gp/T//ccNwO1Mk.s 			page 37


  55:../../../DaisySP/Source/Synthesis/oscillator.h ****     }
  56:../../../DaisySP/Source/Synthesis/oscillator.h **** 
  57:../../../DaisySP/Source/Synthesis/oscillator.h **** 
  58:../../../DaisySP/Source/Synthesis/oscillator.h ****     /** Changes the frequency of the Oscillator, and recalculates phase increment.
  59:../../../DaisySP/Source/Synthesis/oscillator.h ****     */
  60:../../../DaisySP/Source/Synthesis/oscillator.h ****     inline void SetFreq(const float f)
  61:../../../DaisySP/Source/Synthesis/oscillator.h ****     {
  62:../../../DaisySP/Source/Synthesis/oscillator.h ****         freq_      = f;
 783              		.loc 6 62 20 view .LVU196
 784 0086 9FEDB30A 		vldr.32	s0, .L41+24
  63:../../../DaisySP/Source/Synthesis/oscillator.h ****         phase_inc_ = CalcPhaseInc(f);
 785              		.loc 6 63 34 view .LVU197
 786 008a 3846     		mov	r0, r7
 787              	.LBE624:
 788              	.LBE623:
 789              	.LBB627:
 790              	.LBB422:
  54:../../../DaisySP/Source/Synthesis/oscillator.h ****     }
 791              		.loc 6 54 20 view .LVU198
 792 008c BB85     		strh	r3, [r7, #44]	@ movhi
  51:../../../DaisySP/Source/Synthesis/oscillator.h ****         waveform_  = WAVE_SIN;
 793              		.loc 6 51 20 view .LVU199
 794 008e C7ED087A 		vstr.32	s15, [r7, #32]
  52:../../../DaisySP/Source/Synthesis/oscillator.h ****         eoc_       = true;
 795              		.loc 6 52 9 is_stmt 1 view .LVU200
  53:../../../DaisySP/Source/Synthesis/oscillator.h ****         eor_       = true;
 796              		.loc 6 53 9 view .LVU201
  54:../../../DaisySP/Source/Synthesis/oscillator.h ****     }
 797              		.loc 6 54 9 view .LVU202
 798              	.LVL39:
  54:../../../DaisySP/Source/Synthesis/oscillator.h ****     }
 799              		.loc 6 54 9 is_stmt 0 view .LVU203
 800              	.LBE422:
 801              	.LBE627:
  61:mpr121Test.cpp ****     osc.SetWaveform(osc.WAVE_SIN);
 802              		.loc 7 61 5 is_stmt 1 view .LVU204
  64:../../../DaisySP/Source/Synthesis/oscillator.h ****     }
  65:../../../DaisySP/Source/Synthesis/oscillator.h **** 
  66:../../../DaisySP/Source/Synthesis/oscillator.h **** 
  67:../../../DaisySP/Source/Synthesis/oscillator.h ****     /** Sets the amplitude of the waveform.
  68:../../../DaisySP/Source/Synthesis/oscillator.h ****     */
  69:../../../DaisySP/Source/Synthesis/oscillator.h ****     inline void SetAmp(const float a) { amp_ = a; }
  70:../../../DaisySP/Source/Synthesis/oscillator.h ****     /** Sets the waveform to be synthesized by the Process() function.
  71:../../../DaisySP/Source/Synthesis/oscillator.h ****     */
  72:../../../DaisySP/Source/Synthesis/oscillator.h ****     inline void SetWaveform(const uint8_t wf)
  73:../../../DaisySP/Source/Synthesis/oscillator.h ****     {
  74:../../../DaisySP/Source/Synthesis/oscillator.h ****         waveform_ = wf < WAVE_LAST ? wf : WAVE_SIN;
 803              		.loc 6 74 9 view .LVU205
  62:mpr121Test.cpp ****     osc.SetAmp(1.f);
 804              		.loc 7 62 5 view .LVU206
 805              	.LBB628:
 806              	.LBI628:
  69:../../../DaisySP/Source/Synthesis/oscillator.h ****     /** Sets the waveform to be synthesized by the Process() function.
 807              		.loc 6 69 17 view .LVU207
 808              	.LBB629:
  69:../../../DaisySP/Source/Synthesis/oscillator.h ****     /** Sets the waveform to be synthesized by the Process() function.
 809              		.loc 6 69 41 view .LVU208
ARM GAS  /var/folders/yw/6_x9gyn52jjg4jtn_wsryx_80000gp/T//ccNwO1Mk.s 			page 38


 810              	.LBE629:
 811              	.LBE628:
 812              	.LBB631:
 813              	.LBB423:
  52:../../../DaisySP/Source/Synthesis/oscillator.h ****         eoc_       = true;
 814              		.loc 6 52 20 is_stmt 0 view .LVU209
 815 0092 87F80080 		strb	r8, [r7]
 816              	.LBE423:
 817              	.LBE631:
 818              	.LBB632:
 819              	.LBB630:
  69:../../../DaisySP/Source/Synthesis/oscillator.h ****     /** Sets the waveform to be synthesized by the Process() function.
 820              		.loc 6 69 46 view .LVU210
 821 0096 87ED018A 		vstr.32	s16, [r7, #4]
 822              	.LVL40:
  69:../../../DaisySP/Source/Synthesis/oscillator.h ****     /** Sets the waveform to be synthesized by the Process() function.
 823              		.loc 6 69 46 view .LVU211
 824              	.LBE630:
 825              	.LBE632:
  63:mpr121Test.cpp ****     osc.SetFreq(440);
 826              		.loc 7 63 5 is_stmt 1 view .LVU212
 827              	.LBB633:
 828              	.LBI623:
  60:../../../DaisySP/Source/Synthesis/oscillator.h ****     {
 829              		.loc 6 60 17 view .LVU213
 830              	.LBB625:
  62:../../../DaisySP/Source/Synthesis/oscillator.h ****         phase_inc_ = CalcPhaseInc(f);
 831              		.loc 6 62 9 view .LVU214
  62:../../../DaisySP/Source/Synthesis/oscillator.h ****         phase_inc_ = CalcPhaseInc(f);
 832              		.loc 6 62 20 is_stmt 0 view .LVU215
 833 009a 87ED020A 		vstr.32	s0, [r7, #8]
  63:../../../DaisySP/Source/Synthesis/oscillator.h ****     }
 834              		.loc 6 63 9 is_stmt 1 view .LVU216
  63:../../../DaisySP/Source/Synthesis/oscillator.h ****     }
 835              		.loc 6 63 34 is_stmt 0 view .LVU217
 836 009e FFF7FEFF 		bl	_ZN7daisysp10Oscillator12CalcPhaseIncEf
 837              	.LVL41:
 838              	.LBE625:
 839              	.LBE633:
 840              	.LBB634:
 841              	.LBB603:
 117:../../../libDaisy/src/dev/mpr121.h **** 
 842              		.loc 8 117 9 view .LVU218
 843 00a2 AD4B     		ldr	r3, .L41+28
 844 00a4 B646     		mov	lr, r6
 845 00a6 0DF1080C 		add	ip, sp, #8
 846              	.LBE603:
 847              	.LBE634:
 848              	.LBB635:
 849              	.LBB626:
  63:../../../DaisySP/Source/Synthesis/oscillator.h ****     }
 850              		.loc 6 63 20 view .LVU219
 851 00aa 87ED080A 		vstr.32	s0, [r7, #32]
 852              	.LVL42:
  63:../../../DaisySP/Source/Synthesis/oscillator.h ****     }
 853              		.loc 6 63 20 view .LVU220
 854              	.LBE626:
ARM GAS  /var/folders/yw/6_x9gyn52jjg4jtn_wsryx_80000gp/T//ccNwO1Mk.s 			page 39


 855              	.LBE635:
  64:mpr121Test.cpp **** 
  65:mpr121Test.cpp **** 	if(mpr121.Init(mprConfig) != Mpr121I2C::OK)
 856              		.loc 7 65 2 is_stmt 1 view .LVU221
 857              	.LBB636:
 858              	.LBI424:
 115:../../../libDaisy/src/dev/mpr121.h ****     {
 859              		.loc 8 115 12 view .LVU222
 860              	.LBB604:
 117:../../../libDaisy/src/dev/mpr121.h **** 
 861              		.loc 8 117 9 is_stmt 0 view .LVU223
 862 00ae B360     		str	r3, [r6, #8]
 863              	.LBB437:
 864              	.LBB433:
  56:../../../libDaisy/src/dev/mpr121.h ****         i2c_conf.pin_config.sda = config.sda;
 865              		.loc 8 56 42 view .LVU224
 866 00b0 0893     		str	r3, [sp, #32]
 867              	.LBB428:
 868              	.LBB429:
 869              		.file 10 "../../../libDaisy/src/per/i2c.h"
   1:../../../libDaisy/src/per/i2c.h **** #pragma once
   2:../../../libDaisy/src/per/i2c.h **** #include "daisy_core.h"
   3:../../../libDaisy/src/per/i2c.h **** 
   4:../../../libDaisy/src/per/i2c.h **** namespace daisy
   5:../../../libDaisy/src/per/i2c.h **** {
   6:../../../libDaisy/src/per/i2c.h **** /** A handle for interacting with an I2C peripheral. This is a dumb
   7:../../../libDaisy/src/per/i2c.h ****  *  gateway that internally points to one of the four I2C peripherals
   8:../../../libDaisy/src/per/i2c.h ****  *  after it was initialised. It can then be copied and passed around.
   9:../../../libDaisy/src/per/i2c.h ****  *  Use an I2CHandle like this:
  10:../../../libDaisy/src/per/i2c.h ****  *  
  11:../../../libDaisy/src/per/i2c.h ****  *      // setup the configuration
  12:../../../libDaisy/src/per/i2c.h ****  *      I2CHandle::Config i2c_conf;
  13:../../../libDaisy/src/per/i2c.h ****  *      i2c_conf.periph = I2CHandle::Config::Peripheral::I2C_1;
  14:../../../libDaisy/src/per/i2c.h ****  *      i2c_conf.speed  = I2CHandle::Config::Speed::I2C_400KHZ;
  15:../../../libDaisy/src/per/i2c.h ****  *      i2c_conf.mode   = I2CHandle::Config::Mode::Master;
  16:../../../libDaisy/src/per/i2c.h ****  *      i2c_conf.pin_config.scl  = {DSY_GPIOB, 8};
  17:../../../libDaisy/src/per/i2c.h ****  *      i2c_conf.pin_config.sda  = {DSY_GPIOB, 9};
  18:../../../libDaisy/src/per/i2c.h ****  *      // initialise the peripheral
  19:../../../libDaisy/src/per/i2c.h ****  *      I2CHandle i2c;
  20:../../../libDaisy/src/per/i2c.h ****  *      i2c.Init(i2c_conf);
  21:../../../libDaisy/src/per/i2c.h ****  *      // now i2c points to the corresponding peripheral and can be used.
  22:../../../libDaisy/src/per/i2c.h ****  *      i2c.TransmitBlocking( ... );
  23:../../../libDaisy/src/per/i2c.h ****  */
  24:../../../libDaisy/src/per/i2c.h **** class I2CHandle
  25:../../../libDaisy/src/per/i2c.h **** {
  26:../../../libDaisy/src/per/i2c.h ****   public:
  27:../../../libDaisy/src/per/i2c.h ****     /** Contains settings for initialising an I2C interface. */
  28:../../../libDaisy/src/per/i2c.h ****     struct Config
 870              		.loc 10 28 12 view .LVU225
 871 00b2 1023     		movs	r3, #16
 872              	.LBE429:
 873              	.LBE428:
  49:../../../libDaisy/src/dev/mpr121.h **** 
 874              		.loc 8 49 17 view .LVU226
 875 00b4 E246     		mov	r10, ip
  53:../../../libDaisy/src/dev/mpr121.h ****         i2c_conf.speed  = config.speed;
 876              		.loc 8 53 25 view .LVU227
ARM GAS  /var/folders/yw/6_x9gyn52jjg4jtn_wsryx_80000gp/T//ccNwO1Mk.s 			page 40


 877 00b6 CDF81C80 		str	r8, [sp, #28]
 878              	.LBB431:
 879              	.LBB430:
 880              		.loc 10 28 12 view .LVU228
 881 00ba 8DF82C30 		strb	r3, [sp, #44]
 882              	.LBE430:
 883              	.LBE431:
 884              	.LBE433:
 885              	.LBE437:
 117:../../../libDaisy/src/dev/mpr121.h **** 
 886              		.loc 8 117 9 view .LVU229
 887 00be 5A23     		movs	r3, #90
 888 00c0 3374     		strb	r3, [r6, #16]
 889 00c2 40F20C63 		movw	r3, #1548
 890 00c6 C6E90089 		strd	r8, r9, [r6]
 891 00ca B382     		strh	r3, [r6, #20]	@ movhi
 892              	.LVL43:
 117:../../../libDaisy/src/dev/mpr121.h **** 
 893              		.loc 8 117 9 view .LVU230
 894 00cc BEE80F00 		ldmia	lr!, {r0, r1, r2, r3}
 895 00d0 DEF800E0 		ldr	lr, [lr]
 896 00d4 ACE80F00 		stmia	ip!, {r0, r1, r2, r3}
 897 00d8 CCF800E0 		str	lr, [ip]
 898              	.LBB438:
 899              	.LBI426:
  47:../../../libDaisy/src/dev/mpr121.h ****     {
 900              		.loc 8 47 17 is_stmt 1 view .LVU231
 901              	.LBB434:
  49:../../../libDaisy/src/dev/mpr121.h **** 
 902              		.loc 8 49 9 view .LVU232
  49:../../../libDaisy/src/dev/mpr121.h **** 
 903              		.loc 8 49 17 is_stmt 0 view .LVU233
 904 00dc BAE80F00 		ldmia	r10!, {r0, r1, r2, r3}
 905 00e0 0FC4     		stmia	r4!, {r0, r1, r2, r3}
  59:../../../libDaisy/src/dev/mpr121.h ****     }
 906              		.loc 8 59 50 view .LVU234
 907 00e2 07A9     		add	r1, sp, #28
  49:../../../libDaisy/src/dev/mpr121.h **** 
 908              		.loc 8 49 17 view .LVU235
 909 00e4 84F800E0 		strb	lr, [r4]
  51:../../../libDaisy/src/dev/mpr121.h ****         i2c_conf.mode   = I2CHandle::Config::Mode::I2C_MASTER;
 910              		.loc 8 51 9 is_stmt 1 view .LVU236
 911              	.LVL44:
 912              	.LBB432:
 913              	.LBI428:
 914              		.loc 10 28 12 view .LVU237
 915              		.loc 10 28 12 is_stmt 0 view .LVU238
 916              	.LBE432:
  52:../../../libDaisy/src/dev/mpr121.h ****         i2c_conf.periph = config.periph;
 917              		.loc 8 52 9 is_stmt 1 view .LVU239
  53:../../../libDaisy/src/dev/mpr121.h ****         i2c_conf.speed  = config.speed;
 918              		.loc 8 53 9 view .LVU240
  54:../../../libDaisy/src/dev/mpr121.h **** 
 919              		.loc 8 54 9 view .LVU241
  56:../../../libDaisy/src/dev/mpr121.h ****         i2c_conf.pin_config.sda = config.sda;
 920              		.loc 8 56 9 view .LVU242
  56:../../../libDaisy/src/dev/mpr121.h ****         i2c_conf.pin_config.sda = config.sda;
ARM GAS  /var/folders/yw/6_x9gyn52jjg4jtn_wsryx_80000gp/T//ccNwO1Mk.s 			page 41


 921              		.loc 8 56 9 is_stmt 0 view .LVU243
 922              	.LBE434:
 923              	.LBE438:
 924              	.LBE604:
 925              	.LBE636:
 273:../../../libDaisy/src/daisy_core.h **** 
 274:../../../libDaisy/src/daisy_core.h ****     /** @brief checks validity of a Pin 
 275:../../../libDaisy/src/daisy_core.h ****      *  @retval returns true if the port is a valid hardware pin, otherwise false.
 276:../../../libDaisy/src/daisy_core.h ****     */
 277:../../../libDaisy/src/daisy_core.h ****     constexpr bool IsValid() const { return port != PORTX && pin < 16; }
 278:../../../libDaisy/src/daisy_core.h **** 
 279:../../../libDaisy/src/daisy_core.h ****     /** @brief comparison operator for checking equality between Pin objects */
 280:../../../libDaisy/src/daisy_core.h ****     constexpr bool operator==(const Pin &rhs) const
 281:../../../libDaisy/src/daisy_core.h ****     {
 282:../../../libDaisy/src/daisy_core.h ****         return (rhs.port == port) && (rhs.pin == pin);
 283:../../../libDaisy/src/daisy_core.h ****     }
 284:../../../libDaisy/src/daisy_core.h **** 
 285:../../../libDaisy/src/daisy_core.h ****     /** @brief comparison operator for checking inequality between Pin objects */
 286:../../../libDaisy/src/daisy_core.h ****     constexpr bool operator!=(const Pin &rhs) const { return !operator==(rhs); }
 287:../../../libDaisy/src/daisy_core.h **** 
 288:../../../libDaisy/src/daisy_core.h ****     /** @brief conversion operation for converting to the old-style representation
 289:../../../libDaisy/src/daisy_core.h ****      *         of a pin.
 290:../../../libDaisy/src/daisy_core.h ****      * 
 291:../../../libDaisy/src/daisy_core.h ****      *  This allows the new Pin type to be used in place of the older, dsy_gpio_pin
 292:../../../libDaisy/src/daisy_core.h ****      *  type.
 293:../../../libDaisy/src/daisy_core.h ****      */
 294:../../../libDaisy/src/daisy_core.h ****     operator dsy_gpio_pin() const
 295:../../../libDaisy/src/daisy_core.h ****     {
 296:../../../libDaisy/src/daisy_core.h ****         return dsy_pin(static_cast<dsy_gpio_port>(port), pin);
 926              		.loc 9 296 9 is_stmt 1 view .LVU244
 219:../../../libDaisy/src/daisy_core.h ****     p.port = port;
 927              		.loc 9 219 5 view .LVU245
 220:../../../libDaisy/src/daisy_core.h ****     p.pin  = pin;
 928              		.loc 9 220 5 view .LVU246
 221:../../../libDaisy/src/daisy_core.h ****     return p;
 929              		.loc 9 221 5 view .LVU247
 222:../../../libDaisy/src/daisy_core.h **** }
 930              		.loc 9 222 5 view .LVU248
 931              	.LBB637:
 932              	.LBB605:
 933              	.LBB439:
 934              	.LBB435:
  57:../../../libDaisy/src/dev/mpr121.h **** 
 935              		.loc 8 57 9 view .LVU249
  57:../../../libDaisy/src/dev/mpr121.h **** 
 936              		.loc 8 57 9 is_stmt 0 view .LVU250
 937              	.LBE435:
 938              	.LBE439:
 939              	.LBE605:
 940              	.LBE637:
 941              		.loc 9 296 9 is_stmt 1 view .LVU251
 219:../../../libDaisy/src/daisy_core.h ****     p.port = port;
 942              		.loc 9 219 5 view .LVU252
 220:../../../libDaisy/src/daisy_core.h ****     p.pin  = pin;
 943              		.loc 9 220 5 view .LVU253
 221:../../../libDaisy/src/daisy_core.h ****     return p;
 944              		.loc 9 221 5 view .LVU254
ARM GAS  /var/folders/yw/6_x9gyn52jjg4jtn_wsryx_80000gp/T//ccNwO1Mk.s 			page 42


 222:../../../libDaisy/src/daisy_core.h **** }
 945              		.loc 9 222 5 view .LVU255
 946              	.LBB638:
 947              	.LBB606:
 948              	.LBB440:
 949              	.LBB436:
  59:../../../libDaisy/src/dev/mpr121.h ****     }
 950              		.loc 8 59 9 view .LVU256
  59:../../../libDaisy/src/dev/mpr121.h ****     }
 951              		.loc 8 59 50 is_stmt 0 view .LVU257
 952 00e8 06F11800 		add	r0, r6, #24
  52:../../../libDaisy/src/dev/mpr121.h ****         i2c_conf.periph = config.periph;
 953              		.loc 8 52 25 view .LVU258
 954 00ec CDE90998 		strd	r9, r8, [sp, #36]
  59:../../../libDaisy/src/dev/mpr121.h ****     }
 955              		.loc 8 59 50 view .LVU259
 956 00f0 FFF7FEFF 		bl	_ZN5daisy9I2CHandle4InitERKNS0_6ConfigE
 957              	.LVL45:
  59:../../../libDaisy/src/dev/mpr121.h ****     }
 958              		.loc 8 59 50 view .LVU260
 959              	.LBE436:
 960              	.LBE440:
 961              	.LBB441:
 962              	.LBI441:
 963              		.loc 8 343 10 is_stmt 1 view .LVU261
 964              	.LBB442:
 965              		.loc 8 343 55 is_stmt 0 view .LVU262
 966 00f4 96F83030 		ldrb	r3, [r6, #48]	@ zero_extendqisi2
 967              	.LBE442:
 968              	.LBE441:
 122:../../../libDaisy/src/dev/mpr121.h ****         System::Delay(1);
 969              		.loc 8 122 22 view .LVU263
 970 00f8 8021     		movs	r1, #128
 971 00fa 6322     		movs	r2, #99
 972              	.LBB445:
 973              	.LBB443:
 974              		.loc 8 343 55 view .LVU264
 975 00fc 4045     		cmp	r0, r8
 976 00fe 18BF     		it	ne
 977 0100 43F00103 		orrne	r3, r3, #1
 978              	.LBE443:
 979              	.LBE445:
 122:../../../libDaisy/src/dev/mpr121.h ****         System::Delay(1);
 980              		.loc 8 122 22 view .LVU265
 981 0104 3046     		mov	r0, r6
 982              	.LVL46:
 983              	.LBB446:
 984              	.LBB444:
 985              		.loc 8 343 55 view .LVU266
 986 0106 86F83030 		strb	r3, [r6, #48]
 987              	.LVL47:
 988              		.loc 8 343 55 view .LVU267
 989              	.LBE444:
 990              	.LBE446:
 122:../../../libDaisy/src/dev/mpr121.h ****         System::Delay(1);
 991              		.loc 8 122 22 view .LVU268
 992 010a FFF7FEFF 		bl	_ZN5daisy6Mpr121INS_18Mpr121I2CTransportEE13WriteRegisterEhh
ARM GAS  /var/folders/yw/6_x9gyn52jjg4jtn_wsryx_80000gp/T//ccNwO1Mk.s 			page 43


 993              	.LVL48:
 123:../../../libDaisy/src/dev/mpr121.h **** 
 994              		.loc 8 123 22 view .LVU269
 995 010e 4846     		mov	r0, r9
 996 0110 FFF7FEFF 		bl	_ZN5daisy6System5DelayEm
 997              	.LVL49:
 125:../../../libDaisy/src/dev/mpr121.h **** 
 998              		.loc 8 125 22 view .LVU270
 999 0114 4246     		mov	r2, r8
 1000 0116 5E21     		movs	r1, #94
 1001 0118 3046     		mov	r0, r6
 1002 011a FFF7FEFF 		bl	_ZN5daisy6Mpr121INS_18Mpr121I2CTransportEE13WriteRegisterEhh
 1003              	.LVL50:
 133:../../../libDaisy/src/dev/mpr121.h ****         WriteRegister(MPR121_MHDR, 0x01);
 1004              		.loc 8 133 22 view .LVU271
 1005 011e 96F814B0 		ldrb	fp, [r6, #20]	@ zero_extendqisi2
 1006 0122 96F815A0 		ldrb	r10, [r6, #21]	@ zero_extendqisi2
 1007              	.LVL51:
 1008              	.LBB447:
 1009              	.LBI447:
 177:../../../libDaisy/src/dev/mpr121.h ****     {
 1010              		.loc 8 177 10 is_stmt 1 view .LVU272
 1011              	.LBB448:
 180:../../../libDaisy/src/dev/mpr121.h ****         {
 1012              		.loc 8 180 30 view .LVU273
 1013              	.L23:
 1014              	.LBB449:
 1015              	.LBI449:
 257:../../../libDaisy/src/dev/mpr121.h ****     {
 1016              		.loc 8 257 10 view .LVU274
 1017              	.LBB450:
 1018              	.LBB451:
 1019              	.LBB452:
  66:../../../libDaisy/src/dev/mpr121.h ****     }
 1020              		.loc 8 66 40 is_stmt 0 view .LVU275
 1021 0126 0A24     		movs	r4, #10
 1022              	.LBE452:
 1023              	.LBE451:
 264:../../../libDaisy/src/dev/mpr121.h **** 
 1024              		.loc 8 264 17 view .LVU276
 1025 0128 4FF00009 		mov	r9, #0
 1026 012c 4FF05E08 		mov	r8, #94
 1027              	.LBB455:
 1028              	.LBB453:
  66:../../../libDaisy/src/dev/mpr121.h ****     }
 1029              		.loc 8 66 40 view .LVU277
 1030 0130 0123     		movs	r3, #1
 1031 0132 07AA     		add	r2, sp, #28
 1032 0134 96F82C10 		ldrb	r1, [r6, #44]	@ zero_extendqisi2
 1033 0138 0094     		str	r4, [sp]
 1034 013a 8848     		ldr	r0, .L41+32
 1035              	.LBE453:
 1036              	.LBE455:
 264:../../../libDaisy/src/dev/mpr121.h **** 
 1037              		.loc 8 264 17 view .LVU278
 1038 013c 8DF81D90 		strb	r9, [sp, #29]
 1039 0140 8DF81C80 		strb	r8, [sp, #28]
ARM GAS  /var/folders/yw/6_x9gyn52jjg4jtn_wsryx_80000gp/T//ccNwO1Mk.s 			page 44


 1040              	.LVL52:
 1041              	.LBB456:
 1042              	.LBI451:
  63:../../../libDaisy/src/dev/mpr121.h ****     {
 1043              		.loc 8 63 10 is_stmt 1 view .LVU279
 1044              	.LBB454:
  65:../../../libDaisy/src/dev/mpr121.h ****                != i2c_.TransmitBlocking(config_.dev_addr, data, size, 10);
 1045              		.loc 8 65 9 view .LVU280
  66:../../../libDaisy/src/dev/mpr121.h ****     }
 1046              		.loc 8 66 40 is_stmt 0 view .LVU281
 1047 0144 FFF7FEFF 		bl	_ZN5daisy9I2CHandle16TransmitBlockingEtPhtm
 1048              	.LVL53:
  66:../../../libDaisy/src/dev/mpr121.h ****     }
 1049              		.loc 8 66 40 view .LVU282
 1050              	.LBE454:
 1051              	.LBE456:
 1052              	.LBB457:
 1053              	.LBI457:
 1054              		.loc 8 343 10 is_stmt 1 view .LVU283
 1055              	.LBB458:
 1056              		.loc 8 343 55 is_stmt 0 view .LVU284
 1057 0148 96F83020 		ldrb	r2, [r6, #48]	@ zero_extendqisi2
 1058              	.LBE458:
 1059              	.LBE457:
 1060              	.LBB461:
 1061              	.LBB462:
  73:../../../libDaisy/src/dev/mpr121.h ****     }
 1062              		.loc 8 73 39 view .LVU285
 1063 014c 0123     		movs	r3, #1
 1064 014e 96F82C10 		ldrb	r1, [r6, #44]	@ zero_extendqisi2
 1065              	.LBE462:
 1066              	.LBE461:
 1067              	.LBB465:
 1068              	.LBB459:
 1069              		.loc 8 343 55 view .LVU286
 1070 0152 4845     		cmp	r0, r9
 1071 0154 18BF     		it	ne
 1072 0156 42F00102 		orrne	r2, r2, #1
 1073              	.LBE459:
 1074              	.LBE465:
 1075              	.LBB466:
 1076              	.LBB463:
  73:../../../libDaisy/src/dev/mpr121.h ****     }
 1077              		.loc 8 73 39 view .LVU287
 1078 015a 0094     		str	r4, [sp]
 1079 015c 7F48     		ldr	r0, .L41+32
 1080              	.LVL54:
  73:../../../libDaisy/src/dev/mpr121.h ****     }
 1081              		.loc 8 73 39 view .LVU288
 1082              	.LBE463:
 1083              	.LBE466:
 1084              	.LBB467:
 1085              	.LBB460:
 1086              		.loc 8 343 55 view .LVU289
 1087 015e 86F83020 		strb	r2, [r6, #48]
 1088              	.LVL55:
 1089              		.loc 8 343 55 view .LVU290
ARM GAS  /var/folders/yw/6_x9gyn52jjg4jtn_wsryx_80000gp/T//ccNwO1Mk.s 			page 45


 1090              	.LBE460:
 1091              	.LBE467:
 1092              	.LBB468:
 1093              	.LBI461:
  70:../../../libDaisy/src/dev/mpr121.h ****     {
 1094              		.loc 8 70 10 is_stmt 1 view .LVU291
 1095              	.LBB464:
  72:../../../libDaisy/src/dev/mpr121.h ****                != i2c_.ReceiveBlocking(config_.dev_addr, data, size, 10);
 1096              		.loc 8 72 9 view .LVU292
  73:../../../libDaisy/src/dev/mpr121.h ****     }
 1097              		.loc 8 73 39 is_stmt 0 view .LVU293
 1098 0162 02AA     		add	r2, sp, #8
 1099              	.LVL56:
  73:../../../libDaisy/src/dev/mpr121.h ****     }
 1100              		.loc 8 73 39 view .LVU294
 1101 0164 FFF7FEFF 		bl	_ZN5daisy9I2CHandle15ReceiveBlockingEtPhtm
 1102              	.LVL57:
  73:../../../libDaisy/src/dev/mpr121.h ****     }
 1103              		.loc 8 73 39 view .LVU295
 1104              	.LBE464:
 1105              	.LBE468:
 1106              	.LBB469:
 1107              	.LBI469:
 1108              		.loc 8 343 10 is_stmt 1 view .LVU296
 1109              	.LBB470:
 1110              		.loc 8 343 55 is_stmt 0 view .LVU297
 1111 0168 96F83020 		ldrb	r2, [r6, #48]	@ zero_extendqisi2
 1112              	.LBE470:
 1113              	.LBE469:
 1114              	.LBB473:
 1115              	.LBB474:
  66:../../../libDaisy/src/dev/mpr121.h ****     }
 1116              		.loc 8 66 40 view .LVU298
 1117 016c 0223     		movs	r3, #2
 1118 016e 96F82C10 		ldrb	r1, [r6, #44]	@ zero_extendqisi2
 1119              	.LBE474:
 1120              	.LBE473:
 1121              	.LBB477:
 1122              	.LBB471:
 1123              		.loc 8 343 55 view .LVU299
 1124 0172 4845     		cmp	r0, r9
 1125 0174 18BF     		it	ne
 1126 0176 42F00102 		orrne	r2, r2, #1
 1127              	.LBE471:
 1128              	.LBE477:
 1129              	.LBB478:
 1130              	.LBB475:
  66:../../../libDaisy/src/dev/mpr121.h ****     }
 1131              		.loc 8 66 40 view .LVU300
 1132 017a 0094     		str	r4, [sp]
 1133 017c 7748     		ldr	r0, .L41+32
 1134              	.LVL58:
  66:../../../libDaisy/src/dev/mpr121.h ****     }
 1135              		.loc 8 66 40 view .LVU301
 1136              	.LBE475:
 1137              	.LBE478:
 1138              	.LBB479:
ARM GAS  /var/folders/yw/6_x9gyn52jjg4jtn_wsryx_80000gp/T//ccNwO1Mk.s 			page 46


 1139              	.LBB472:
 1140              		.loc 8 343 55 view .LVU302
 1141 017e 86F83020 		strb	r2, [r6, #48]
 1142              	.LVL59:
 1143              		.loc 8 343 55 view .LVU303
 1144              	.LBE472:
 1145              	.LBE479:
 1146              	.LBB480:
 1147              	.LBI473:
  63:../../../libDaisy/src/dev/mpr121.h ****     {
 1148              		.loc 8 63 10 is_stmt 1 view .LVU304
 1149              	.LBB476:
  65:../../../libDaisy/src/dev/mpr121.h ****                != i2c_.TransmitBlocking(config_.dev_addr, data, size, 10);
 1150              		.loc 8 65 9 view .LVU305
  66:../../../libDaisy/src/dev/mpr121.h ****     }
 1151              		.loc 8 66 40 is_stmt 0 view .LVU306
 1152 0182 07AA     		add	r2, sp, #28
 1153              	.LVL60:
  66:../../../libDaisy/src/dev/mpr121.h ****     }
 1154              		.loc 8 66 40 view .LVU307
 1155 0184 FFF7FEFF 		bl	_ZN5daisy9I2CHandle16TransmitBlockingEtPhtm
 1156              	.LVL61:
  66:../../../libDaisy/src/dev/mpr121.h ****     }
 1157              		.loc 8 66 40 view .LVU308
 1158              	.LBE476:
 1159              	.LBE480:
 1160              	.LBB481:
 1161              	.LBI481:
 1162              		.loc 8 343 10 is_stmt 1 view .LVU309
 1163              	.LBB482:
 1164              		.loc 8 343 55 is_stmt 0 view .LVU310
 1165 0188 96F83020 		ldrb	r2, [r6, #48]	@ zero_extendqisi2
 1166              	.LBE482:
 1167              	.LBE481:
 1168              	.LBB485:
 1169              	.LBB486:
  66:../../../libDaisy/src/dev/mpr121.h ****     }
 1170              		.loc 8 66 40 view .LVU311
 1171 018c 0223     		movs	r3, #2
 1172 018e 96F82C10 		ldrb	r1, [r6, #44]	@ zero_extendqisi2
 1173              	.LBE486:
 1174              	.LBE485:
 1175              	.LBB490:
 1176              	.LBB483:
 1177              		.loc 8 343 55 view .LVU312
 1178 0192 4845     		cmp	r0, r9
 1179 0194 18BF     		it	ne
 1180 0196 42F00102 		orrne	r2, r2, #1
 1181              	.LBE483:
 1182              	.LBE490:
 1183              	.LBB491:
 1184              	.LBB487:
  66:../../../libDaisy/src/dev/mpr121.h ****     }
 1185              		.loc 8 66 40 view .LVU313
 1186 019a 0094     		str	r4, [sp]
 1187 019c 6F48     		ldr	r0, .L41+32
 1188              	.LVL62:
ARM GAS  /var/folders/yw/6_x9gyn52jjg4jtn_wsryx_80000gp/T//ccNwO1Mk.s 			page 47


  66:../../../libDaisy/src/dev/mpr121.h ****     }
 1189              		.loc 8 66 40 view .LVU314
 1190              	.LBE487:
 1191              	.LBE491:
 1192              	.LBB492:
 1193              	.LBB484:
 1194              		.loc 8 343 55 view .LVU315
 1195 019e 86F83020 		strb	r2, [r6, #48]
 1196              	.LVL63:
 1197              		.loc 8 343 55 view .LVU316
 1198              	.LBE484:
 1199              	.LBE492:
 1200              	.LBB493:
 1201              	.LBI485:
  63:../../../libDaisy/src/dev/mpr121.h ****     {
 1202              		.loc 8 63 10 is_stmt 1 view .LVU317
 1203              	.LBB488:
  65:../../../libDaisy/src/dev/mpr121.h ****                != i2c_.TransmitBlocking(config_.dev_addr, data, size, 10);
 1204              		.loc 8 65 9 view .LVU318
  66:../../../libDaisy/src/dev/mpr121.h ****     }
 1205              		.loc 8 66 40 is_stmt 0 view .LVU319
 1206 01a2 07AA     		add	r2, sp, #28
 1207              	.LVL64:
  66:../../../libDaisy/src/dev/mpr121.h ****     }
 1208              		.loc 8 66 40 view .LVU320
 1209              	.LBE488:
 1210              	.LBE493:
 281:../../../libDaisy/src/dev/mpr121.h ****         buff[1] = value;
 1211              		.loc 8 281 17 view .LVU321
 1212 01a4 8DF81C50 		strb	r5, [sp, #28]
 282:../../../libDaisy/src/dev/mpr121.h ****         SetTransportErr(transport_.Write(buff, 2));
 1213              		.loc 8 282 17 view .LVU322
 1214 01a8 8DF81DB0 		strb	fp, [sp, #29]
 1215              	.LBB494:
 1216              	.LBB489:
  66:../../../libDaisy/src/dev/mpr121.h ****     }
 1217              		.loc 8 66 40 view .LVU323
 1218 01ac FFF7FEFF 		bl	_ZN5daisy9I2CHandle16TransmitBlockingEtPhtm
 1219              	.LVL65:
  66:../../../libDaisy/src/dev/mpr121.h ****     }
 1220              		.loc 8 66 40 view .LVU324
 1221              	.LBE489:
 1222              	.LBE494:
 1223              	.LBB495:
 1224              	.LBI495:
 1225              		.loc 8 343 10 is_stmt 1 view .LVU325
 1226              	.LBB496:
 1227              		.loc 8 343 55 is_stmt 0 view .LVU326
 1228 01b0 96F83010 		ldrb	r1, [r6, #48]	@ zero_extendqisi2
 1229              	.LBE496:
 1230              	.LBE495:
 1231              	.LBB499:
 1232              	.LBB500:
  66:../../../libDaisy/src/dev/mpr121.h ****     }
 1233              		.loc 8 66 40 view .LVU327
 1234 01b4 07AA     		add	r2, sp, #28
 1235              	.LBE500:
ARM GAS  /var/folders/yw/6_x9gyn52jjg4jtn_wsryx_80000gp/T//ccNwO1Mk.s 			page 48


 1236              	.LBE499:
 289:../../../libDaisy/src/dev/mpr121.h ****             SetTransportErr(transport_.Write(buff, 2));
 1237              		.loc 8 289 21 view .LVU328
 1238 01b6 9DF80830 		ldrb	r3, [sp, #8]	@ zero_extendqisi2
 1239              	.LBB505:
 1240              	.LBB497:
 1241              		.loc 8 343 55 view .LVU329
 1242 01ba 4845     		cmp	r0, r9
 1243 01bc 18BF     		it	ne
 1244 01be 41F00101 		orrne	r1, r1, #1
 1245              	.LBE497:
 1246              	.LBE505:
 1247              	.LBB506:
 1248              	.LBB501:
  66:../../../libDaisy/src/dev/mpr121.h ****     }
 1249              		.loc 8 66 40 view .LVU330
 1250 01c2 0094     		str	r4, [sp]
 1251              	.LBE501:
 1252              	.LBE506:
 289:../../../libDaisy/src/dev/mpr121.h ****             SetTransportErr(transport_.Write(buff, 2));
 1253              		.loc 8 289 21 view .LVU331
 1254 01c4 8DF81D30 		strb	r3, [sp, #29]
 1255              	.LBB507:
 1256              	.LBB502:
  66:../../../libDaisy/src/dev/mpr121.h ****     }
 1257              		.loc 8 66 40 view .LVU332
 1258 01c8 0223     		movs	r3, #2
 1259              	.LBE502:
 1260              	.LBE507:
 1261              	.LBB508:
 1262              	.LBB498:
 1263              		.loc 8 343 55 view .LVU333
 1264 01ca 86F83010 		strb	r1, [r6, #48]
 1265              	.LVL66:
 1266              		.loc 8 343 55 view .LVU334
 1267              	.LBE498:
 1268              	.LBE508:
 1269              	.LBB509:
 1270              	.LBI499:
  63:../../../libDaisy/src/dev/mpr121.h ****     {
 1271              		.loc 8 63 10 is_stmt 1 view .LVU335
 1272              	.LBB503:
  65:../../../libDaisy/src/dev/mpr121.h ****                != i2c_.TransmitBlocking(config_.dev_addr, data, size, 10);
 1273              		.loc 8 65 9 view .LVU336
  66:../../../libDaisy/src/dev/mpr121.h ****     }
 1274              		.loc 8 66 40 is_stmt 0 view .LVU337
 1275 01ce 6348     		ldr	r0, .L41+32
 1276 01d0 96F82C10 		ldrb	r1, [r6, #44]	@ zero_extendqisi2
 1277              	.LBE503:
 1278              	.LBE509:
 288:../../../libDaisy/src/dev/mpr121.h ****             buff[1] = ecr_backup;
 1279              		.loc 8 288 21 view .LVU338
 1280 01d4 8DF81C80 		strb	r8, [sp, #28]
 1281              	.LBB510:
 1282              	.LBB504:
  66:../../../libDaisy/src/dev/mpr121.h ****     }
 1283              		.loc 8 66 40 view .LVU339
ARM GAS  /var/folders/yw/6_x9gyn52jjg4jtn_wsryx_80000gp/T//ccNwO1Mk.s 			page 49


 1284 01d8 FFF7FEFF 		bl	_ZN5daisy9I2CHandle16TransmitBlockingEtPhtm
 1285              	.LVL67:
  66:../../../libDaisy/src/dev/mpr121.h ****     }
 1286              		.loc 8 66 40 view .LVU340
 1287              	.LBE504:
 1288              	.LBE510:
 1289              	.LBB511:
 1290              	.LBI511:
 1291              		.loc 8 343 10 is_stmt 1 view .LVU341
 1292              	.LBB512:
 1293              		.loc 8 343 55 is_stmt 0 view .LVU342
 1294 01dc 96F83020 		ldrb	r2, [r6, #48]	@ zero_extendqisi2
 1295              	.LBE512:
 1296              	.LBE511:
 1297              	.LBE450:
 1298              	.LBE449:
 1299              	.LBB519:
 1300              	.LBB520:
 1301              	.LBB521:
 1302              	.LBB522:
  66:../../../libDaisy/src/dev/mpr121.h ****     }
 1303              		.loc 8 66 40 view .LVU343
 1304 01e0 0123     		movs	r3, #1
 1305 01e2 96F82C10 		ldrb	r1, [r6, #44]	@ zero_extendqisi2
 1306              	.LBE522:
 1307              	.LBE521:
 1308              	.LBE520:
 1309              	.LBE519:
 1310              	.LBB594:
 1311              	.LBB517:
 1312              	.LBB515:
 1313              	.LBB513:
 1314              		.loc 8 343 55 view .LVU344
 1315 01e6 4845     		cmp	r0, r9
 1316 01e8 18BF     		it	ne
 1317 01ea 42F00102 		orrne	r2, r2, #1
 1318              	.LBE513:
 1319              	.LBE515:
 1320              	.LBE517:
 1321              	.LBE594:
 1322              	.LBB595:
 1323              	.LBB589:
 1324              	.LBB526:
 1325              	.LBB523:
  66:../../../libDaisy/src/dev/mpr121.h ****     }
 1326              		.loc 8 66 40 view .LVU345
 1327 01ee 0094     		str	r4, [sp]
 1328 01f0 5A48     		ldr	r0, .L41+32
 1329              	.LVL68:
  66:../../../libDaisy/src/dev/mpr121.h ****     }
 1330              		.loc 8 66 40 view .LVU346
 1331              	.LBE523:
 1332              	.LBE526:
 1333              	.LBE589:
 1334              	.LBE595:
 1335              	.LBB596:
 1336              	.LBB518:
ARM GAS  /var/folders/yw/6_x9gyn52jjg4jtn_wsryx_80000gp/T//ccNwO1Mk.s 			page 50


 1337              	.LBB516:
 1338              	.LBB514:
 1339              		.loc 8 343 55 view .LVU347
 1340 01f2 86F83020 		strb	r2, [r6, #48]
 1341              	.LVL69:
 1342              		.loc 8 343 55 view .LVU348
 1343              	.LBE514:
 1344              	.LBE516:
 1345              	.LBE518:
 1346              	.LBE596:
 1347              	.LBB597:
 1348              	.LBI519:
 257:../../../libDaisy/src/dev/mpr121.h ****     {
 1349              		.loc 8 257 10 is_stmt 1 view .LVU349
 1350              	.LBB590:
 1351              	.LBB527:
 1352              	.LBI521:
  63:../../../libDaisy/src/dev/mpr121.h ****     {
 1353              		.loc 8 63 10 view .LVU350
 1354              	.LBB524:
  65:../../../libDaisy/src/dev/mpr121.h ****                != i2c_.TransmitBlocking(config_.dev_addr, data, size, 10);
 1355              		.loc 8 65 9 view .LVU351
  66:../../../libDaisy/src/dev/mpr121.h ****     }
 1356              		.loc 8 66 40 is_stmt 0 view .LVU352
 1357 01f6 07AA     		add	r2, sp, #28
 1358              	.LVL70:
  66:../../../libDaisy/src/dev/mpr121.h ****     }
 1359              		.loc 8 66 40 view .LVU353
 1360              	.LBE524:
 1361              	.LBE527:
 264:../../../libDaisy/src/dev/mpr121.h **** 
 1362              		.loc 8 264 17 view .LVU354
 1363 01f8 8DF81D90 		strb	r9, [sp, #29]
 1364 01fc 8DF81C80 		strb	r8, [sp, #28]
 1365              	.LBB528:
 1366              	.LBB525:
  66:../../../libDaisy/src/dev/mpr121.h ****     }
 1367              		.loc 8 66 40 view .LVU355
 1368 0200 FFF7FEFF 		bl	_ZN5daisy9I2CHandle16TransmitBlockingEtPhtm
 1369              	.LVL71:
  66:../../../libDaisy/src/dev/mpr121.h ****     }
 1370              		.loc 8 66 40 view .LVU356
 1371              	.LBE525:
 1372              	.LBE528:
 1373              	.LBB529:
 1374              	.LBI529:
 1375              		.loc 8 343 10 is_stmt 1 view .LVU357
 1376              	.LBB530:
 1377              		.loc 8 343 55 is_stmt 0 view .LVU358
 1378 0204 96F83020 		ldrb	r2, [r6, #48]	@ zero_extendqisi2
 1379              	.LBE530:
 1380              	.LBE529:
 1381              	.LBB533:
 1382              	.LBB534:
  73:../../../libDaisy/src/dev/mpr121.h ****     }
 1383              		.loc 8 73 39 view .LVU359
 1384 0208 0123     		movs	r3, #1
ARM GAS  /var/folders/yw/6_x9gyn52jjg4jtn_wsryx_80000gp/T//ccNwO1Mk.s 			page 51


 1385 020a 96F82C10 		ldrb	r1, [r6, #44]	@ zero_extendqisi2
 1386              	.LBE534:
 1387              	.LBE533:
 1388              	.LBB537:
 1389              	.LBB531:
 1390              		.loc 8 343 55 view .LVU360
 1391 020e 4845     		cmp	r0, r9
 1392 0210 18BF     		it	ne
 1393 0212 42F00102 		orrne	r2, r2, #1
 1394              	.LBE531:
 1395              	.LBE537:
 1396              	.LBB538:
 1397              	.LBB535:
  73:../../../libDaisy/src/dev/mpr121.h ****     }
 1398              		.loc 8 73 39 view .LVU361
 1399 0216 0094     		str	r4, [sp]
 1400 0218 5048     		ldr	r0, .L41+32
 1401              	.LVL72:
  73:../../../libDaisy/src/dev/mpr121.h ****     }
 1402              		.loc 8 73 39 view .LVU362
 1403              	.LBE535:
 1404              	.LBE538:
 1405              	.LBB539:
 1406              	.LBB532:
 1407              		.loc 8 343 55 view .LVU363
 1408 021a 86F83020 		strb	r2, [r6, #48]
 1409              	.LVL73:
 1410              		.loc 8 343 55 view .LVU364
 1411              	.LBE532:
 1412              	.LBE539:
 1413              	.LBB540:
 1414              	.LBI533:
  70:../../../libDaisy/src/dev/mpr121.h ****     {
 1415              		.loc 8 70 10 is_stmt 1 view .LVU365
 1416              	.LBB536:
  72:../../../libDaisy/src/dev/mpr121.h ****                != i2c_.ReceiveBlocking(config_.dev_addr, data, size, 10);
 1417              		.loc 8 72 9 view .LVU366
  73:../../../libDaisy/src/dev/mpr121.h ****     }
 1418              		.loc 8 73 39 is_stmt 0 view .LVU367
 1419 021e 02AA     		add	r2, sp, #8
 1420              	.LVL74:
  73:../../../libDaisy/src/dev/mpr121.h ****     }
 1421              		.loc 8 73 39 view .LVU368
 1422 0220 FFF7FEFF 		bl	_ZN5daisy9I2CHandle15ReceiveBlockingEtPhtm
 1423              	.LVL75:
  73:../../../libDaisy/src/dev/mpr121.h ****     }
 1424              		.loc 8 73 39 view .LVU369
 1425              	.LBE536:
 1426              	.LBE540:
 1427              	.LBB541:
 1428              	.LBI541:
 1429              		.loc 8 343 10 is_stmt 1 view .LVU370
 1430              	.LBB542:
 1431              		.loc 8 343 55 is_stmt 0 view .LVU371
 1432 0224 96F83020 		ldrb	r2, [r6, #48]	@ zero_extendqisi2
 1433              	.LBE542:
 1434              	.LBE541:
ARM GAS  /var/folders/yw/6_x9gyn52jjg4jtn_wsryx_80000gp/T//ccNwO1Mk.s 			page 52


 1435              	.LBB545:
 1436              	.LBB546:
  66:../../../libDaisy/src/dev/mpr121.h ****     }
 1437              		.loc 8 66 40 view .LVU372
 1438 0228 0223     		movs	r3, #2
 1439 022a 96F82C10 		ldrb	r1, [r6, #44]	@ zero_extendqisi2
 1440              	.LBE546:
 1441              	.LBE545:
 1442              	.LBB549:
 1443              	.LBB543:
 1444              		.loc 8 343 55 view .LVU373
 1445 022e 4845     		cmp	r0, r9
 1446 0230 18BF     		it	ne
 1447 0232 42F00102 		orrne	r2, r2, #1
 1448              	.LBE543:
 1449              	.LBE549:
 1450              	.LBB550:
 1451              	.LBB547:
  66:../../../libDaisy/src/dev/mpr121.h ****     }
 1452              		.loc 8 66 40 view .LVU374
 1453 0236 0094     		str	r4, [sp]
 1454 0238 4848     		ldr	r0, .L41+32
 1455              	.LVL76:
  66:../../../libDaisy/src/dev/mpr121.h ****     }
 1456              		.loc 8 66 40 view .LVU375
 1457              	.LBE547:
 1458              	.LBE550:
 1459              	.LBB551:
 1460              	.LBB544:
 1461              		.loc 8 343 55 view .LVU376
 1462 023a 86F83020 		strb	r2, [r6, #48]
 1463              	.LVL77:
 1464              		.loc 8 343 55 view .LVU377
 1465              	.LBE544:
 1466              	.LBE551:
 1467              	.LBB552:
 1468              	.LBI545:
  63:../../../libDaisy/src/dev/mpr121.h ****     {
 1469              		.loc 8 63 10 is_stmt 1 view .LVU378
 1470              	.LBB548:
  65:../../../libDaisy/src/dev/mpr121.h ****                != i2c_.TransmitBlocking(config_.dev_addr, data, size, 10);
 1471              		.loc 8 65 9 view .LVU379
  66:../../../libDaisy/src/dev/mpr121.h ****     }
 1472              		.loc 8 66 40 is_stmt 0 view .LVU380
 1473 023e 07AA     		add	r2, sp, #28
 1474              	.LVL78:
  66:../../../libDaisy/src/dev/mpr121.h ****     }
 1475              		.loc 8 66 40 view .LVU381
 1476 0240 FFF7FEFF 		bl	_ZN5daisy9I2CHandle16TransmitBlockingEtPhtm
 1477              	.LVL79:
  66:../../../libDaisy/src/dev/mpr121.h ****     }
 1478              		.loc 8 66 40 view .LVU382
 1479              	.LBE548:
 1480              	.LBE552:
 1481              	.LBB553:
 1482              	.LBI553:
 1483              		.loc 8 343 10 is_stmt 1 view .LVU383
ARM GAS  /var/folders/yw/6_x9gyn52jjg4jtn_wsryx_80000gp/T//ccNwO1Mk.s 			page 53


 1484              	.LBB554:
 1485              		.loc 8 343 55 is_stmt 0 view .LVU384
 1486 0244 96F83010 		ldrb	r1, [r6, #48]	@ zero_extendqisi2
 1487              	.LBE554:
 1488              	.LBE553:
 281:../../../libDaisy/src/dev/mpr121.h ****         buff[1] = value;
 1489              		.loc 8 281 17 view .LVU385
 1490 0248 6B1C     		adds	r3, r5, #1
 1491              	.LBB557:
 1492              	.LBB558:
  66:../../../libDaisy/src/dev/mpr121.h ****     }
 1493              		.loc 8 66 40 view .LVU386
 1494 024a 07AA     		add	r2, sp, #28
 1495              	.LBE558:
 1496              	.LBE557:
 1497              	.LBB564:
 1498              	.LBB555:
 1499              		.loc 8 343 55 view .LVU387
 1500 024c 4845     		cmp	r0, r9
 1501 024e 18BF     		it	ne
 1502 0250 41F00101 		orrne	r1, r1, #1
 1503              	.LBE555:
 1504              	.LBE564:
 1505              	.LBB565:
 1506              	.LBB559:
  66:../../../libDaisy/src/dev/mpr121.h ****     }
 1507              		.loc 8 66 40 view .LVU388
 1508 0254 0094     		str	r4, [sp]
 1509              	.LBE559:
 1510              	.LBE565:
 281:../../../libDaisy/src/dev/mpr121.h ****         buff[1] = value;
 1511              		.loc 8 281 17 view .LVU389
 1512 0256 8DF81C30 		strb	r3, [sp, #28]
 1513              	.LBB566:
 1514              	.LBB560:
  66:../../../libDaisy/src/dev/mpr121.h ****     }
 1515              		.loc 8 66 40 view .LVU390
 1516 025a 0223     		movs	r3, #2
 1517              	.LBE560:
 1518              	.LBE566:
 1519              	.LBB567:
 1520              	.LBB556:
 1521              		.loc 8 343 55 view .LVU391
 1522 025c 86F83010 		strb	r1, [r6, #48]
 1523              	.LVL80:
 1524              		.loc 8 343 55 view .LVU392
 1525              	.LBE556:
 1526              	.LBE567:
 1527              	.LBB568:
 1528              	.LBI557:
  63:../../../libDaisy/src/dev/mpr121.h ****     {
 1529              		.loc 8 63 10 is_stmt 1 view .LVU393
 1530              	.LBB561:
  65:../../../libDaisy/src/dev/mpr121.h ****                != i2c_.TransmitBlocking(config_.dev_addr, data, size, 10);
 1531              		.loc 8 65 9 view .LVU394
 1532              	.LBE561:
 1533              	.LBE568:
ARM GAS  /var/folders/yw/6_x9gyn52jjg4jtn_wsryx_80000gp/T//ccNwO1Mk.s 			page 54


 1534              	.LBE590:
 1535              	.LBE597:
 180:../../../libDaisy/src/dev/mpr121.h ****         {
 1536              		.loc 8 180 30 is_stmt 0 view .LVU395
 1537 0260 0235     		adds	r5, r5, #2
 1538              	.LVL81:
 1539              	.LBB598:
 1540              	.LBB591:
 1541              	.LBB569:
 1542              	.LBB562:
  66:../../../libDaisy/src/dev/mpr121.h ****     }
 1543              		.loc 8 66 40 view .LVU396
 1544 0262 96F82C10 		ldrb	r1, [r6, #44]	@ zero_extendqisi2
 1545 0266 3D48     		ldr	r0, .L41+32
 1546              	.LBE562:
 1547              	.LBE569:
 1548              	.LBE591:
 1549              	.LBE598:
 180:../../../libDaisy/src/dev/mpr121.h ****         {
 1550              		.loc 8 180 30 view .LVU397
 1551 0268 EDB2     		uxtb	r5, r5
 1552              	.LBB599:
 1553              	.LBB592:
 282:../../../libDaisy/src/dev/mpr121.h ****         SetTransportErr(transport_.Write(buff, 2));
 1554              		.loc 8 282 17 view .LVU398
 1555 026a 8DF81DA0 		strb	r10, [sp, #29]
 1556              	.LBB570:
 1557              	.LBB563:
  66:../../../libDaisy/src/dev/mpr121.h ****     }
 1558              		.loc 8 66 40 view .LVU399
 1559 026e FFF7FEFF 		bl	_ZN5daisy9I2CHandle16TransmitBlockingEtPhtm
 1560              	.LVL82:
  66:../../../libDaisy/src/dev/mpr121.h ****     }
 1561              		.loc 8 66 40 view .LVU400
 1562              	.LBE563:
 1563              	.LBE570:
 1564              	.LBB571:
 1565              	.LBI571:
 1566              		.loc 8 343 10 is_stmt 1 view .LVU401
 1567              	.LBB572:
 1568              		.loc 8 343 55 is_stmt 0 view .LVU402
 1569 0272 96F83020 		ldrb	r2, [r6, #48]	@ zero_extendqisi2
 1570              	.LBE572:
 1571              	.LBE571:
 1572              	.LBB575:
 1573              	.LBB576:
  66:../../../libDaisy/src/dev/mpr121.h ****     }
 1574              		.loc 8 66 40 view .LVU403
 1575 0276 0223     		movs	r3, #2
 1576              	.LBE576:
 1577              	.LBE575:
 289:../../../libDaisy/src/dev/mpr121.h ****             SetTransportErr(transport_.Write(buff, 2));
 1578              		.loc 8 289 21 view .LVU404
 1579 0278 9DF80810 		ldrb	r1, [sp, #8]	@ zero_extendqisi2
 1580              	.LBB580:
 1581              	.LBB577:
  66:../../../libDaisy/src/dev/mpr121.h ****     }
ARM GAS  /var/folders/yw/6_x9gyn52jjg4jtn_wsryx_80000gp/T//ccNwO1Mk.s 			page 55


 1582              		.loc 8 66 40 view .LVU405
 1583 027c 0094     		str	r4, [sp]
 1584              	.LBE577:
 1585              	.LBE580:
 1586              	.LBB581:
 1587              	.LBB573:
 1588              		.loc 8 343 55 view .LVU406
 1589 027e 4845     		cmp	r0, r9
 1590 0280 0CBF     		ite	eq
 1591 0282 1446     		moveq	r4, r2
 1592 0284 42F00104 		orrne	r4, r2, #1
 1593              	.LBE573:
 1594              	.LBE581:
 289:../../../libDaisy/src/dev/mpr121.h ****             SetTransportErr(transport_.Write(buff, 2));
 1595              		.loc 8 289 21 view .LVU407
 1596 0288 8DF81D10 		strb	r1, [sp, #29]
 1597              	.LBB582:
 1598              	.LBB578:
  66:../../../libDaisy/src/dev/mpr121.h ****     }
 1599              		.loc 8 66 40 view .LVU408
 1600 028c 07AA     		add	r2, sp, #28
 1601 028e 96F82C10 		ldrb	r1, [r6, #44]	@ zero_extendqisi2
 1602 0292 3248     		ldr	r0, .L41+32
 1603              	.LVL83:
  66:../../../libDaisy/src/dev/mpr121.h ****     }
 1604              		.loc 8 66 40 view .LVU409
 1605              	.LBE578:
 1606              	.LBE582:
 288:../../../libDaisy/src/dev/mpr121.h ****             buff[1] = ecr_backup;
 1607              		.loc 8 288 21 view .LVU410
 1608 0294 8DF81C80 		strb	r8, [sp, #28]
 1609              	.LBB583:
 1610              	.LBB574:
 1611              		.loc 8 343 55 view .LVU411
 1612 0298 86F83040 		strb	r4, [r6, #48]
 1613              	.LVL84:
 1614              		.loc 8 343 55 view .LVU412
 1615              	.LBE574:
 1616              	.LBE583:
 1617              	.LBB584:
 1618              	.LBI575:
  63:../../../libDaisy/src/dev/mpr121.h ****     {
 1619              		.loc 8 63 10 is_stmt 1 view .LVU413
 1620              	.LBB579:
  65:../../../libDaisy/src/dev/mpr121.h ****                != i2c_.TransmitBlocking(config_.dev_addr, data, size, 10);
 1621              		.loc 8 65 9 view .LVU414
  66:../../../libDaisy/src/dev/mpr121.h ****     }
 1622              		.loc 8 66 40 is_stmt 0 view .LVU415
 1623 029c FFF7FEFF 		bl	_ZN5daisy9I2CHandle16TransmitBlockingEtPhtm
 1624              	.LVL85:
  66:../../../libDaisy/src/dev/mpr121.h ****     }
 1625              		.loc 8 66 40 view .LVU416
 1626              	.LBE579:
 1627              	.LBE584:
 1628              	.LBB585:
 1629              	.LBI585:
 1630              		.loc 8 343 10 is_stmt 1 view .LVU417
ARM GAS  /var/folders/yw/6_x9gyn52jjg4jtn_wsryx_80000gp/T//ccNwO1Mk.s 			page 56


 1631              	.LBB586:
 1632              		.loc 8 343 55 is_stmt 0 view .LVU418
 1633 02a0 96F83030 		ldrb	r3, [r6, #48]	@ zero_extendqisi2
 1634 02a4 4845     		cmp	r0, r9
 1635 02a6 18BF     		it	ne
 1636 02a8 43F00103 		orrne	r3, r3, #1
 1637              	.LBE586:
 1638              	.LBE585:
 1639              	.LBE592:
 1640              	.LBE599:
 180:../../../libDaisy/src/dev/mpr121.h ****         {
 1641              		.loc 8 180 30 view .LVU419
 1642 02ac 592D     		cmp	r5, #89
 1643              	.LBB600:
 1644              	.LBB593:
 1645              	.LBB588:
 1646              	.LBB587:
 1647              		.loc 8 343 55 view .LVU420
 1648 02ae 86F83030 		strb	r3, [r6, #48]
 1649              	.LVL86:
 1650              		.loc 8 343 55 view .LVU421
 1651              	.LBE587:
 1652              	.LBE588:
 1653              	.LBE593:
 1654              	.LBE600:
 180:../../../libDaisy/src/dev/mpr121.h ****         {
 1655              		.loc 8 180 9 is_stmt 1 view .LVU422
 180:../../../libDaisy/src/dev/mpr121.h ****         {
 1656              		.loc 8 180 30 view .LVU423
 1657 02b2 7FF438AF 		bne	.L23
 1658              	.LVL87:
 180:../../../libDaisy/src/dev/mpr121.h ****         {
 1659              		.loc 8 180 30 is_stmt 0 view .LVU424
 1660              	.LBE448:
 1661              	.LBE447:
 134:../../../libDaisy/src/dev/mpr121.h ****         WriteRegister(MPR121_NHDR, 0x01);
 1662              		.loc 8 134 22 view .LVU425
 1663 02b6 0122     		movs	r2, #1
 1664 02b8 2B21     		movs	r1, #43
 1665 02ba 2248     		ldr	r0, .L41+8
 1666 02bc FFF7FEFF 		bl	_ZN5daisy6Mpr121INS_18Mpr121I2CTransportEE13WriteRegisterEhh
 1667              	.LVL88:
 135:../../../libDaisy/src/dev/mpr121.h ****         WriteRegister(MPR121_NCLR, 0x0E);
 1668              		.loc 8 135 22 view .LVU426
 1669 02c0 0122     		movs	r2, #1
 1670 02c2 2C21     		movs	r1, #44
 1671 02c4 1F48     		ldr	r0, .L41+8
 1672 02c6 FFF7FEFF 		bl	_ZN5daisy6Mpr121INS_18Mpr121I2CTransportEE13WriteRegisterEhh
 1673              	.LVL89:
 136:../../../libDaisy/src/dev/mpr121.h ****         WriteRegister(MPR121_FDLR, 0x00);
 1674              		.loc 8 136 22 view .LVU427
 1675 02ca 2D21     		movs	r1, #45
 1676 02cc 1D48     		ldr	r0, .L41+8
 1677 02ce 0E22     		movs	r2, #14
 1678 02d0 FFF7FEFF 		bl	_ZN5daisy6Mpr121INS_18Mpr121I2CTransportEE13WriteRegisterEhh
 1679              	.LVL90:
 137:../../../libDaisy/src/dev/mpr121.h **** 
ARM GAS  /var/folders/yw/6_x9gyn52jjg4jtn_wsryx_80000gp/T//ccNwO1Mk.s 			page 57


 1680              		.loc 8 137 22 view .LVU428
 1681 02d4 4A46     		mov	r2, r9
 1682 02d6 2E21     		movs	r1, #46
 1683 02d8 1A48     		ldr	r0, .L41+8
 1684 02da FFF7FEFF 		bl	_ZN5daisy6Mpr121INS_18Mpr121I2CTransportEE13WriteRegisterEhh
 1685              	.LVL91:
 139:../../../libDaisy/src/dev/mpr121.h ****         WriteRegister(MPR121_NHDF, 0x05);
 1686              		.loc 8 139 22 view .LVU429
 1687 02de 0122     		movs	r2, #1
 1688 02e0 2F21     		movs	r1, #47
 1689 02e2 1848     		ldr	r0, .L41+8
 1690 02e4 FFF7FEFF 		bl	_ZN5daisy6Mpr121INS_18Mpr121I2CTransportEE13WriteRegisterEhh
 1691              	.LVL92:
 140:../../../libDaisy/src/dev/mpr121.h ****         WriteRegister(MPR121_NCLF, 0x01);
 1692              		.loc 8 140 22 view .LVU430
 1693 02e8 0522     		movs	r2, #5
 1694 02ea 3021     		movs	r1, #48
 1695 02ec 1548     		ldr	r0, .L41+8
 1696 02ee FFF7FEFF 		bl	_ZN5daisy6Mpr121INS_18Mpr121I2CTransportEE13WriteRegisterEhh
 1697              	.LVL93:
 141:../../../libDaisy/src/dev/mpr121.h ****         WriteRegister(MPR121_FDLF, 0x00);
 1698              		.loc 8 141 22 view .LVU431
 1699 02f2 3121     		movs	r1, #49
 1700 02f4 1348     		ldr	r0, .L41+8
 1701 02f6 0122     		movs	r2, #1
 1702 02f8 FFF7FEFF 		bl	_ZN5daisy6Mpr121INS_18Mpr121I2CTransportEE13WriteRegisterEhh
 1703              	.LVL94:
 142:../../../libDaisy/src/dev/mpr121.h **** 
 1704              		.loc 8 142 22 view .LVU432
 1705 02fc 4A46     		mov	r2, r9
 1706 02fe 3221     		movs	r1, #50
 1707 0300 1048     		ldr	r0, .L41+8
 1708 0302 FFF7FEFF 		bl	_ZN5daisy6Mpr121INS_18Mpr121I2CTransportEE13WriteRegisterEhh
 1709              	.LVL95:
 144:../../../libDaisy/src/dev/mpr121.h ****         WriteRegister(MPR121_NCLT, 0x00);
 1710              		.loc 8 144 22 view .LVU433
 1711 0306 4A46     		mov	r2, r9
 1712 0308 3321     		movs	r1, #51
 1713 030a 0E48     		ldr	r0, .L41+8
 1714 030c FFF7FEFF 		bl	_ZN5daisy6Mpr121INS_18Mpr121I2CTransportEE13WriteRegisterEhh
 1715              	.LVL96:
 145:../../../libDaisy/src/dev/mpr121.h ****         WriteRegister(MPR121_FDLT, 0x00);
 1716              		.loc 8 145 22 view .LVU434
 1717 0310 4A46     		mov	r2, r9
 1718 0312 3421     		movs	r1, #52
 1719 0314 0B48     		ldr	r0, .L41+8
 1720 0316 FFF7FEFF 		bl	_ZN5daisy6Mpr121INS_18Mpr121I2CTransportEE13WriteRegisterEhh
 1721              	.LVL97:
 146:../../../libDaisy/src/dev/mpr121.h **** 
 1722              		.loc 8 146 22 view .LVU435
 1723 031a 4A46     		mov	r2, r9
 1724 031c 3521     		movs	r1, #53
 1725 031e 0948     		ldr	r0, .L41+8
 1726 0320 FFF7FEFF 		bl	_ZN5daisy6Mpr121INS_18Mpr121I2CTransportEE13WriteRegisterEhh
 1727              	.LVL98:
 148:../../../libDaisy/src/dev/mpr121.h ****         WriteRegister(MPR121_CONFIG1, 0x10); // default, 16uA charge current
 1728              		.loc 8 148 22 view .LVU436
ARM GAS  /var/folders/yw/6_x9gyn52jjg4jtn_wsryx_80000gp/T//ccNwO1Mk.s 			page 58


 1729 0324 4A46     		mov	r2, r9
 1730 0326 5B21     		movs	r1, #91
 1731 0328 0648     		ldr	r0, .L41+8
 1732 032a FFF7FEFF 		bl	_ZN5daisy6Mpr121INS_18Mpr121I2CTransportEE13WriteRegisterEhh
 1733              	.LVL99:
 149:../../../libDaisy/src/dev/mpr121.h ****         WriteRegister(MPR121_CONFIG2, 0x20); // 0.5uS encoding, 1ms period
 1734              		.loc 8 149 22 view .LVU437
 1735 032e 1022     		movs	r2, #16
 1736 0330 5C21     		movs	r1, #92
 1737 0332 0448     		ldr	r0, .L41+8
 1738 0334 FFF7FEFF 		bl	_ZN5daisy6Mpr121INS_18Mpr121I2CTransportEE13WriteRegisterEhh
 1739              	.LVL100:
 150:../../../libDaisy/src/dev/mpr121.h **** 
 1740              		.loc 8 150 22 view .LVU438
 1741 0338 2022     		movs	r2, #32
 1742 033a 11E0     		b	.L42
 1743              	.L43:
 1744              		.align	2
 1745              	.L41:
 1746 033c 00000000 		.word	.LANCHOR0
 1747 0340 00000000 		.word	.LANCHOR1
 1748 0344 00000000 		.word	.LANCHOR2
 1749 0348 00000000 		.word	_Z13AudioCallbackPKPKfPPfj
 1750 034c 0000C842 		.word	1120403456
 1751 0350 DB0F4940 		.word	1078530011
 1752 0354 0000DC43 		.word	1138491392
 1753 0358 01060107 		.word	117507585
 1754 035c 18000000 		.word	.LANCHOR2+24
 1755              	.L42:
 1756 0360 5D21     		movs	r1, #93
 1757 0362 2E48     		ldr	r0, .L44
 1758 0364 FFF7FEFF 		bl	_ZN5daisy6Mpr121INS_18Mpr121I2CTransportEE13WriteRegisterEhh
 1759              	.LVL101:
 166:../../../libDaisy/src/dev/mpr121.h ****                       ECR_SETTING); // start with above ECR setting
 1760              		.loc 8 166 22 view .LVU439
 1761 0368 2C48     		ldr	r0, .L44
 1762 036a 4146     		mov	r1, r8
 1763 036c 8C22     		movs	r2, #140
 1764 036e FFF7FEFF 		bl	_ZN5daisy6Mpr121INS_18Mpr121I2CTransportEE13WriteRegisterEhh
 1765              	.LVL102:
 1766              	.LBB601:
 1767              	.LBI601:
 344:../../../libDaisy/src/dev/mpr121.h **** 
 345:../../../libDaisy/src/dev/mpr121.h ****     /** Get the global transport_error_ bool (as a Result), then reset it */
 346:../../../libDaisy/src/dev/mpr121.h ****     Result GetTransportErr()
 1768              		.loc 8 346 12 is_stmt 1 view .LVU440
 1769              	.LBB602:
 347:../../../libDaisy/src/dev/mpr121.h ****     {
 348:../../../libDaisy/src/dev/mpr121.h ****         Result ret       = transport_error_ ? ERR : OK;
 1770              		.loc 8 348 45 is_stmt 0 view .LVU441
 1771 0372 96F83000 		ldrb	r0, [r6, #48]	@ zero_extendqisi2
 1772 0376 0028     		cmp	r0, #0
 1773 0378 4CD1     		bne	.L25
 1774              	.LVL103:
 1775              		.loc 8 348 45 view .LVU442
 1776              	.LBE602:
 1777              	.LBE601:
ARM GAS  /var/folders/yw/6_x9gyn52jjg4jtn_wsryx_80000gp/T//ccNwO1Mk.s 			page 59


 1778              	.LBE606:
 1779              	.LBE638:
  66:mpr121Test.cpp ****     {
  67:mpr121Test.cpp ****         // Handle initialization error
  68:mpr121Test.cpp ****         while(1)
  69:mpr121Test.cpp ****         {
  70:mpr121Test.cpp ****             // Error handling code (blinking LED, etc.)
  71:mpr121Test.cpp ****         }
  72:mpr121Test.cpp ****     }
  73:mpr121Test.cpp **** 	// Setup to print 
  74:mpr121Test.cpp **** 	hw.StartLog();
 1780              		.loc 7 74 2 is_stmt 1 view .LVU443
 1781              	.LBB639:
 1782              	.LBI639:
 126:../../../libDaisy/src/daisy_seed.h ****     {
 1783              		.loc 1 126 17 view .LVU444
 1784              	.LBB640:
 1785              		.loc 1 128 9 view .LVU445
 1786 037a DFF8B080 		ldr	r8, .L44+16
 1787              		.loc 1 128 22 is_stmt 0 view .LVU446
 1788 037e FFF7FEFF 		bl	_ZN5daisy6LoggerILNS_17LoggerDestinationE1EE8StartLogEb
 1789              	.LVL104:
 1790              	.L31:
 1791              		.loc 1 128 22 view .LVU447
 1792              	.LBE640:
 1793              	.LBE639:
  75:mpr121Test.cpp **** 
  76:mpr121Test.cpp **** 	while(1) 
 1794              		.loc 7 76 2 is_stmt 1 view .LVU448
 1795              	.LBB641:
  77:mpr121Test.cpp **** 	{
  78:mpr121Test.cpp **** 		// Read touch status
  79:mpr121Test.cpp ****         uint16_t touched = mpr121.Touched();
 1796              		.loc 7 79 9 view .LVU449
 1797              	.LBB642:
 1798              	.LBI642:
 221:../../../libDaisy/src/dev/mpr121.h ****     {
 1799              		.loc 8 221 14 view .LVU450
 1800              	.LBB643:
 1801              	.LBB644:
 1802              	.LBB645:
 1803              	.LBB646:
 1804              	.LBB647:
  66:../../../libDaisy/src/dev/mpr121.h ****     }
 1805              		.loc 8 66 40 is_stmt 0 view .LVU451
 1806 0382 4FF00A09 		mov	r9, #10
 1807 0386 0024     		movs	r4, #0
 1808 0388 0123     		movs	r3, #1
 1809 038a 02AA     		add	r2, sp, #8
 1810 038c 96F82C10 		ldrb	r1, [r6, #44]	@ zero_extendqisi2
 1811 0390 2348     		ldr	r0, .L44+4
 1812 0392 CDF80090 		str	r9, [sp]
 1813 0396 8DF80840 		strb	r4, [sp, #8]
 1814              	.LVL105:
  66:../../../libDaisy/src/dev/mpr121.h ****     }
 1815              		.loc 8 66 40 view .LVU452
 1816              	.LBE647:
ARM GAS  /var/folders/yw/6_x9gyn52jjg4jtn_wsryx_80000gp/T//ccNwO1Mk.s 			page 60


 1817              	.LBE646:
 1818              	.LBE645:
 1819              	.LBI644:
 244:../../../libDaisy/src/dev/mpr121.h ****     {
 1820              		.loc 8 244 14 is_stmt 1 view .LVU453
 1821              	.LBB668:
 1822              	.LBB649:
 1823              	.LBI646:
  63:../../../libDaisy/src/dev/mpr121.h ****     {
 1824              		.loc 8 63 10 view .LVU454
 1825              	.LBB648:
  65:../../../libDaisy/src/dev/mpr121.h ****                != i2c_.TransmitBlocking(config_.dev_addr, data, size, 10);
 1826              		.loc 8 65 9 view .LVU455
  66:../../../libDaisy/src/dev/mpr121.h ****     }
 1827              		.loc 8 66 40 is_stmt 0 view .LVU456
 1828 039a FFF7FEFF 		bl	_ZN5daisy9I2CHandle16TransmitBlockingEtPhtm
 1829              	.LVL106:
  66:../../../libDaisy/src/dev/mpr121.h ****     }
 1830              		.loc 8 66 40 view .LVU457
 1831              	.LBE648:
 1832              	.LBE649:
 1833              	.LBB650:
 1834              	.LBI650:
 343:../../../libDaisy/src/dev/mpr121.h **** 
 1835              		.loc 8 343 10 is_stmt 1 view .LVU458
 1836              	.LBB651:
 343:../../../libDaisy/src/dev/mpr121.h **** 
 1837              		.loc 8 343 55 is_stmt 0 view .LVU459
 1838 039e 96F83050 		ldrb	r5, [r6, #48]	@ zero_extendqisi2
 1839              	.LBE651:
 1840              	.LBE650:
 1841              	.LBB654:
 1842              	.LBB655:
  73:../../../libDaisy/src/dev/mpr121.h ****     }
 1843              		.loc 8 73 39 view .LVU460
 1844 03a2 0223     		movs	r3, #2
 1845 03a4 07AA     		add	r2, sp, #28
 1846 03a6 96F82C10 		ldrb	r1, [r6, #44]	@ zero_extendqisi2
 1847              	.LBE655:
 1848              	.LBE654:
 1849              	.LBB658:
 1850              	.LBB652:
 343:../../../libDaisy/src/dev/mpr121.h **** 
 1851              		.loc 8 343 55 view .LVU461
 1852 03aa A042     		cmp	r0, r4
 1853 03ac 18BF     		it	ne
 1854 03ae 45F00105 		orrne	r5, r5, #1
 1855              	.LBE652:
 1856              	.LBE658:
 1857              	.LBB659:
 1858              	.LBB656:
  73:../../../libDaisy/src/dev/mpr121.h ****     }
 1859              		.loc 8 73 39 view .LVU462
 1860 03b2 CDF80090 		str	r9, [sp]
 1861 03b6 1A48     		ldr	r0, .L44+4
 1862              	.LVL107:
  73:../../../libDaisy/src/dev/mpr121.h ****     }
ARM GAS  /var/folders/yw/6_x9gyn52jjg4jtn_wsryx_80000gp/T//ccNwO1Mk.s 			page 61


 1863              		.loc 8 73 39 view .LVU463
 1864              	.LBE656:
 1865              	.LBE659:
 1866              	.LBB660:
 1867              	.LBB653:
 343:../../../libDaisy/src/dev/mpr121.h **** 
 1868              		.loc 8 343 55 view .LVU464
 1869 03b8 86F83050 		strb	r5, [r6, #48]
 1870              	.LVL108:
 343:../../../libDaisy/src/dev/mpr121.h **** 
 1871              		.loc 8 343 55 view .LVU465
 1872              	.LBE653:
 1873              	.LBE660:
 1874              	.LBB661:
 1875              	.LBI654:
  70:../../../libDaisy/src/dev/mpr121.h ****     {
 1876              		.loc 8 70 10 is_stmt 1 view .LVU466
 1877              	.LBB657:
  72:../../../libDaisy/src/dev/mpr121.h ****                != i2c_.ReceiveBlocking(config_.dev_addr, data, size, 10);
 1878              		.loc 8 72 9 view .LVU467
  73:../../../libDaisy/src/dev/mpr121.h ****     }
 1879              		.loc 8 73 39 is_stmt 0 view .LVU468
 1880 03bc FFF7FEFF 		bl	_ZN5daisy9I2CHandle15ReceiveBlockingEtPhtm
 1881              	.LVL109:
  73:../../../libDaisy/src/dev/mpr121.h ****     }
 1882              		.loc 8 73 39 view .LVU469
 1883              	.LBE657:
 1884              	.LBE661:
 1885              	.LBB662:
 1886              	.LBI662:
 343:../../../libDaisy/src/dev/mpr121.h **** 
 1887              		.loc 8 343 10 is_stmt 1 view .LVU470
 1888              	.LBB663:
 343:../../../libDaisy/src/dev/mpr121.h **** 
 1889              		.loc 8 343 55 is_stmt 0 view .LVU471
 1890 03c0 96F83030 		ldrb	r3, [r6, #48]	@ zero_extendqisi2
 1891              	.LBE663:
 1892              	.LBE662:
 250:../../../libDaisy/src/dev/mpr121.h ****     }
 1893              		.loc 8 250 16 view .LVU472
 1894 03c4 BDF81C50 		ldrh	r5, [sp, #28]
 1895              	.LBB666:
 1896              	.LBB664:
 343:../../../libDaisy/src/dev/mpr121.h **** 
 1897              		.loc 8 343 55 view .LVU473
 1898 03c8 A042     		cmp	r0, r4
 1899 03ca 18BF     		it	ne
 1900 03cc 43F00103 		orrne	r3, r3, #1
 1901              	.LBE664:
 1902              	.LBE666:
 1903              	.LBE668:
 1904              	.LBE644:
 224:../../../libDaisy/src/dev/mpr121.h ****     }
 1905              		.loc 8 224 20 view .LVU474
 1906 03d0 C5F30B05 		ubfx	r5, r5, #0, #12
 1907              	.LBB670:
 1908              	.LBB669:
ARM GAS  /var/folders/yw/6_x9gyn52jjg4jtn_wsryx_80000gp/T//ccNwO1Mk.s 			page 62


 1909              	.LBB667:
 1910              	.LBB665:
 343:../../../libDaisy/src/dev/mpr121.h **** 
 1911              		.loc 8 343 55 view .LVU475
 1912 03d4 86F83030 		strb	r3, [r6, #48]
 1913              	.LVL110:
 343:../../../libDaisy/src/dev/mpr121.h **** 
 1914              		.loc 8 343 55 view .LVU476
 1915              	.LBE665:
 1916              	.LBE667:
 1917              	.LBE669:
 1918              	.LBE670:
 1919              	.LBE643:
 1920              	.LBE642:
  80:mpr121Test.cpp **** 
  81:mpr121Test.cpp ****         // Process the touch status as needed
  82:mpr121Test.cpp ****         for(int i = 0; i < 12; i++)
 1921              		.loc 7 82 9 is_stmt 1 view .LVU477
 1922              	.LBB671:
 1923              		.loc 7 82 26 view .LVU478
 1924 03d8 02E0     		b	.L28
 1925              	.LVL111:
 1926              	.L27:
 1927              		.loc 7 82 9 discriminator 2 view .LVU479
 1928 03da 0134     		adds	r4, r4, #1
 1929              	.LVL112:
 1930              		.loc 7 82 26 discriminator 2 view .LVU480
 1931 03dc 0C2C     		cmp	r4, #12
 1932 03de 0AD0     		beq	.L40
 1933              	.LVL113:
 1934              	.L28:
  83:mpr121Test.cpp ****         {
  84:mpr121Test.cpp ****             if(touched & (1 << i))
 1935              		.loc 7 84 13 view .LVU481
 1936              		.loc 7 84 24 is_stmt 0 view .LVU482
 1937 03e0 45FA04F3 		asr	r3, r5, r4
 1938              		.loc 7 84 13 view .LVU483
 1939 03e4 DB07     		lsls	r3, r3, #31
 1940 03e6 F8D5     		bpl	.L27
  85:mpr121Test.cpp ****             {
  86:mpr121Test.cpp ****                 // Channel i is touched, print the channel number
  87:mpr121Test.cpp ****                 hw.PrintLine("Channel %d touched", i);
 1941              		.loc 7 87 17 is_stmt 1 view .LVU484
 1942              	.LVL114:
 1943              	.LBB672:
 1944              	.LBI672:
 119:../../../libDaisy/src/daisy_seed.h ****     {
 1945              		.loc 1 119 17 view .LVU485
 1946              	.LBB673:
 121:../../../libDaisy/src/daisy_seed.h ****     }
 1947              		.loc 1 121 23 is_stmt 0 view .LVU486
 1948 03e8 2146     		mov	r1, r4
 1949              	.LBE673:
 1950              	.LBE672:
  82:mpr121Test.cpp ****         {
 1951              		.loc 7 82 9 view .LVU487
 1952 03ea 0134     		adds	r4, r4, #1
ARM GAS  /var/folders/yw/6_x9gyn52jjg4jtn_wsryx_80000gp/T//ccNwO1Mk.s 			page 63


 1953              	.LVL115:
 1954              	.LBB675:
 1955              	.LBB674:
 121:../../../libDaisy/src/daisy_seed.h ****     }
 1956              		.loc 1 121 23 view .LVU488
 1957 03ec 0D48     		ldr	r0, .L44+8
 1958 03ee FFF7FEFF 		bl	_ZN5daisy6LoggerILNS_17LoggerDestinationE1EE9PrintLineEPKcz
 1959              	.LVL116:
 121:../../../libDaisy/src/daisy_seed.h ****     }
 1960              		.loc 1 121 23 view .LVU489
 1961              	.LBE674:
 1962              	.LBE675:
  82:mpr121Test.cpp ****         {
 1963              		.loc 7 82 9 is_stmt 1 view .LVU490
  82:mpr121Test.cpp ****         {
 1964              		.loc 7 82 26 view .LVU491
 1965 03f2 0C2C     		cmp	r4, #12
 1966 03f4 F4D1     		bne	.L28
 1967              	.L40:
  82:mpr121Test.cpp ****         {
 1968              		.loc 7 82 26 is_stmt 0 view .LVU492
 1969              	.LBE671:
  88:mpr121Test.cpp ****             }
  89:mpr121Test.cpp ****         }
  90:mpr121Test.cpp **** 
  91:mpr121Test.cpp ****         switch (touched)
 1970              		.loc 7 91 9 is_stmt 1 view .LVU493
 1971 03f6 75B1     		cbz	r5, .L29
 1972 03f8 012D     		cmp	r5, #1
 1973 03fa C2D1     		bne	.L31
  92:mpr121Test.cpp ****         {
  93:mpr121Test.cpp ****         case 0:
  94:mpr121Test.cpp ****             osc.SetFreq(scale[0]);
  95:mpr121Test.cpp ****             break;
  96:mpr121Test.cpp ****         
  97:mpr121Test.cpp ****         case 1:
 1974              		.loc 7 97 9 view .LVU494
  98:mpr121Test.cpp ****             osc.SetFreq(scale[1]);
 1975              		.loc 7 98 13 view .LVU495
 1976              		.loc 7 98 24 is_stmt 0 view .LVU496
 1977 03fc 98ED020B 		vldr.64	d0, [r8, #8]
 1978              	.L39:
 1979 0400 B7EEC00B 		vcvt.f32.f64	s0, d0
 1980              	.LVL117:
 1981              	.LBB676:
 1982              	.LBI676:
  60:../../../DaisySP/Source/Synthesis/oscillator.h ****     {
 1983              		.loc 6 60 17 is_stmt 1 view .LVU497
 1984              	.LBB677:
  62:../../../DaisySP/Source/Synthesis/oscillator.h ****         phase_inc_ = CalcPhaseInc(f);
 1985              		.loc 6 62 9 view .LVU498
  63:../../../DaisySP/Source/Synthesis/oscillator.h ****     }
 1986              		.loc 6 63 34 is_stmt 0 view .LVU499
 1987 0404 0848     		ldr	r0, .L44+12
  62:../../../DaisySP/Source/Synthesis/oscillator.h ****         phase_inc_ = CalcPhaseInc(f);
 1988              		.loc 6 62 20 view .LVU500
 1989 0406 87ED020A 		vstr.32	s0, [r7, #8]
ARM GAS  /var/folders/yw/6_x9gyn52jjg4jtn_wsryx_80000gp/T//ccNwO1Mk.s 			page 64


  63:../../../DaisySP/Source/Synthesis/oscillator.h ****     }
 1990              		.loc 6 63 9 is_stmt 1 view .LVU501
  63:../../../DaisySP/Source/Synthesis/oscillator.h ****     }
 1991              		.loc 6 63 34 is_stmt 0 view .LVU502
 1992 040a FFF7FEFF 		bl	_ZN7daisysp10Oscillator12CalcPhaseIncEf
 1993              	.LVL118:
  63:../../../DaisySP/Source/Synthesis/oscillator.h ****     }
 1994              		.loc 6 63 20 view .LVU503
 1995 040e 87ED080A 		vstr.32	s0, [r7, #32]
  64:../../../DaisySP/Source/Synthesis/oscillator.h **** 
 1996              		.loc 6 64 5 view .LVU504
 1997 0412 B6E7     		b	.L31
 1998              	.LVL119:
 1999              	.L25:
  64:../../../DaisySP/Source/Synthesis/oscillator.h **** 
 2000              		.loc 6 64 5 view .LVU505
 2001              	.LBE677:
 2002              	.LBE676:
 2003              	.LBE641:
  68:mpr121Test.cpp ****         {
 2004              		.loc 7 68 9 is_stmt 1 discriminator 1 view .LVU506
  68:mpr121Test.cpp ****         {
 2005              		.loc 7 68 9 discriminator 1 view .LVU507
  68:mpr121Test.cpp ****         {
 2006              		.loc 7 68 9 discriminator 1 view .LVU508
  68:mpr121Test.cpp ****         {
 2007              		.loc 7 68 9 discriminator 1 view .LVU509
 2008 0414 FEE7     		b	.L25
 2009              	.LVL120:
 2010              	.L29:
 2011              	.LBB678:
  93:mpr121Test.cpp ****             osc.SetFreq(scale[0]);
 2012              		.loc 7 93 9 view .LVU510
  94:mpr121Test.cpp ****             break;
 2013              		.loc 7 94 13 view .LVU511
  94:mpr121Test.cpp ****             break;
 2014              		.loc 7 94 24 is_stmt 0 view .LVU512
 2015 0416 98ED000B 		vldr.64	d0, [r8]
 2016 041a F1E7     		b	.L39
 2017              	.L45:
 2018              		.align	2
 2019              	.L44:
 2020 041c 00000000 		.word	.LANCHOR2
 2021 0420 18000000 		.word	.LANCHOR2+24
 2022 0424 00000000 		.word	.LC0
 2023 0428 00000000 		.word	.LANCHOR1
 2024 042c 00000000 		.word	.LANCHOR3
 2025              	.LBE678:
 2026              		.cfi_endproc
 2027              	.LFE4790:
 2029              		.section	.text.startup._GLOBAL__sub_I_scale,"ax",%progbits
 2030              		.align	1
 2031              		.p2align 2,,3
 2032              		.syntax unified
 2033              		.thumb
 2034              		.thumb_func
 2036              	_GLOBAL__sub_I_scale:
ARM GAS  /var/folders/yw/6_x9gyn52jjg4jtn_wsryx_80000gp/T//ccNwO1Mk.s 			page 65


 2037              	.LFB5367:
  99:mpr121Test.cpp ****             break;
 100:mpr121Test.cpp ****         
 101:mpr121Test.cpp ****         default:
 102:mpr121Test.cpp ****             break;
 103:mpr121Test.cpp ****         }
 104:mpr121Test.cpp ****         // Add necessary delay or other code here...
 105:mpr121Test.cpp ****     }
 106:mpr121Test.cpp **** }
 2038              		.loc 7 106 1 is_stmt 1 view -0
 2039              		.cfi_startproc
 2040              		@ args = 0, pretend = 0, frame = 0
 2041              		@ frame_needed = 0, uses_anonymous_args = 0
 2042              	.LBB727:
 2043              	.LBI727:
 2044              		.loc 7 106 1 view .LVU514
 2045              	.LVL121:
 2046              	.LBB728:
 2047              	.LBB729:
 2048              	.LBI729:
  21:../../../libDaisy/src/daisy_seed.h ****     ~DaisySeed() {}
 2049              		.loc 1 21 5 view .LVU515
 2050              	.LBB730:
 2051              	.LBB731:
 2052              	.LBI731:
 2053              		.file 11 "../../../libDaisy/src/per/qspi.h"
   1:../../../libDaisy/src/per/qspi.h **** #ifndef DSY_QSPI
   2:../../../libDaisy/src/per/qspi.h **** #define DSY_QSPI /**< Macro */
   3:../../../libDaisy/src/per/qspi.h **** 
   4:../../../libDaisy/src/per/qspi.h **** #ifndef UNIT_TEST // for unit tests, a dummy implementation
   5:../../../libDaisy/src/per/qspi.h **** 
   6:../../../libDaisy/src/per/qspi.h **** #include <cstdint>
   7:../../../libDaisy/src/per/qspi.h **** #include "daisy_core.h" // Added for dsy_gpio_pin typedef
   8:../../../libDaisy/src/per/qspi.h **** 
   9:../../../libDaisy/src/per/qspi.h **** #define DSY_QSPI_TEXT       \
  10:../../../libDaisy/src/per/qspi.h ****     __attribute__((section( \
  11:../../../libDaisy/src/per/qspi.h ****         ".qspiflash_text"))) /**< used for reading memory in memory_mapped mode. */
  12:../../../libDaisy/src/per/qspi.h **** #define DSY_QSPI_DATA       \
  13:../../../libDaisy/src/per/qspi.h ****     __attribute__((section( \
  14:../../../libDaisy/src/per/qspi.h ****         ".qspiflash_data"))) /**< used for reading memory in memory_mapped mode. */
  15:../../../libDaisy/src/per/qspi.h **** #define DSY_QSPI_BSS        \
  16:../../../libDaisy/src/per/qspi.h ****     __attribute__((section( \
  17:../../../libDaisy/src/per/qspi.h ****         ".qspiflash_bss"))) /**< used for reading memory in memory_mapped mode. */
  18:../../../libDaisy/src/per/qspi.h **** 
  19:../../../libDaisy/src/per/qspi.h **** namespace daisy
  20:../../../libDaisy/src/per/qspi.h **** {
  21:../../../libDaisy/src/per/qspi.h **** /** @addtogroup serial
  22:../../../libDaisy/src/per/qspi.h **** @{
  23:../../../libDaisy/src/per/qspi.h **** */
  24:../../../libDaisy/src/per/qspi.h **** 
  25:../../../libDaisy/src/per/qspi.h **** /** 
  26:../../../libDaisy/src/per/qspi.h ****  Driver for QSPI peripheral to interface with external flash memory. \n 
  27:../../../libDaisy/src/per/qspi.h ****     Currently supported QSPI Devices: \n 
  28:../../../libDaisy/src/per/qspi.h ****     * IS25LP080D
  29:../../../libDaisy/src/per/qspi.h **** */
  30:../../../libDaisy/src/per/qspi.h **** class QSPIHandle
  31:../../../libDaisy/src/per/qspi.h **** {
ARM GAS  /var/folders/yw/6_x9gyn52jjg4jtn_wsryx_80000gp/T//ccNwO1Mk.s 			page 66


  32:../../../libDaisy/src/per/qspi.h ****   public:
  33:../../../libDaisy/src/per/qspi.h ****     enum Result
  34:../../../libDaisy/src/per/qspi.h ****     {
  35:../../../libDaisy/src/per/qspi.h ****         OK = 0,
  36:../../../libDaisy/src/per/qspi.h ****         ERR
  37:../../../libDaisy/src/per/qspi.h ****     };
  38:../../../libDaisy/src/per/qspi.h **** 
  39:../../../libDaisy/src/per/qspi.h ****     /** Indicates the current status of the module. 
  40:../../../libDaisy/src/per/qspi.h ****          *  Warnings are indicated by a leading W.
  41:../../../libDaisy/src/per/qspi.h ****          *  Errors are indicated by a leading E and cause an immediate exit.
  42:../../../libDaisy/src/per/qspi.h ****          * 
  43:../../../libDaisy/src/per/qspi.h ****          *  \param GOOD - No errors have been reported.
  44:../../../libDaisy/src/per/qspi.h ****          *  \param E_HAL_ERROR - HAL code did not return HAL_OK.
  45:../../../libDaisy/src/per/qspi.h ****          *  \param E_SWITCHING_MODES - An error was encountered while switching QSPI peripheral mod
  46:../../../libDaisy/src/per/qspi.h ****          *  \param E_INVALID_MODE - QSPI should not be written to while the program is executing fr
  47:../../../libDaisy/src/per/qspi.h ****          */
  48:../../../libDaisy/src/per/qspi.h ****     enum Status
  49:../../../libDaisy/src/per/qspi.h ****     {
  50:../../../libDaisy/src/per/qspi.h ****         GOOD = 0,
  51:../../../libDaisy/src/per/qspi.h ****         E_HAL_ERROR,
  52:../../../libDaisy/src/per/qspi.h ****         E_SWITCHING_MODES,
  53:../../../libDaisy/src/per/qspi.h ****         E_INVALID_MODE,
  54:../../../libDaisy/src/per/qspi.h ****     };
  55:../../../libDaisy/src/per/qspi.h **** 
  56:../../../libDaisy/src/per/qspi.h ****     /** Configuration structure for interfacing with QSPI Driver */
  57:../../../libDaisy/src/per/qspi.h ****     struct Config
  58:../../../libDaisy/src/per/qspi.h ****     {
  59:../../../libDaisy/src/per/qspi.h ****         /** Flash Devices supported. (Both of these are more-or-less the same, just different sizes
  60:../../../libDaisy/src/per/qspi.h ****         enum Device
  61:../../../libDaisy/src/per/qspi.h ****         {
  62:../../../libDaisy/src/per/qspi.h ****             IS25LP080D,  /**< & */
  63:../../../libDaisy/src/per/qspi.h ****             IS25LP064A,  /**< & */
  64:../../../libDaisy/src/per/qspi.h ****             DEVICE_LAST, /**< & */
  65:../../../libDaisy/src/per/qspi.h ****         };
  66:../../../libDaisy/src/per/qspi.h **** 
  67:../../../libDaisy/src/per/qspi.h ****         /** 
  68:../../../libDaisy/src/per/qspi.h ****         Modes of operation.
  69:../../../libDaisy/src/per/qspi.h ****         Memory Mapped mode: QSPI configured so that the QSPI can be
  70:../../../libDaisy/src/per/qspi.h ****         read from starting address 0x90000000. Writing is not
  71:../../../libDaisy/src/per/qspi.h ****         possible in this mode. \n 
  72:../../../libDaisy/src/per/qspi.h ****         Indirect Polling mode: Device driver enabled. 
  73:../../../libDaisy/src/per/qspi.h ****         */
  74:../../../libDaisy/src/per/qspi.h ****         enum Mode
  75:../../../libDaisy/src/per/qspi.h ****         {
  76:../../../libDaisy/src/per/qspi.h ****             MEMORY_MAPPED,    /**< & */
  77:../../../libDaisy/src/per/qspi.h ****             INDIRECT_POLLING, /**< & */
  78:../../../libDaisy/src/per/qspi.h ****             MODE_LAST,
  79:../../../libDaisy/src/per/qspi.h ****         };
  80:../../../libDaisy/src/per/qspi.h **** 
  81:../../../libDaisy/src/per/qspi.h ****         //SCK,  CE# (active low)
  82:../../../libDaisy/src/per/qspi.h ****         struct
  83:../../../libDaisy/src/per/qspi.h ****         {
  84:../../../libDaisy/src/per/qspi.h ****             dsy_gpio_pin io0; /**< & */
  85:../../../libDaisy/src/per/qspi.h ****             dsy_gpio_pin io1; /**< & */
  86:../../../libDaisy/src/per/qspi.h ****             dsy_gpio_pin io2; /**< & */
  87:../../../libDaisy/src/per/qspi.h ****             dsy_gpio_pin io3; /**< & */
  88:../../../libDaisy/src/per/qspi.h ****             dsy_gpio_pin clk; /**< & */
ARM GAS  /var/folders/yw/6_x9gyn52jjg4jtn_wsryx_80000gp/T//ccNwO1Mk.s 			page 67


  89:../../../libDaisy/src/per/qspi.h ****             dsy_gpio_pin ncs; /**< & */
  90:../../../libDaisy/src/per/qspi.h ****         } pin_config;
  91:../../../libDaisy/src/per/qspi.h **** 
  92:../../../libDaisy/src/per/qspi.h ****         Device device;
  93:../../../libDaisy/src/per/qspi.h ****         Mode   mode;
  94:../../../libDaisy/src/per/qspi.h ****     };
  95:../../../libDaisy/src/per/qspi.h **** 
  96:../../../libDaisy/src/per/qspi.h ****     /** 
  97:../../../libDaisy/src/per/qspi.h ****         Initializes QSPI peripheral, and Resets, and prepares memory for access.
  98:../../../libDaisy/src/per/qspi.h ****         \param config should be populated with the mode, device and pin_config before calling this 
  99:../../../libDaisy/src/per/qspi.h ****         \return Result::OK or Result::ERR
 100:../../../libDaisy/src/per/qspi.h ****         */
 101:../../../libDaisy/src/per/qspi.h ****     Result Init(const Config& config);
 102:../../../libDaisy/src/per/qspi.h **** 
 103:../../../libDaisy/src/per/qspi.h ****     /** Returns the current config. */
 104:../../../libDaisy/src/per/qspi.h ****     const Config& GetConfig() const;
 105:../../../libDaisy/src/per/qspi.h **** 
 106:../../../libDaisy/src/per/qspi.h ****     // Couldn't this just be called before anything else in init? That
 107:../../../libDaisy/src/per/qspi.h ****     // would make manually calling it unnecessary.
 108:../../../libDaisy/src/per/qspi.h ****     /** 
 109:../../../libDaisy/src/per/qspi.h ****         Deinitializes the peripheral
 110:../../../libDaisy/src/per/qspi.h ****         This should be called before reinitializing QSPI in a different mode.
 111:../../../libDaisy/src/per/qspi.h ****         \return Result::OK or Result::ERR
 112:../../../libDaisy/src/per/qspi.h ****         */
 113:../../../libDaisy/src/per/qspi.h ****     Result DeInit();
 114:../../../libDaisy/src/per/qspi.h **** 
 115:../../../libDaisy/src/per/qspi.h ****     /** 
 116:../../../libDaisy/src/per/qspi.h ****         Writes a single page to to the specified address on the QSPI chip.
 117:../../../libDaisy/src/per/qspi.h ****         For IS25LP*, page size is 256 bytes.
 118:../../../libDaisy/src/per/qspi.h ****         \param address Address to write to
 119:../../../libDaisy/src/per/qspi.h ****         \param size Buffer size
 120:../../../libDaisy/src/per/qspi.h ****         \param buffer Buffer to write
 121:../../../libDaisy/src/per/qspi.h ****         \return Result::OK or Result::ERR
 122:../../../libDaisy/src/per/qspi.h ****         */
 123:../../../libDaisy/src/per/qspi.h ****     Result WritePage(uint32_t address, uint32_t size, uint8_t* buffer);
 124:../../../libDaisy/src/per/qspi.h **** 
 125:../../../libDaisy/src/per/qspi.h ****     /** 
 126:../../../libDaisy/src/per/qspi.h ****         Writes data in buffer to to the QSPI. Starting at address to address+size 
 127:../../../libDaisy/src/per/qspi.h ****         \param address Address to write to
 128:../../../libDaisy/src/per/qspi.h ****         \param size Buffer size
 129:../../../libDaisy/src/per/qspi.h ****         \param buffer Buffer to write
 130:../../../libDaisy/src/per/qspi.h ****         \return Result::OK or Result::ERR
 131:../../../libDaisy/src/per/qspi.h ****         */
 132:../../../libDaisy/src/per/qspi.h ****     Result Write(uint32_t address, uint32_t size, uint8_t* buffer);
 133:../../../libDaisy/src/per/qspi.h **** 
 134:../../../libDaisy/src/per/qspi.h ****     /** 
 135:../../../libDaisy/src/per/qspi.h ****         Erases the area specified on the chip.
 136:../../../libDaisy/src/per/qspi.h ****         Erasures will happen by 4K, 32K or 64K increments.
 137:../../../libDaisy/src/per/qspi.h ****         Smallest erase possible is 4kB at a time. (on IS25LP*)
 138:../../../libDaisy/src/per/qspi.h ****         \param start_addr Address to begin erasing from
 139:../../../libDaisy/src/per/qspi.h ****         \param end_addr  Address to stop erasing at
 140:../../../libDaisy/src/per/qspi.h ****         \return Result::OK or Result::ERR
 141:../../../libDaisy/src/per/qspi.h ****         */
 142:../../../libDaisy/src/per/qspi.h ****     Result Erase(uint32_t start_addr, uint32_t end_addr);
 143:../../../libDaisy/src/per/qspi.h **** 
 144:../../../libDaisy/src/per/qspi.h ****     /**  
 145:../../../libDaisy/src/per/qspi.h ****          Erases a single sector of the chip.  
ARM GAS  /var/folders/yw/6_x9gyn52jjg4jtn_wsryx_80000gp/T//ccNwO1Mk.s 			page 68


 146:../../../libDaisy/src/per/qspi.h ****         TODO: Document the size of this function. 
 147:../../../libDaisy/src/per/qspi.h ****         \param address Address of sector to erase
 148:../../../libDaisy/src/per/qspi.h ****         \return Result::OK or Result::ERR
 149:../../../libDaisy/src/per/qspi.h ****         */
 150:../../../libDaisy/src/per/qspi.h ****     Result EraseSector(uint32_t address);
 151:../../../libDaisy/src/per/qspi.h **** 
 152:../../../libDaisy/src/per/qspi.h ****     /** Returns the current class status. Useful for debugging.
 153:../../../libDaisy/src/per/qspi.h ****      *  \returns Status
 154:../../../libDaisy/src/per/qspi.h ****      */
 155:../../../libDaisy/src/per/qspi.h ****     Status GetStatus();
 156:../../../libDaisy/src/per/qspi.h **** 
 157:../../../libDaisy/src/per/qspi.h ****     /** Returns a pointer to the actual memory used 
 158:../../../libDaisy/src/per/qspi.h ****      *  The memory at this address is read-only
 159:../../../libDaisy/src/per/qspi.h ****      *  to write to it use the Write function.
 160:../../../libDaisy/src/per/qspi.h ****      * 
 161:../../../libDaisy/src/per/qspi.h ****      *  \param offset returns the pointer starting this 
 162:../../../libDaisy/src/per/qspi.h ****      *                many bytes into the memory
 163:../../../libDaisy/src/per/qspi.h ****     */
 164:../../../libDaisy/src/per/qspi.h ****     void* GetData(uint32_t offset = 0);
 165:../../../libDaisy/src/per/qspi.h **** 
 166:../../../libDaisy/src/per/qspi.h ****     QSPIHandle() : pimpl_(nullptr) {}
 2054              		.loc 11 166 5 view .LVU516
 2055              	.LBE731:
 2056              	.LBE730:
 2057              	.LBE729:
 2058              	.LBE728:
 2059              	.LBE727:
 2060              		.loc 7 106 1 is_stmt 0 view .LVU517
 2061 0000 10B5     		push	{r4, lr}
 2062              		.cfi_def_cfa_offset 8
 2063              		.cfi_offset 4, -8
 2064              		.cfi_offset 14, -4
 2065              	.LBB794:
 2066              	.LBB792:
 2067              	.LBB749:
 2068              	.LBB747:
 2069              	.LBB736:
 2070              	.LBB732:
 2071              	.LBB733:
 2072              		.loc 11 166 34 view .LVU518
 2073 0002 1248     		ldr	r0, .L48
 2074 0004 0024     		movs	r4, #0
 2075              	.LBE733:
 2076              	.LBE732:
 2077              	.LBE736:
 2078              	.LBE747:
 2079              	.LBE749:
  24:mpr121Test.cpp **** Mpr121I2C mpr121;
 2080              		.loc 7 24 11 view .LVU519
 2081 0006 124A     		ldr	r2, .L48+4
 2082 0008 1249     		ldr	r1, .L48+8
 2083              	.LBB750:
 2084              	.LBB748:
 2085              	.LBB737:
 2086              	.LBB735:
 2087              	.LBB734:
 2088              		.loc 11 166 34 view .LVU520
ARM GAS  /var/folders/yw/6_x9gyn52jjg4jtn_wsryx_80000gp/T//ccNwO1Mk.s 			page 69


 2089 000a 0460     		str	r4, [r0]
 2090              	.LVL122:
 2091              		.loc 11 166 34 view .LVU521
 2092              	.LBE734:
 2093              	.LBE735:
 2094              	.LBE737:
 2095              	.LBB738:
 2096              	.LBI738:
  95:../../../libDaisy/src/hid/audio.h ****     ~AudioHandle() {}
 2097              		.loc 5 95 5 is_stmt 1 view .LVU522
 2098              	.LBB739:
 2099              	.LBB740:
  95:../../../libDaisy/src/hid/audio.h ****     ~AudioHandle() {}
 2100              		.loc 5 95 35 is_stmt 0 view .LVU523
 2101 000c 4461     		str	r4, [r0, #20]
 2102              	.LVL123:
  95:../../../libDaisy/src/hid/audio.h ****     ~AudioHandle() {}
 2103              		.loc 5 95 35 view .LVU524
 2104              	.LBE740:
 2105              	.LBE739:
 2106              	.LBE738:
 2107              	.LBB741:
 2108              	.LBI741:
  92:../../../libDaisy/src/per/adc.h ****     ~AdcHandle() {}
 2109              		.loc 4 92 5 is_stmt 1 view .LVU525
  92:../../../libDaisy/src/per/adc.h ****     ~AdcHandle() {}
 2110              		.loc 4 92 5 is_stmt 0 view .LVU526
 2111              	.LBE741:
 2112              	.LBB742:
 2113              	.LBI742:
 2114              		.file 12 "../../../libDaisy/src/per/dac.h"
   1:../../../libDaisy/src/per/dac.h **** #pragma once
   2:../../../libDaisy/src/per/dac.h **** #ifndef DSY_DAC_H
   3:../../../libDaisy/src/per/dac.h **** #define DSY_DAC_H
   4:../../../libDaisy/src/per/dac.h **** 
   5:../../../libDaisy/src/per/dac.h **** #include "daisy_core.h"
   6:../../../libDaisy/src/per/dac.h **** 
   7:../../../libDaisy/src/per/dac.h **** namespace daisy
   8:../../../libDaisy/src/per/dac.h **** {
   9:../../../libDaisy/src/per/dac.h **** /** @brief DAC handle for Built-in DAC Peripheral 
  10:../../../libDaisy/src/per/dac.h ****  *  @ingroup per_analog
  11:../../../libDaisy/src/per/dac.h ****  ** 
  12:../../../libDaisy/src/per/dac.h ****  ** For now only Normal Mode is supported,
  13:../../../libDaisy/src/per/dac.h ****  ** Sample and hold mode provides reduced power consumption, but requires a bit more setup.
  14:../../../libDaisy/src/per/dac.h ****  **
  15:../../../libDaisy/src/per/dac.h ****  ** For now connecting the DAC through other internal peripherals is also not supported.
  16:../../../libDaisy/src/per/dac.h ****  **
  17:../../../libDaisy/src/per/dac.h ****  ** Since the DAC channels have dedicated pins we don't need to pass in a pin config like with
  18:../../../libDaisy/src/per/dac.h ****  ** other modules. However, it is still important to not try to use the DAC pins for anything else.
  19:../../../libDaisy/src/per/dac.h ****  ** DAC Channel 1 is on PA4, and DAC Channel 2 is on PA5
  20:../../../libDaisy/src/per/dac.h ****  ***/
  21:../../../libDaisy/src/per/dac.h **** class DacHandle
  22:../../../libDaisy/src/per/dac.h **** {
  23:../../../libDaisy/src/per/dac.h ****   public:
  24:../../../libDaisy/src/per/dac.h ****     /** Return Values for the DacHandle class */
  25:../../../libDaisy/src/per/dac.h ****     enum class Result
  26:../../../libDaisy/src/per/dac.h ****     {
ARM GAS  /var/folders/yw/6_x9gyn52jjg4jtn_wsryx_80000gp/T//ccNwO1Mk.s 			page 70


  27:../../../libDaisy/src/per/dac.h ****         OK,
  28:../../../libDaisy/src/per/dac.h ****         ERR,
  29:../../../libDaisy/src/per/dac.h ****     };
  30:../../../libDaisy/src/per/dac.h **** 
  31:../../../libDaisy/src/per/dac.h ****     /** Selects which channel(s) will be configured for use. */
  32:../../../libDaisy/src/per/dac.h ****     enum class Channel
  33:../../../libDaisy/src/per/dac.h ****     {
  34:../../../libDaisy/src/per/dac.h ****         ONE,
  35:../../../libDaisy/src/per/dac.h ****         TWO,
  36:../../../libDaisy/src/per/dac.h ****         BOTH,
  37:../../../libDaisy/src/per/dac.h ****     };
  38:../../../libDaisy/src/per/dac.h **** 
  39:../../../libDaisy/src/per/dac.h ****     /** Sets the Mode for the DAC channels.
  40:../../../libDaisy/src/per/dac.h ****      **
  41:../../../libDaisy/src/per/dac.h ****      ** Polling mode uses the blocking mode to transmit a single value at a time.
  42:../../../libDaisy/src/per/dac.h ****      **
  43:../../../libDaisy/src/per/dac.h ****      ** DMA mode uses a buffer, and periodically transmits it triggering a 
  44:../../../libDaisy/src/per/dac.h ****      ** callback to fill the buffer when it is ready for more samples.
  45:../../../libDaisy/src/per/dac.h ****      ***/
  46:../../../libDaisy/src/per/dac.h ****     enum class Mode
  47:../../../libDaisy/src/per/dac.h ****     {
  48:../../../libDaisy/src/per/dac.h ****         POLLING,
  49:../../../libDaisy/src/per/dac.h ****         DMA,
  50:../../../libDaisy/src/per/dac.h ****     };
  51:../../../libDaisy/src/per/dac.h **** 
  52:../../../libDaisy/src/per/dac.h ****     /** Sets the number of bits per sample transmitted out of the DAC.
  53:../../../libDaisy/src/per/dac.h ****      ** The output range will be: 0V - VDDA
  54:../../../libDaisy/src/per/dac.h ****      ** The resolution will be roughly: bitdepth / (VDDA - 0V) 
  55:../../../libDaisy/src/per/dac.h ****      ***/
  56:../../../libDaisy/src/per/dac.h ****     enum class BitDepth
  57:../../../libDaisy/src/per/dac.h ****     {
  58:../../../libDaisy/src/per/dac.h ****         BITS_8,
  59:../../../libDaisy/src/per/dac.h ****         BITS_12
  60:../../../libDaisy/src/per/dac.h ****     };
  61:../../../libDaisy/src/per/dac.h **** 
  62:../../../libDaisy/src/per/dac.h ****     /** Sets whether the DAC output is buffered for higher drive ability. */
  63:../../../libDaisy/src/per/dac.h ****     enum class BufferState
  64:../../../libDaisy/src/per/dac.h ****     {
  65:../../../libDaisy/src/per/dac.h ****         ENABLED,
  66:../../../libDaisy/src/per/dac.h ****         DISABLED,
  67:../../../libDaisy/src/per/dac.h ****     };
  68:../../../libDaisy/src/per/dac.h **** 
  69:../../../libDaisy/src/per/dac.h ****     /** Configuration structure for initializing the DAC structure. */
  70:../../../libDaisy/src/per/dac.h ****     struct Config
  71:../../../libDaisy/src/per/dac.h ****     {
  72:../../../libDaisy/src/per/dac.h ****         /** Target Samplerate in Hz used to configure the internal 
  73:../../../libDaisy/src/per/dac.h ****          ** timebase for DMA mode. Does nothing in POLLING mode.
  74:../../../libDaisy/src/per/dac.h ****          ** If the value is 0 at Init time this will default to 48000Hz 
  75:../../../libDaisy/src/per/dac.h ****          ** otherwise the driver will attempt meet the target.*/
  76:../../../libDaisy/src/per/dac.h ****         uint32_t target_samplerate;
  77:../../../libDaisy/src/per/dac.h **** 
  78:../../../libDaisy/src/per/dac.h ****         Channel     chn;
  79:../../../libDaisy/src/per/dac.h ****         Mode        mode;
  80:../../../libDaisy/src/per/dac.h ****         BitDepth    bitdepth;
  81:../../../libDaisy/src/per/dac.h ****         BufferState buff_state;
  82:../../../libDaisy/src/per/dac.h ****     };
  83:../../../libDaisy/src/per/dac.h **** 
ARM GAS  /var/folders/yw/6_x9gyn52jjg4jtn_wsryx_80000gp/T//ccNwO1Mk.s 			page 71


  84:../../../libDaisy/src/per/dac.h ****     DacHandle() : pimpl_(nullptr) {}
 2115              		.loc 12 84 5 is_stmt 1 view .LVU527
 2116              	.LBB743:
 2117              	.LBB744:
 2118              		.loc 12 84 33 is_stmt 0 view .LVU528
 2119 000e 0462     		str	r4, [r0, #32]
 2120              	.LVL124:
 2121              		.loc 12 84 33 view .LVU529
 2122              	.LBE744:
 2123              	.LBE743:
 2124              	.LBE742:
 2125              	.LBB745:
 2126              	.LBI745:
  40:../../../libDaisy/src/hid/usb.h **** 
 2127              		.loc 3 40 5 is_stmt 1 view .LVU530
  40:../../../libDaisy/src/hid/usb.h **** 
 2128              		.loc 3 40 5 is_stmt 0 view .LVU531
 2129              	.LBE745:
 2130              	.LBB746:
 2131              	.LBI746:
  77:../../../libDaisy/src/sys/system.h ****     ~System() {}
 2132              		.loc 2 77 5 is_stmt 1 view .LVU532
  77:../../../libDaisy/src/sys/system.h ****     ~System() {}
 2133              		.loc 2 77 5 is_stmt 0 view .LVU533
 2134              	.LBE746:
 2135              	.LBE748:
 2136              	.LBE750:
  24:mpr121Test.cpp **** Mpr121I2C mpr121;
 2137              		.loc 7 24 11 view .LVU534
 2138 0010 FFF7FEFF 		bl	__aeabi_atexit
 2139              	.LVL125:
 2140              	.LBB751:
 2141              	.LBI751:
  90:../../../libDaisy/src/dev/mpr121.h ****     ~Mpr121() {}
 2142              		.loc 8 90 5 is_stmt 1 view .LVU535
 2143              	.LBB752:
 2144              	.LBB753:
 2145              	.LBI753:
  99:../../../libDaisy/src/dev/mpr121.h ****         {
 2146              		.loc 8 99 9 view .LVU536
 2147              	.LBB754:
 2148              	.LBB755:
 2149              	.LBI755:
  34:../../../libDaisy/src/dev/mpr121.h ****         {
 2150              		.loc 8 34 9 view .LVU537
 2151              	.LBB756:
 2152              	.LBB757:
 2153              	.LBB758:
 2154              	.LBI758:
 272:../../../libDaisy/src/daisy_core.h **** 
 2155              		.loc 9 272 15 view .LVU538
 272:../../../libDaisy/src/daisy_core.h **** 
 2156              		.loc 9 272 15 is_stmt 0 view .LVU539
 2157              	.LBE758:
 2158              	.LBB759:
 2159              	.LBI759:
 272:../../../libDaisy/src/daisy_core.h **** 
ARM GAS  /var/folders/yw/6_x9gyn52jjg4jtn_wsryx_80000gp/T//ccNwO1Mk.s 			page 72


 2160              		.loc 9 272 15 is_stmt 1 view .LVU540
 272:../../../libDaisy/src/daisy_core.h **** 
 2161              		.loc 9 272 15 is_stmt 0 view .LVU541
 2162              	.LBE759:
  36:../../../libDaisy/src/dev/mpr121.h ****             speed  = I2CHandle::Config::Speed::I2C_400KHZ;
 2163              		.loc 8 36 13 is_stmt 1 view .LVU542
  37:../../../libDaisy/src/dev/mpr121.h **** 
 2164              		.loc 8 37 13 view .LVU543
  39:../../../libDaisy/src/dev/mpr121.h ****             sda = Pin(PORTB, 9);
 2165              		.loc 8 39 13 view .LVU544
 2166              	.LBB760:
 2167              	.LBI760:
 269:../../../libDaisy/src/daisy_core.h **** 
 2168              		.loc 9 269 15 view .LVU545
 269:../../../libDaisy/src/daisy_core.h **** 
 2169              		.loc 9 269 15 is_stmt 0 view .LVU546
 2170              	.LBE760:
  40:../../../libDaisy/src/dev/mpr121.h **** 
 2171              		.loc 8 40 13 is_stmt 1 view .LVU547
 2172              	.LBB761:
 2173              	.LBI761:
 269:../../../libDaisy/src/daisy_core.h **** 
 2174              		.loc 9 269 15 view .LVU548
 269:../../../libDaisy/src/daisy_core.h **** 
 2175              		.loc 9 269 15 is_stmt 0 view .LVU549
 2176              	.LBE761:
  42:../../../libDaisy/src/dev/mpr121.h ****         }
 2177              		.loc 8 42 13 is_stmt 1 view .LVU550
  42:../../../libDaisy/src/dev/mpr121.h ****         }
 2178              		.loc 8 42 13 is_stmt 0 view .LVU551
 2179              	.LBE757:
 2180              	.LBE756:
 2181              	.LBE755:
 2182              	.LBE754:
 2183              	.LBE753:
 2184              	.LBB770:
 2185              	.LBI770:
  20:../../../libDaisy/src/dev/mpr121.h ****     ~Mpr121I2CTransport() {}
 2186              		.loc 8 20 5 is_stmt 1 view .LVU552
 2187              	.LBB771:
 2188              	.LBB772:
 2189              	.LBI772:
  29:../../../libDaisy/src/per/i2c.h ****     {
  30:../../../libDaisy/src/per/i2c.h ****         /** Specifies whether the interface will operate in master or slave mode. */
  31:../../../libDaisy/src/per/i2c.h ****         enum class Mode
  32:../../../libDaisy/src/per/i2c.h ****         {
  33:../../../libDaisy/src/per/i2c.h ****             I2C_MASTER,
  34:../../../libDaisy/src/per/i2c.h ****             I2C_SLAVE,
  35:../../../libDaisy/src/per/i2c.h ****         };
  36:../../../libDaisy/src/per/i2c.h **** 
  37:../../../libDaisy/src/per/i2c.h ****         /** Specifices the internal peripheral to use (these are mapped to different pins on the ha
  38:../../../libDaisy/src/per/i2c.h ****         enum class Peripheral
  39:../../../libDaisy/src/per/i2c.h ****         {
  40:../../../libDaisy/src/per/i2c.h ****             I2C_1 = 0, /**< & */
  41:../../../libDaisy/src/per/i2c.h ****             I2C_2,     /**< & */
  42:../../../libDaisy/src/per/i2c.h ****             I2C_3,     /**< & */
  43:../../../libDaisy/src/per/i2c.h ****             I2C_4,     /**< & */
ARM GAS  /var/folders/yw/6_x9gyn52jjg4jtn_wsryx_80000gp/T//ccNwO1Mk.s 			page 73


  44:../../../libDaisy/src/per/i2c.h ****         };
  45:../../../libDaisy/src/per/i2c.h **** 
  46:../../../libDaisy/src/per/i2c.h ****         /** Rate at which the clock/data will be sent/received. The device being used will have max
  47:../../../libDaisy/src/per/i2c.h ****          *  1MHZ Mode is currently 886kHz
  48:../../../libDaisy/src/per/i2c.h ****          */
  49:../../../libDaisy/src/per/i2c.h ****         enum class Speed
  50:../../../libDaisy/src/per/i2c.h ****         {
  51:../../../libDaisy/src/per/i2c.h ****             I2C_100KHZ, /**< & */
  52:../../../libDaisy/src/per/i2c.h ****             I2C_400KHZ, /**< & */
  53:../../../libDaisy/src/per/i2c.h ****             I2C_1MHZ,   /**< & */
  54:../../../libDaisy/src/per/i2c.h ****         };
  55:../../../libDaisy/src/per/i2c.h **** 
  56:../../../libDaisy/src/per/i2c.h ****         Peripheral periph; /**< & */
  57:../../../libDaisy/src/per/i2c.h ****         struct
  58:../../../libDaisy/src/per/i2c.h ****         {
  59:../../../libDaisy/src/per/i2c.h ****             dsy_gpio_pin scl; /**< & */
  60:../../../libDaisy/src/per/i2c.h ****             dsy_gpio_pin sda; /**< & */
  61:../../../libDaisy/src/per/i2c.h ****         } pin_config;         /**< & */
  62:../../../libDaisy/src/per/i2c.h **** 
  63:../../../libDaisy/src/per/i2c.h ****         Speed speed; /**< & */
  64:../../../libDaisy/src/per/i2c.h ****         Mode  mode;  /**< & */
  65:../../../libDaisy/src/per/i2c.h ****         // 0x10 is chosen as a default to avoid conflicts with reserved addresses
  66:../../../libDaisy/src/per/i2c.h ****         uint8_t address = 0x10; /**< & */
  67:../../../libDaisy/src/per/i2c.h ****     };
  68:../../../libDaisy/src/per/i2c.h **** 
  69:../../../libDaisy/src/per/i2c.h ****     /** Return values for I2C functions. */
  70:../../../libDaisy/src/per/i2c.h ****     enum class Result
  71:../../../libDaisy/src/per/i2c.h ****     {
  72:../../../libDaisy/src/per/i2c.h ****         OK, /**< & */
  73:../../../libDaisy/src/per/i2c.h ****         ERR /**< & */
  74:../../../libDaisy/src/per/i2c.h ****     };
  75:../../../libDaisy/src/per/i2c.h **** 
  76:../../../libDaisy/src/per/i2c.h ****     enum class Direction
  77:../../../libDaisy/src/per/i2c.h ****     {
  78:../../../libDaisy/src/per/i2c.h ****         TRANSMIT, /**< & */
  79:../../../libDaisy/src/per/i2c.h ****         RECEIVE,  /**< & */
  80:../../../libDaisy/src/per/i2c.h ****     };
  81:../../../libDaisy/src/per/i2c.h **** 
  82:../../../libDaisy/src/per/i2c.h ****     I2CHandle() : pimpl_(nullptr) {}
 2190              		.loc 10 82 5 view .LVU553
 2191              		.loc 10 82 5 is_stmt 0 view .LVU554
 2192              	.LBE772:
 2193              	.LBB773:
 2194              	.LBI773:
  34:../../../libDaisy/src/dev/mpr121.h ****         {
 2195              		.loc 8 34 9 is_stmt 1 view .LVU555
 2196              	.LBB774:
 2197              	.LBB775:
 2198              	.LBB776:
 2199              	.LBI776:
 272:../../../libDaisy/src/daisy_core.h **** 
 2200              		.loc 9 272 15 view .LVU556
 272:../../../libDaisy/src/daisy_core.h **** 
 2201              		.loc 9 272 15 is_stmt 0 view .LVU557
 2202              	.LBE776:
 2203              	.LBB777:
 2204              	.LBI777:
ARM GAS  /var/folders/yw/6_x9gyn52jjg4jtn_wsryx_80000gp/T//ccNwO1Mk.s 			page 74


 272:../../../libDaisy/src/daisy_core.h **** 
 2205              		.loc 9 272 15 is_stmt 1 view .LVU558
 272:../../../libDaisy/src/daisy_core.h **** 
 2206              		.loc 9 272 15 is_stmt 0 view .LVU559
 2207              	.LBE777:
  36:../../../libDaisy/src/dev/mpr121.h ****             speed  = I2CHandle::Config::Speed::I2C_400KHZ;
 2208              		.loc 8 36 13 is_stmt 1 view .LVU560
  37:../../../libDaisy/src/dev/mpr121.h **** 
 2209              		.loc 8 37 13 view .LVU561
  39:../../../libDaisy/src/dev/mpr121.h ****             sda = Pin(PORTB, 9);
 2210              		.loc 8 39 13 view .LVU562
 2211              	.LBB778:
 2212              	.LBI778:
 269:../../../libDaisy/src/daisy_core.h **** 
 2213              		.loc 9 269 15 view .LVU563
 269:../../../libDaisy/src/daisy_core.h **** 
 2214              		.loc 9 269 15 is_stmt 0 view .LVU564
 2215              	.LBE778:
  40:../../../libDaisy/src/dev/mpr121.h **** 
 2216              		.loc 8 40 13 is_stmt 1 view .LVU565
 2217              	.LBB779:
 2218              	.LBI779:
 269:../../../libDaisy/src/daisy_core.h **** 
 2219              		.loc 9 269 15 view .LVU566
 269:../../../libDaisy/src/daisy_core.h **** 
 2220              		.loc 9 269 15 is_stmt 0 view .LVU567
 2221              	.LBE779:
  42:../../../libDaisy/src/dev/mpr121.h ****         }
 2222              		.loc 8 42 13 is_stmt 1 view .LVU568
 2223              	.LBE775:
 2224              	.LBE774:
 2225              	.LBE773:
 2226              	.LBE771:
 2227              	.LBE770:
 2228              	.LBB784:
 2229              	.LBB768:
 2230              	.LBB766:
 2231              	.LBB764:
 2232              	.LBB762:
  36:../../../libDaisy/src/dev/mpr121.h ****             speed  = I2CHandle::Config::Speed::I2C_400KHZ;
 2233              		.loc 8 36 20 is_stmt 0 view .LVU569
 2234 0014 1048     		ldr	r0, .L48+12
  37:../../../libDaisy/src/dev/mpr121.h **** 
 2235              		.loc 8 37 20 view .LVU570
 2236 0016 0121     		movs	r1, #1
 2237              	.LBE762:
 2238              	.LBE764:
 2239              	.LBE766:
 2240              	.LBE768:
 2241              	.LBE784:
  90:../../../libDaisy/src/dev/mpr121.h ****     ~Mpr121() {}
 2242              		.loc 8 90 5 view .LVU571
 2243 0018 104B     		ldr	r3, .L48+16
 2244              	.LBE752:
 2245              	.LBE751:
  25:mpr121Test.cpp **** Oscillator osc;
 2246              		.loc 7 25 11 view .LVU572
ARM GAS  /var/folders/yw/6_x9gyn52jjg4jtn_wsryx_80000gp/T//ccNwO1Mk.s 			page 75


 2247 001a 0D4A     		ldr	r2, .L48+4
 2248              	.LBB789:
 2249              	.LBB787:
 2250              	.LBB785:
 2251              	.LBB769:
 2252              	.LBB767:
 2253              	.LBB765:
 2254              	.LBB763:
  36:../../../libDaisy/src/dev/mpr121.h ****             speed  = I2CHandle::Config::Speed::I2C_400KHZ;
 2255              		.loc 8 36 20 view .LVU573
 2256 001c 0460     		str	r4, [r0]
 2257              	.LBE763:
 2258              	.LBE765:
 2259              	.LBE767:
 2260              	.LBE769:
 2261              	.LBE785:
  90:../../../libDaisy/src/dev/mpr121.h ****     ~Mpr121() {}
 2262              		.loc 8 90 5 view .LVU574
 2263 001e C0E90113 		strd	r1, r3, [r0, #4]
 2264 0022 C0E90813 		strd	r1, r3, [r0, #32]
 2265 0026 5A23     		movs	r3, #90
 2266              	.LBE787:
 2267              	.LBE789:
  25:mpr121Test.cpp **** Oscillator osc;
 2268              		.loc 7 25 11 view .LVU575
 2269 0028 0D49     		ldr	r1, .L48+20
 2270              	.LBB790:
 2271              	.LBB788:
  90:../../../libDaisy/src/dev/mpr121.h ****     ~Mpr121() {}
 2272              		.loc 8 90 5 view .LVU576
 2273 002a 0361     		str	r3, [r0, #16]
 2274 002c C362     		str	r3, [r0, #44]
 2275              	.LVL126:
  90:../../../libDaisy/src/dev/mpr121.h ****     ~Mpr121() {}
 2276              		.loc 8 90 5 view .LVU577
 2277 002e 40F20C63 		movw	r3, #1548
 2278              	.LBB786:
 2279              	.LBB783:
 2280              	.LBB782:
 2281              	.LBB781:
 2282              	.LBB780:
  36:../../../libDaisy/src/dev/mpr121.h ****             speed  = I2CHandle::Config::Speed::I2C_400KHZ;
 2283              		.loc 8 36 20 view .LVU578
 2284 0032 C0E90644 		strd	r4, r4, [r0, #24]
 2285              	.LBE780:
 2286              	.LBE781:
 2287              	.LBE782:
 2288              	.LBE783:
 2289              	.LBE786:
  90:../../../libDaisy/src/dev/mpr121.h ****     ~Mpr121() {}
 2290              		.loc 8 90 5 view .LVU579
 2291 0036 4361     		str	r3, [r0, #20]
 2292              	.LBE788:
 2293              	.LBE790:
  25:mpr121Test.cpp **** Oscillator osc;
 2294              		.loc 7 25 11 view .LVU580
 2295 0038 FFF7FEFF 		bl	__aeabi_atexit
ARM GAS  /var/folders/yw/6_x9gyn52jjg4jtn_wsryx_80000gp/T//ccNwO1Mk.s 			page 76


 2296              	.LVL127:
 2297              	.LBB791:
 2298              	.LBI791:
  15:../../../DaisySP/Source/Synthesis/oscillator.h ****     ~Oscillator() {}
 2299              		.loc 6 15 5 is_stmt 1 view .LVU581
  15:../../../DaisySP/Source/Synthesis/oscillator.h ****     ~Oscillator() {}
 2300              		.loc 6 15 5 is_stmt 0 view .LVU582
 2301              	.LBE791:
  26:mpr121Test.cpp **** 
 2302              		.loc 7 26 12 view .LVU583
 2303 003c 044A     		ldr	r2, .L48+4
 2304 003e 0949     		ldr	r1, .L48+24
 2305 0040 0948     		ldr	r0, .L48+28
 2306              	.LBE792:
 2307              	.LBE794:
 2308              		.loc 7 106 1 view .LVU584
 2309 0042 BDE81040 		pop	{r4, lr}
 2310              		.cfi_restore 14
 2311              		.cfi_restore 4
 2312              		.cfi_def_cfa_offset 0
 2313              	.LBB795:
 2314              	.LBB793:
  26:mpr121Test.cpp **** 
 2315              		.loc 7 26 12 view .LVU585
 2316 0046 FFF7FEBF 		b	__aeabi_atexit
 2317              	.LVL128:
 2318              	.L49:
 2319 004a 00BF     		.align	2
 2320              	.L48:
 2321 004c 00000000 		.word	.LANCHOR0
 2322 0050 00000000 		.word	__dso_handle
 2323 0054 00000000 		.word	_ZN5daisy9DaisySeedD1Ev
 2324 0058 00000000 		.word	.LANCHOR2
 2325 005c 01080109 		.word	151062529
 2326 0060 00000000 		.word	_ZN5daisy6Mpr121INS_18Mpr121I2CTransportEED1Ev
 2327 0064 00000000 		.word	_ZN7daisysp10OscillatorD1Ev
 2328 0068 00000000 		.word	.LANCHOR1
 2329              	.LBE793:
 2330              	.LBE795:
 2331              		.cfi_endproc
 2332              	.LFE5367:
 2334              		.section	.init_array,"aw",%init_array
 2335              		.align	2
 2336 0000 00000000 		.word	_GLOBAL__sub_I_scale(target1)
 2337              		.global	osc
 2338              		.global	mpr121
 2339              		.global	hw
 2340              		.global	scale
 2341              		.section	.bss.hw,"aw",%nobits
 2342              		.align	2
 2343              		.set	.LANCHOR0,. + 0
 2346              	hw:
 2347 0000 00000000 		.space	60
 2347      00000000 
 2347      00000000 
 2347      00000000 
 2347      00000000 
ARM GAS  /var/folders/yw/6_x9gyn52jjg4jtn_wsryx_80000gp/T//ccNwO1Mk.s 			page 77


 2348              		.section	.bss.mpr121,"aw",%nobits
 2349              		.align	2
 2350              		.set	.LANCHOR2,. + 0
 2353              	mpr121:
 2354 0000 00000000 		.space	52
 2354      00000000 
 2354      00000000 
 2354      00000000 
 2354      00000000 
 2355              		.section	.bss.osc,"aw",%nobits
 2356              		.align	2
 2357              		.set	.LANCHOR1,. + 0
 2360              	osc:
 2361 0000 00000000 		.space	48
 2361      00000000 
 2361      00000000 
 2361      00000000 
 2361      00000000 
 2362              		.section	.data.scale,"aw"
 2363              		.align	3
 2364              		.set	.LANCHOR3,. + 0
 2367              	scale:
 2368 0000 AE47E17A 		.word	2061584302
 2369 0004 145A7040 		.word	1081104916
 2370 0008 7B14AE47 		.word	1202590843
 2371 000c E1527140 		.word	1081168609
 2372 0010 C3F5285C 		.word	1546188227
 2373 0014 8F5A7240 		.word	1081236111
 2374 0018 AE47E17A 		.word	2061584302
 2375 001c 14727340 		.word	1081307668
 2376 0020 AE47E17A 		.word	2061584302
 2377 0024 149A7440 		.word	1081383444
 2378 0028 48E17A14 		.word	343597384
 2379 002c AED37540 		.word	1081463726
 2380 0030 A4703D0A 		.word	171798692
 2381 0034 D71F7740 		.word	1081548759
 2382 0038 00000000 		.word	0
 2383 003c 00807840 		.word	1081638912
 2384 0040 CDCCCCCC 		.word	-858993459
 2385 0044 CCF47940 		.word	1081734348
 2386 0048 00000000 		.word	0
 2387 004c 00807B40 		.word	1081835520
 2388 0050 C3F5285C 		.word	1546188227
 2389 0054 8F227D40 		.word	1081942671
 2390 0058 AE47E17A 		.word	2061584302
 2391 005c 14DE7E40 		.word	1082056212
 2392              		.text
 2393              	.Letext0:
 2394              		.file 13 "/Library/DaisyToolchain/0.2.0/arm/arm-none-eabi/include/machine/_default_types.h"
 2395              		.file 14 "/Library/DaisyToolchain/0.2.0/arm/arm-none-eabi/include/sys/_stdint.h"
 2396              		.file 15 "/Library/DaisyToolchain/0.2.0/arm/arm-none-eabi/include/stdint.h"
 2397              		.file 16 "/Library/DaisyToolchain/0.2.0/arm/lib/gcc/arm-none-eabi/10.3.1/include/stddef.h"
 2398              		.file 17 "/Library/DaisyToolchain/0.2.0/arm/arm-none-eabi/include/c++/10.3.1/cmath"
 2399              		.file 18 "/Library/DaisyToolchain/0.2.0/arm/arm-none-eabi/include/c++/10.3.1/bits/std_abs.h"
 2400              		.file 19 "/Library/DaisyToolchain/0.2.0/arm/arm-none-eabi/include/c++/10.3.1/cstdlib"
 2401              		.file 20 "/Library/DaisyToolchain/0.2.0/arm/arm-none-eabi/include/c++/10.3.1/cstdint"
 2402              		.file 21 "/Library/DaisyToolchain/0.2.0/arm/arm-none-eabi/include/c++/10.3.1/type_traits"
ARM GAS  /var/folders/yw/6_x9gyn52jjg4jtn_wsryx_80000gp/T//ccNwO1Mk.s 			page 78


 2403              		.file 22 "/Library/DaisyToolchain/0.2.0/arm/arm-none-eabi/include/c++/10.3.1/debug/debug.h"
 2404              		.file 23 "/Library/DaisyToolchain/0.2.0/arm/arm-none-eabi/include/c++/10.3.1/arm-none-eabi/thumb/v
 2405              		.file 24 "/Library/DaisyToolchain/0.2.0/arm/arm-none-eabi/include/c++/10.3.1/bits/algorithmfwd.h"
 2406              		.file 25 "/Library/DaisyToolchain/0.2.0/arm/arm-none-eabi/include/c++/10.3.1/bits/stl_pair.h"
 2407              		.file 26 "/Library/DaisyToolchain/0.2.0/arm/arm-none-eabi/include/c++/10.3.1/bits/exception_ptr.h"
 2408              		.file 27 "/Library/DaisyToolchain/0.2.0/arm/arm-none-eabi/include/c++/10.3.1/cstdarg"
 2409              		.file 28 "/Library/DaisyToolchain/0.2.0/arm/arm-none-eabi/include/c++/10.3.1/cstdio"
 2410              		.file 29 "/Library/DaisyToolchain/0.2.0/arm/arm-none-eabi/include/c++/10.3.1/cstring"
 2411              		.file 30 "/Library/DaisyToolchain/0.2.0/arm/arm-none-eabi/include/c++/10.3.1/cwchar"
 2412              		.file 31 "/Library/DaisyToolchain/0.2.0/arm/arm-none-eabi/include/c++/10.3.1/clocale"
 2413              		.file 32 "/Library/DaisyToolchain/0.2.0/arm/arm-none-eabi/include/c++/10.3.1/bits/basic_string.h"
 2414              		.file 33 "/Library/DaisyToolchain/0.2.0/arm/arm-none-eabi/include/c++/10.3.1/bits/stl_iterator.h"
 2415              		.file 34 "/Library/DaisyToolchain/0.2.0/arm/arm-none-eabi/include/c++/10.3.1/bits/predefined_ops.h
 2416              		.file 35 "/Library/DaisyToolchain/0.2.0/arm/arm-none-eabi/include/sys/_types.h"
 2417              		.file 36 "/Library/DaisyToolchain/0.2.0/arm/arm-none-eabi/include/sys/reent.h"
 2418              		.file 37 "/Library/DaisyToolchain/0.2.0/arm/arm-none-eabi/include/sys/lock.h"
 2419              		.file 38 "/Library/DaisyToolchain/0.2.0/arm/arm-none-eabi/include/math.h"
 2420              		.file 39 "/Library/DaisyToolchain/0.2.0/arm/arm-none-eabi/include/stdlib.h"
 2421              		.file 40 "/Library/DaisyToolchain/0.2.0/arm/arm-none-eabi/include/c++/10.3.1/math.h"
 2422              		.file 41 "/Library/DaisyToolchain/0.2.0/arm/arm-none-eabi/include/c++/10.3.1/stdlib.h"
 2423              		.file 42 "../../../libDaisy/src/per/tim.h"
 2424              		.file 43 "../../../libDaisy/src/per/sai.h"
 2425              		.file 44 "../../../libDaisy/src/hid/logger_impl.h"
 2426              		.file 45 "../../../libDaisy/src/util/wav_format.h"
 2427              		.file 46 "../../../libDaisy/src/dev/max11300.h"
 2428              		.file 47 "../../../libDaisy/src/hid/logger.h"
 2429              		.file 48 "../../../libDaisy/src/per/gpio.h"
 2430              		.file 49 "../../../libDaisy/src/dev/sdram.h"
 2431              		.file 50 "/Library/DaisyToolchain/0.2.0/arm/lib/gcc/arm-none-eabi/10.3.1/include/stdarg.h"
 2432              		.file 51 "/Library/DaisyToolchain/0.2.0/arm/arm-none-eabi/include/stdio.h"
 2433              		.file 52 "/Library/DaisyToolchain/0.2.0/arm/arm-none-eabi/include/string.h"
 2434              		.file 53 "../../../DaisySP/Source/Control/adenv.h"
 2435              		.file 54 "../../../DaisySP/Source/Utility/dsp.h"
 2436              		.file 55 "/Library/DaisyToolchain/0.2.0/arm/arm-none-eabi/include/wchar.h"
 2437              		.file 56 "/Library/DaisyToolchain/0.2.0/arm/arm-none-eabi/include/locale.h"
 2438              		.file 57 "<built-in>"
 2439              		.file 58 "../../../libDaisy/src/dev/sr_595.h"
ARM GAS  /var/folders/yw/6_x9gyn52jjg4jtn_wsryx_80000gp/T//ccNwO1Mk.s 			page 79

